
ProjectMicro.elf:     file format elf32-littlearm

Sections:
Idx Name          Size      VMA       LMA       File off  Algn
  0 .isr_vector   00000198  08000000  08000000  00010000  2**0
                  CONTENTS, ALLOC, LOAD, READONLY, DATA
  1 .text         0000ac80  08000198  08000198  00010198  2**2
                  CONTENTS, ALLOC, LOAD, READONLY, CODE
  2 .rodata       00000068  0800ae18  0800ae18  0001ae18  2**2
                  CONTENTS, ALLOC, LOAD, READONLY, DATA
  3 .ARM.extab    00000000  0800ae80  0800ae80  00020104  2**0
                  CONTENTS
  4 .ARM          00000008  0800ae80  0800ae80  0001ae80  2**2
                  CONTENTS, ALLOC, LOAD, READONLY, DATA
  5 .preinit_array 00000000  0800ae88  0800ae88  00020104  2**0
                  CONTENTS, ALLOC, LOAD, DATA
  6 .init_array   00000004  0800ae88  0800ae88  0001ae88  2**2
                  CONTENTS, ALLOC, LOAD, DATA
  7 .fini_array   00000004  0800ae8c  0800ae8c  0001ae8c  2**2
                  CONTENTS, ALLOC, LOAD, DATA
  8 .data         00000104  20000000  0800ae90  00020000  2**2
                  CONTENTS, ALLOC, LOAD, DATA
  9 .bss          00001514  20000104  0800af94  00020104  2**2
                  ALLOC
 10 ._user_heap_stack 00000600  20001618  0800af94  00021618  2**0
                  ALLOC
 11 .ARM.attributes 00000030  00000000  00000000  00020104  2**0
                  CONTENTS, READONLY
 12 .comment      00000043  00000000  00000000  00020134  2**0
                  CONTENTS, READONLY
 13 .debug_info   00018237  00000000  00000000  00020177  2**0
                  CONTENTS, READONLY, DEBUGGING, OCTETS
 14 .debug_abbrev 00003b9e  00000000  00000000  000383ae  2**0
                  CONTENTS, READONLY, DEBUGGING, OCTETS
 15 .debug_aranges 000015e8  00000000  00000000  0003bf50  2**3
                  CONTENTS, READONLY, DEBUGGING, OCTETS
 16 .debug_rnglists 000010ea  00000000  00000000  0003d538  2**0
                  CONTENTS, READONLY, DEBUGGING, OCTETS
 17 .debug_macro  0001aedd  00000000  00000000  0003e622  2**0
                  CONTENTS, READONLY, DEBUGGING, OCTETS
 18 .debug_line   0001c687  00000000  00000000  000594ff  2**0
                  CONTENTS, READONLY, DEBUGGING, OCTETS
 19 .debug_str    0009e894  00000000  00000000  00075b86  2**0
                  CONTENTS, READONLY, DEBUGGING, OCTETS
 20 .debug_frame  00005c7c  00000000  00000000  0011441c  2**2
                  CONTENTS, READONLY, DEBUGGING, OCTETS
 21 .debug_line_str 00000090  00000000  00000000  0011a098  2**0
                  CONTENTS, READONLY, DEBUGGING, OCTETS

Disassembly of section .text:

08000198 <__do_global_dtors_aux>:
 8000198:	b510      	push	{r4, lr}
 800019a:	4c05      	ldr	r4, [pc, #20]	; (80001b0 <__do_global_dtors_aux+0x18>)
 800019c:	7823      	ldrb	r3, [r4, #0]
 800019e:	b933      	cbnz	r3, 80001ae <__do_global_dtors_aux+0x16>
 80001a0:	4b04      	ldr	r3, [pc, #16]	; (80001b4 <__do_global_dtors_aux+0x1c>)
 80001a2:	b113      	cbz	r3, 80001aa <__do_global_dtors_aux+0x12>
 80001a4:	4804      	ldr	r0, [pc, #16]	; (80001b8 <__do_global_dtors_aux+0x20>)
 80001a6:	f3af 8000 	nop.w
 80001aa:	2301      	movs	r3, #1
 80001ac:	7023      	strb	r3, [r4, #0]
 80001ae:	bd10      	pop	{r4, pc}
 80001b0:	20000104 	.word	0x20000104
 80001b4:	00000000 	.word	0x00000000
 80001b8:	0800ae00 	.word	0x0800ae00

080001bc <frame_dummy>:
 80001bc:	b508      	push	{r3, lr}
 80001be:	4b03      	ldr	r3, [pc, #12]	; (80001cc <frame_dummy+0x10>)
 80001c0:	b11b      	cbz	r3, 80001ca <frame_dummy+0xe>
 80001c2:	4903      	ldr	r1, [pc, #12]	; (80001d0 <frame_dummy+0x14>)
 80001c4:	4803      	ldr	r0, [pc, #12]	; (80001d4 <frame_dummy+0x18>)
 80001c6:	f3af 8000 	nop.w
 80001ca:	bd08      	pop	{r3, pc}
 80001cc:	00000000 	.word	0x00000000
 80001d0:	20000108 	.word	0x20000108
 80001d4:	0800ae00 	.word	0x0800ae00

080001d8 <__aeabi_uldivmod>:
 80001d8:	b953      	cbnz	r3, 80001f0 <__aeabi_uldivmod+0x18>
 80001da:	b94a      	cbnz	r2, 80001f0 <__aeabi_uldivmod+0x18>
 80001dc:	2900      	cmp	r1, #0
 80001de:	bf08      	it	eq
 80001e0:	2800      	cmpeq	r0, #0
 80001e2:	bf1c      	itt	ne
 80001e4:	f04f 31ff 	movne.w	r1, #4294967295
 80001e8:	f04f 30ff 	movne.w	r0, #4294967295
 80001ec:	f000 b970 	b.w	80004d0 <__aeabi_idiv0>
 80001f0:	f1ad 0c08 	sub.w	ip, sp, #8
 80001f4:	e96d ce04 	strd	ip, lr, [sp, #-16]!
 80001f8:	f000 f806 	bl	8000208 <__udivmoddi4>
 80001fc:	f8dd e004 	ldr.w	lr, [sp, #4]
 8000200:	e9dd 2302 	ldrd	r2, r3, [sp, #8]
 8000204:	b004      	add	sp, #16
 8000206:	4770      	bx	lr

08000208 <__udivmoddi4>:
 8000208:	e92d 47f0 	stmdb	sp!, {r4, r5, r6, r7, r8, r9, sl, lr}
 800020c:	9e08      	ldr	r6, [sp, #32]
 800020e:	460d      	mov	r5, r1
 8000210:	4604      	mov	r4, r0
 8000212:	460f      	mov	r7, r1
 8000214:	2b00      	cmp	r3, #0
 8000216:	d14a      	bne.n	80002ae <__udivmoddi4+0xa6>
 8000218:	428a      	cmp	r2, r1
 800021a:	4694      	mov	ip, r2
 800021c:	d965      	bls.n	80002ea <__udivmoddi4+0xe2>
 800021e:	fab2 f382 	clz	r3, r2
 8000222:	b143      	cbz	r3, 8000236 <__udivmoddi4+0x2e>
 8000224:	fa02 fc03 	lsl.w	ip, r2, r3
 8000228:	f1c3 0220 	rsb	r2, r3, #32
 800022c:	409f      	lsls	r7, r3
 800022e:	fa20 f202 	lsr.w	r2, r0, r2
 8000232:	4317      	orrs	r7, r2
 8000234:	409c      	lsls	r4, r3
 8000236:	ea4f 4e1c 	mov.w	lr, ip, lsr #16
 800023a:	fa1f f58c 	uxth.w	r5, ip
 800023e:	fbb7 f1fe 	udiv	r1, r7, lr
 8000242:	0c22      	lsrs	r2, r4, #16
 8000244:	fb0e 7711 	mls	r7, lr, r1, r7
 8000248:	ea42 4207 	orr.w	r2, r2, r7, lsl #16
 800024c:	fb01 f005 	mul.w	r0, r1, r5
 8000250:	4290      	cmp	r0, r2
 8000252:	d90a      	bls.n	800026a <__udivmoddi4+0x62>
 8000254:	eb1c 0202 	adds.w	r2, ip, r2
 8000258:	f101 37ff 	add.w	r7, r1, #4294967295
 800025c:	f080 811c 	bcs.w	8000498 <__udivmoddi4+0x290>
 8000260:	4290      	cmp	r0, r2
 8000262:	f240 8119 	bls.w	8000498 <__udivmoddi4+0x290>
 8000266:	3902      	subs	r1, #2
 8000268:	4462      	add	r2, ip
 800026a:	1a12      	subs	r2, r2, r0
 800026c:	b2a4      	uxth	r4, r4
 800026e:	fbb2 f0fe 	udiv	r0, r2, lr
 8000272:	fb0e 2210 	mls	r2, lr, r0, r2
 8000276:	ea44 4402 	orr.w	r4, r4, r2, lsl #16
 800027a:	fb00 f505 	mul.w	r5, r0, r5
 800027e:	42a5      	cmp	r5, r4
 8000280:	d90a      	bls.n	8000298 <__udivmoddi4+0x90>
 8000282:	eb1c 0404 	adds.w	r4, ip, r4
 8000286:	f100 32ff 	add.w	r2, r0, #4294967295
 800028a:	f080 8107 	bcs.w	800049c <__udivmoddi4+0x294>
 800028e:	42a5      	cmp	r5, r4
 8000290:	f240 8104 	bls.w	800049c <__udivmoddi4+0x294>
 8000294:	4464      	add	r4, ip
 8000296:	3802      	subs	r0, #2
 8000298:	ea40 4001 	orr.w	r0, r0, r1, lsl #16
 800029c:	1b64      	subs	r4, r4, r5
 800029e:	2100      	movs	r1, #0
 80002a0:	b11e      	cbz	r6, 80002aa <__udivmoddi4+0xa2>
 80002a2:	40dc      	lsrs	r4, r3
 80002a4:	2300      	movs	r3, #0
 80002a6:	e9c6 4300 	strd	r4, r3, [r6]
 80002aa:	e8bd 87f0 	ldmia.w	sp!, {r4, r5, r6, r7, r8, r9, sl, pc}
 80002ae:	428b      	cmp	r3, r1
 80002b0:	d908      	bls.n	80002c4 <__udivmoddi4+0xbc>
 80002b2:	2e00      	cmp	r6, #0
 80002b4:	f000 80ed 	beq.w	8000492 <__udivmoddi4+0x28a>
 80002b8:	2100      	movs	r1, #0
 80002ba:	e9c6 0500 	strd	r0, r5, [r6]
 80002be:	4608      	mov	r0, r1
 80002c0:	e8bd 87f0 	ldmia.w	sp!, {r4, r5, r6, r7, r8, r9, sl, pc}
 80002c4:	fab3 f183 	clz	r1, r3
 80002c8:	2900      	cmp	r1, #0
 80002ca:	d149      	bne.n	8000360 <__udivmoddi4+0x158>
 80002cc:	42ab      	cmp	r3, r5
 80002ce:	d302      	bcc.n	80002d6 <__udivmoddi4+0xce>
 80002d0:	4282      	cmp	r2, r0
 80002d2:	f200 80f8 	bhi.w	80004c6 <__udivmoddi4+0x2be>
 80002d6:	1a84      	subs	r4, r0, r2
 80002d8:	eb65 0203 	sbc.w	r2, r5, r3
 80002dc:	2001      	movs	r0, #1
 80002de:	4617      	mov	r7, r2
 80002e0:	2e00      	cmp	r6, #0
 80002e2:	d0e2      	beq.n	80002aa <__udivmoddi4+0xa2>
 80002e4:	e9c6 4700 	strd	r4, r7, [r6]
 80002e8:	e7df      	b.n	80002aa <__udivmoddi4+0xa2>
 80002ea:	b902      	cbnz	r2, 80002ee <__udivmoddi4+0xe6>
 80002ec:	deff      	udf	#255	; 0xff
 80002ee:	fab2 f382 	clz	r3, r2
 80002f2:	2b00      	cmp	r3, #0
 80002f4:	f040 8090 	bne.w	8000418 <__udivmoddi4+0x210>
 80002f8:	1a8a      	subs	r2, r1, r2
 80002fa:	ea4f 471c 	mov.w	r7, ip, lsr #16
 80002fe:	fa1f fe8c 	uxth.w	lr, ip
 8000302:	2101      	movs	r1, #1
 8000304:	fbb2 f5f7 	udiv	r5, r2, r7
 8000308:	fb07 2015 	mls	r0, r7, r5, r2
 800030c:	0c22      	lsrs	r2, r4, #16
 800030e:	ea42 4200 	orr.w	r2, r2, r0, lsl #16
 8000312:	fb0e f005 	mul.w	r0, lr, r5
 8000316:	4290      	cmp	r0, r2
 8000318:	d908      	bls.n	800032c <__udivmoddi4+0x124>
 800031a:	eb1c 0202 	adds.w	r2, ip, r2
 800031e:	f105 38ff 	add.w	r8, r5, #4294967295
 8000322:	d202      	bcs.n	800032a <__udivmoddi4+0x122>
 8000324:	4290      	cmp	r0, r2
 8000326:	f200 80cb 	bhi.w	80004c0 <__udivmoddi4+0x2b8>
 800032a:	4645      	mov	r5, r8
 800032c:	1a12      	subs	r2, r2, r0
 800032e:	b2a4      	uxth	r4, r4
 8000330:	fbb2 f0f7 	udiv	r0, r2, r7
 8000334:	fb07 2210 	mls	r2, r7, r0, r2
 8000338:	ea44 4402 	orr.w	r4, r4, r2, lsl #16
 800033c:	fb0e fe00 	mul.w	lr, lr, r0
 8000340:	45a6      	cmp	lr, r4
 8000342:	d908      	bls.n	8000356 <__udivmoddi4+0x14e>
 8000344:	eb1c 0404 	adds.w	r4, ip, r4
 8000348:	f100 32ff 	add.w	r2, r0, #4294967295
 800034c:	d202      	bcs.n	8000354 <__udivmoddi4+0x14c>
 800034e:	45a6      	cmp	lr, r4
 8000350:	f200 80bb 	bhi.w	80004ca <__udivmoddi4+0x2c2>
 8000354:	4610      	mov	r0, r2
 8000356:	eba4 040e 	sub.w	r4, r4, lr
 800035a:	ea40 4005 	orr.w	r0, r0, r5, lsl #16
 800035e:	e79f      	b.n	80002a0 <__udivmoddi4+0x98>
 8000360:	f1c1 0720 	rsb	r7, r1, #32
 8000364:	408b      	lsls	r3, r1
 8000366:	fa22 fc07 	lsr.w	ip, r2, r7
 800036a:	ea4c 0c03 	orr.w	ip, ip, r3
 800036e:	fa05 f401 	lsl.w	r4, r5, r1
 8000372:	fa20 f307 	lsr.w	r3, r0, r7
 8000376:	40fd      	lsrs	r5, r7
 8000378:	ea4f 491c 	mov.w	r9, ip, lsr #16
 800037c:	4323      	orrs	r3, r4
 800037e:	fbb5 f8f9 	udiv	r8, r5, r9
 8000382:	fa1f fe8c 	uxth.w	lr, ip
 8000386:	fb09 5518 	mls	r5, r9, r8, r5
 800038a:	0c1c      	lsrs	r4, r3, #16
 800038c:	ea44 4405 	orr.w	r4, r4, r5, lsl #16
 8000390:	fb08 f50e 	mul.w	r5, r8, lr
 8000394:	42a5      	cmp	r5, r4
 8000396:	fa02 f201 	lsl.w	r2, r2, r1
 800039a:	fa00 f001 	lsl.w	r0, r0, r1
 800039e:	d90b      	bls.n	80003b8 <__udivmoddi4+0x1b0>
 80003a0:	eb1c 0404 	adds.w	r4, ip, r4
 80003a4:	f108 3aff 	add.w	sl, r8, #4294967295
 80003a8:	f080 8088 	bcs.w	80004bc <__udivmoddi4+0x2b4>
 80003ac:	42a5      	cmp	r5, r4
 80003ae:	f240 8085 	bls.w	80004bc <__udivmoddi4+0x2b4>
 80003b2:	f1a8 0802 	sub.w	r8, r8, #2
 80003b6:	4464      	add	r4, ip
 80003b8:	1b64      	subs	r4, r4, r5
 80003ba:	b29d      	uxth	r5, r3
 80003bc:	fbb4 f3f9 	udiv	r3, r4, r9
 80003c0:	fb09 4413 	mls	r4, r9, r3, r4
 80003c4:	ea45 4404 	orr.w	r4, r5, r4, lsl #16
 80003c8:	fb03 fe0e 	mul.w	lr, r3, lr
 80003cc:	45a6      	cmp	lr, r4
 80003ce:	d908      	bls.n	80003e2 <__udivmoddi4+0x1da>
 80003d0:	eb1c 0404 	adds.w	r4, ip, r4
 80003d4:	f103 35ff 	add.w	r5, r3, #4294967295
 80003d8:	d26c      	bcs.n	80004b4 <__udivmoddi4+0x2ac>
 80003da:	45a6      	cmp	lr, r4
 80003dc:	d96a      	bls.n	80004b4 <__udivmoddi4+0x2ac>
 80003de:	3b02      	subs	r3, #2
 80003e0:	4464      	add	r4, ip
 80003e2:	ea43 4308 	orr.w	r3, r3, r8, lsl #16
 80003e6:	fba3 9502 	umull	r9, r5, r3, r2
 80003ea:	eba4 040e 	sub.w	r4, r4, lr
 80003ee:	42ac      	cmp	r4, r5
 80003f0:	46c8      	mov	r8, r9
 80003f2:	46ae      	mov	lr, r5
 80003f4:	d356      	bcc.n	80004a4 <__udivmoddi4+0x29c>
 80003f6:	d053      	beq.n	80004a0 <__udivmoddi4+0x298>
 80003f8:	b156      	cbz	r6, 8000410 <__udivmoddi4+0x208>
 80003fa:	ebb0 0208 	subs.w	r2, r0, r8
 80003fe:	eb64 040e 	sbc.w	r4, r4, lr
 8000402:	fa04 f707 	lsl.w	r7, r4, r7
 8000406:	40ca      	lsrs	r2, r1
 8000408:	40cc      	lsrs	r4, r1
 800040a:	4317      	orrs	r7, r2
 800040c:	e9c6 7400 	strd	r7, r4, [r6]
 8000410:	4618      	mov	r0, r3
 8000412:	2100      	movs	r1, #0
 8000414:	e8bd 87f0 	ldmia.w	sp!, {r4, r5, r6, r7, r8, r9, sl, pc}
 8000418:	f1c3 0120 	rsb	r1, r3, #32
 800041c:	fa02 fc03 	lsl.w	ip, r2, r3
 8000420:	fa20 f201 	lsr.w	r2, r0, r1
 8000424:	fa25 f101 	lsr.w	r1, r5, r1
 8000428:	409d      	lsls	r5, r3
 800042a:	432a      	orrs	r2, r5
 800042c:	ea4f 471c 	mov.w	r7, ip, lsr #16
 8000430:	fa1f fe8c 	uxth.w	lr, ip
 8000434:	fbb1 f0f7 	udiv	r0, r1, r7
 8000438:	fb07 1510 	mls	r5, r7, r0, r1
 800043c:	0c11      	lsrs	r1, r2, #16
 800043e:	ea41 4105 	orr.w	r1, r1, r5, lsl #16
 8000442:	fb00 f50e 	mul.w	r5, r0, lr
 8000446:	428d      	cmp	r5, r1
 8000448:	fa04 f403 	lsl.w	r4, r4, r3
 800044c:	d908      	bls.n	8000460 <__udivmoddi4+0x258>
 800044e:	eb1c 0101 	adds.w	r1, ip, r1
 8000452:	f100 38ff 	add.w	r8, r0, #4294967295
 8000456:	d22f      	bcs.n	80004b8 <__udivmoddi4+0x2b0>
 8000458:	428d      	cmp	r5, r1
 800045a:	d92d      	bls.n	80004b8 <__udivmoddi4+0x2b0>
 800045c:	3802      	subs	r0, #2
 800045e:	4461      	add	r1, ip
 8000460:	1b49      	subs	r1, r1, r5
 8000462:	b292      	uxth	r2, r2
 8000464:	fbb1 f5f7 	udiv	r5, r1, r7
 8000468:	fb07 1115 	mls	r1, r7, r5, r1
 800046c:	ea42 4201 	orr.w	r2, r2, r1, lsl #16
 8000470:	fb05 f10e 	mul.w	r1, r5, lr
 8000474:	4291      	cmp	r1, r2
 8000476:	d908      	bls.n	800048a <__udivmoddi4+0x282>
 8000478:	eb1c 0202 	adds.w	r2, ip, r2
 800047c:	f105 38ff 	add.w	r8, r5, #4294967295
 8000480:	d216      	bcs.n	80004b0 <__udivmoddi4+0x2a8>
 8000482:	4291      	cmp	r1, r2
 8000484:	d914      	bls.n	80004b0 <__udivmoddi4+0x2a8>
 8000486:	3d02      	subs	r5, #2
 8000488:	4462      	add	r2, ip
 800048a:	1a52      	subs	r2, r2, r1
 800048c:	ea45 4100 	orr.w	r1, r5, r0, lsl #16
 8000490:	e738      	b.n	8000304 <__udivmoddi4+0xfc>
 8000492:	4631      	mov	r1, r6
 8000494:	4630      	mov	r0, r6
 8000496:	e708      	b.n	80002aa <__udivmoddi4+0xa2>
 8000498:	4639      	mov	r1, r7
 800049a:	e6e6      	b.n	800026a <__udivmoddi4+0x62>
 800049c:	4610      	mov	r0, r2
 800049e:	e6fb      	b.n	8000298 <__udivmoddi4+0x90>
 80004a0:	4548      	cmp	r0, r9
 80004a2:	d2a9      	bcs.n	80003f8 <__udivmoddi4+0x1f0>
 80004a4:	ebb9 0802 	subs.w	r8, r9, r2
 80004a8:	eb65 0e0c 	sbc.w	lr, r5, ip
 80004ac:	3b01      	subs	r3, #1
 80004ae:	e7a3      	b.n	80003f8 <__udivmoddi4+0x1f0>
 80004b0:	4645      	mov	r5, r8
 80004b2:	e7ea      	b.n	800048a <__udivmoddi4+0x282>
 80004b4:	462b      	mov	r3, r5
 80004b6:	e794      	b.n	80003e2 <__udivmoddi4+0x1da>
 80004b8:	4640      	mov	r0, r8
 80004ba:	e7d1      	b.n	8000460 <__udivmoddi4+0x258>
 80004bc:	46d0      	mov	r8, sl
 80004be:	e77b      	b.n	80003b8 <__udivmoddi4+0x1b0>
 80004c0:	3d02      	subs	r5, #2
 80004c2:	4462      	add	r2, ip
 80004c4:	e732      	b.n	800032c <__udivmoddi4+0x124>
 80004c6:	4608      	mov	r0, r1
 80004c8:	e70a      	b.n	80002e0 <__udivmoddi4+0xd8>
 80004ca:	4464      	add	r4, ip
 80004cc:	3802      	subs	r0, #2
 80004ce:	e742      	b.n	8000356 <__udivmoddi4+0x14e>

080004d0 <__aeabi_idiv0>:
 80004d0:	4770      	bx	lr
 80004d2:	bf00      	nop

080004d4 <en_InitENG>:
 80004d4:	b480      	push	{r7}
 80004d6:	b085      	sub	sp, #20
 80004d8:	af00      	add	r7, sp, #0
 80004da:	60f8      	str	r0, [r7, #12]
 80004dc:	60b9      	str	r1, [r7, #8]
 80004de:	607a      	str	r2, [r7, #4]
 80004e0:	807b      	strh	r3, [r7, #2]
 80004e2:	68fb      	ldr	r3, [r7, #12]
 80004e4:	2202      	movs	r2, #2
 80004e6:	701a      	strb	r2, [r3, #0]
 80004e8:	68fb      	ldr	r3, [r7, #12]
 80004ea:	687a      	ldr	r2, [r7, #4]
 80004ec:	60da      	str	r2, [r3, #12]
 80004ee:	68fb      	ldr	r3, [r7, #12]
 80004f0:	68ba      	ldr	r2, [r7, #8]
 80004f2:	611a      	str	r2, [r3, #16]
 80004f4:	68fb      	ldr	r3, [r7, #12]
 80004f6:	2200      	movs	r2, #0
 80004f8:	605a      	str	r2, [r3, #4]
 80004fa:	887a      	ldrh	r2, [r7, #2]
 80004fc:	68fb      	ldr	r3, [r7, #12]
 80004fe:	609a      	str	r2, [r3, #8]
 8000500:	bf00      	nop
 8000502:	3714      	adds	r7, #20
 8000504:	46bd      	mov	sp, r7
 8000506:	f85d 7b04 	ldr.w	r7, [sp], #4
 800050a:	4770      	bx	lr

0800050c <en_HandlerENG>:
 800050c:	b580      	push	{r7, lr}
 800050e:	b084      	sub	sp, #16
 8000510:	af00      	add	r7, sp, #0
 8000512:	60f8      	str	r0, [r7, #12]
 8000514:	60b9      	str	r1, [r7, #8]
 8000516:	4613      	mov	r3, r2
 8000518:	71fb      	strb	r3, [r7, #7]
 800051a:	68fb      	ldr	r3, [r7, #12]
 800051c:	68db      	ldr	r3, [r3, #12]
 800051e:	2b00      	cmp	r3, #0
 8000520:	d05d      	beq.n	80005de <en_HandlerENG+0xd2>
 8000522:	68fb      	ldr	r3, [r7, #12]
 8000524:	691b      	ldr	r3, [r3, #16]
 8000526:	2b00      	cmp	r3, #0
 8000528:	d059      	beq.n	80005de <en_HandlerENG+0xd2>
 800052a:	68fb      	ldr	r3, [r7, #12]
 800052c:	685b      	ldr	r3, [r3, #4]
 800052e:	68ba      	ldr	r2, [r7, #8]
 8000530:	429a      	cmp	r2, r3
 8000532:	d056      	beq.n	80005e2 <en_HandlerENG+0xd6>
 8000534:	79fb      	ldrb	r3, [r7, #7]
 8000536:	2b01      	cmp	r3, #1
 8000538:	d107      	bne.n	800054a <en_HandlerENG+0x3e>
 800053a:	68fb      	ldr	r3, [r7, #12]
 800053c:	2203      	movs	r2, #3
 800053e:	701a      	strb	r2, [r3, #0]
 8000540:	68fb      	ldr	r3, [r7, #12]
 8000542:	68db      	ldr	r3, [r3, #12]
 8000544:	2001      	movs	r0, #1
 8000546:	4798      	blx	r3
 8000548:	e04c      	b.n	80005e4 <en_HandlerENG+0xd8>
 800054a:	68fb      	ldr	r3, [r7, #12]
 800054c:	689b      	ldr	r3, [r3, #8]
 800054e:	68ba      	ldr	r2, [r7, #8]
 8000550:	429a      	cmp	r2, r3
 8000552:	dd02      	ble.n	800055a <en_HandlerENG+0x4e>
 8000554:	68fb      	ldr	r3, [r7, #12]
 8000556:	689b      	ldr	r3, [r3, #8]
 8000558:	60bb      	str	r3, [r7, #8]
 800055a:	68fb      	ldr	r3, [r7, #12]
 800055c:	689b      	ldr	r3, [r3, #8]
 800055e:	425b      	negs	r3, r3
 8000560:	68ba      	ldr	r2, [r7, #8]
 8000562:	429a      	cmp	r2, r3
 8000564:	da03      	bge.n	800056e <en_HandlerENG+0x62>
 8000566:	68fb      	ldr	r3, [r7, #12]
 8000568:	689b      	ldr	r3, [r3, #8]
 800056a:	425b      	negs	r3, r3
 800056c:	60bb      	str	r3, [r7, #8]
 800056e:	68fb      	ldr	r3, [r7, #12]
 8000570:	68ba      	ldr	r2, [r7, #8]
 8000572:	605a      	str	r2, [r3, #4]
 8000574:	68bb      	ldr	r3, [r7, #8]
 8000576:	2b00      	cmp	r3, #0
 8000578:	da10      	bge.n	800059c <en_HandlerENG+0x90>
 800057a:	68fb      	ldr	r3, [r7, #12]
 800057c:	2201      	movs	r2, #1
 800057e:	701a      	strb	r2, [r3, #0]
 8000580:	68fb      	ldr	r3, [r7, #12]
 8000582:	68db      	ldr	r3, [r3, #12]
 8000584:	2001      	movs	r0, #1
 8000586:	4798      	blx	r3
 8000588:	68fb      	ldr	r3, [r7, #12]
 800058a:	691b      	ldr	r3, [r3, #16]
 800058c:	68fa      	ldr	r2, [r7, #12]
 800058e:	6852      	ldr	r2, [r2, #4]
 8000590:	b292      	uxth	r2, r2
 8000592:	4252      	negs	r2, r2
 8000594:	b292      	uxth	r2, r2
 8000596:	4610      	mov	r0, r2
 8000598:	4798      	blx	r3
 800059a:	e023      	b.n	80005e4 <en_HandlerENG+0xd8>
 800059c:	68bb      	ldr	r3, [r7, #8]
 800059e:	2b00      	cmp	r3, #0
 80005a0:	dd0e      	ble.n	80005c0 <en_HandlerENG+0xb4>
 80005a2:	68fb      	ldr	r3, [r7, #12]
 80005a4:	2200      	movs	r2, #0
 80005a6:	701a      	strb	r2, [r3, #0]
 80005a8:	68fb      	ldr	r3, [r7, #12]
 80005aa:	68db      	ldr	r3, [r3, #12]
 80005ac:	2000      	movs	r0, #0
 80005ae:	4798      	blx	r3
 80005b0:	68fb      	ldr	r3, [r7, #12]
 80005b2:	691b      	ldr	r3, [r3, #16]
 80005b4:	68fa      	ldr	r2, [r7, #12]
 80005b6:	6852      	ldr	r2, [r2, #4]
 80005b8:	b292      	uxth	r2, r2
 80005ba:	4610      	mov	r0, r2
 80005bc:	4798      	blx	r3
 80005be:	e011      	b.n	80005e4 <en_HandlerENG+0xd8>
 80005c0:	68bb      	ldr	r3, [r7, #8]
 80005c2:	2b00      	cmp	r3, #0
 80005c4:	d10e      	bne.n	80005e4 <en_HandlerENG+0xd8>
 80005c6:	68fb      	ldr	r3, [r7, #12]
 80005c8:	2202      	movs	r2, #2
 80005ca:	701a      	strb	r2, [r3, #0]
 80005cc:	68fb      	ldr	r3, [r7, #12]
 80005ce:	68db      	ldr	r3, [r3, #12]
 80005d0:	2002      	movs	r0, #2
 80005d2:	4798      	blx	r3
 80005d4:	68fb      	ldr	r3, [r7, #12]
 80005d6:	691b      	ldr	r3, [r3, #16]
 80005d8:	2000      	movs	r0, #0
 80005da:	4798      	blx	r3
 80005dc:	e002      	b.n	80005e4 <en_HandlerENG+0xd8>
 80005de:	bf00      	nop
 80005e0:	e000      	b.n	80005e4 <en_HandlerENG+0xd8>
 80005e2:	bf00      	nop
 80005e4:	3710      	adds	r7, #16
 80005e6:	46bd      	mov	sp, r7
 80005e8:	bd80      	pop	{r7, pc}

080005ea <CommInitProtocol>:

/**
 * @brief: Inicializacion, en donde pongo el puntero a funcion y el tamaño del buffer de recepcion y transmision
 */
void CommInitProtocol(_sDato *datosCom, void (*Comm_DecodeData)(struct ComStruct *Comm_DataStruct),
		uint8_t *ringbuffRx, uint8_t *ringbuffTx){
 80005ea:	b480      	push	{r7}
 80005ec:	b085      	sub	sp, #20
 80005ee:	af00      	add	r7, sp, #0
 80005f0:	60f8      	str	r0, [r7, #12]
 80005f2:	60b9      	str	r1, [r7, #8]
 80005f4:	607a      	str	r2, [r7, #4]
 80005f6:	603b      	str	r3, [r7, #0]

		datosCom->Rx.buffercomm = ringbuffRx;
 80005f8:	68fb      	ldr	r3, [r7, #12]
 80005fa:	687a      	ldr	r2, [r7, #4]
 80005fc:	611a      	str	r2, [r3, #16]
	    datosCom->Tx.buffercomm = ringbuffTx;
 80005fe:	68fb      	ldr	r3, [r7, #12]
 8000600:	683a      	ldr	r2, [r7, #0]
 8000602:	609a      	str	r2, [r3, #8]
	    datosCom->CommDecodeData =  Comm_DecodeData;
 8000604:	68fb      	ldr	r3, [r7, #12]
 8000606:	68ba      	ldr	r2, [r7, #8]
 8000608:	619a      	str	r2, [r3, #24]
}
 800060a:	bf00      	nop
 800060c:	3714      	adds	r7, #20
 800060e:	46bd      	mov	sp, r7
 8000610:	f85d 7b04 	ldr.w	r7, [sp], #4
 8000614:	4770      	bx	lr
	...

08000618 <CommDecodeHeader>:
 * @brief: 	Máquina de estados que decodifica la informacion y
 * 			busca: 'U', 'N', 'E', 'R', nBytes, ':', Payload, Checksum.
 *
 *  @param: _sDato *datosCom, estructura donde tengo toda la informacion
 */
void CommDecodeHeader(_sDato *datosCom){
 8000618:	b580      	push	{r7, lr}
 800061a:	b084      	sub	sp, #16
 800061c:	af00      	add	r7, sp, #0
 800061e:	6078      	str	r0, [r7, #4]

    static uint8_t nBytes=0;	/*!< Variable estática para recordar cuántos bytes de payload quedan por procesar */

    uint8_t indexWriteRxCopy = datosCom->Rx.indexWrite; /*!< Guardo una copia del índice de escritura para no interferir con interrupciones */
 8000620:	687b      	ldr	r3, [r7, #4]
 8000622:	7b1b      	ldrb	r3, [r3, #12]
 8000624:	73fb      	strb	r3, [r7, #15]

    while (datosCom->Rx.indexRead!=indexWriteRxCopy)
 8000626:	e0e4      	b.n	80007f2 <CommDecodeHeader+0x1da>
    {
        switch (estadoProtocolo) {	/*!< Mientras haya nuevos datos no leídos en el buffer de recepción... */
 8000628:	4b77      	ldr	r3, [pc, #476]	; (8000808 <CommDecodeHeader+0x1f0>)
 800062a:	781b      	ldrb	r3, [r3, #0]
 800062c:	2b06      	cmp	r3, #6
 800062e:	f200 80dc 	bhi.w	80007ea <CommDecodeHeader+0x1d2>
 8000632:	a201      	add	r2, pc, #4	; (adr r2, 8000638 <CommDecodeHeader+0x20>)
 8000634:	f852 f023 	ldr.w	pc, [r2, r3, lsl #2]
 8000638:	08000655 	.word	0x08000655
 800063c:	0800067d 	.word	0x0800067d
 8000640:	080006b1 	.word	0x080006b1
 8000644:	080006e5 	.word	0x080006e5
 8000648:	08000719 	.word	0x08000719
 800064c:	08000741 	.word	0x08000741
 8000650:	08000783 	.word	0x08000783
            case START:
                if (datosCom->Rx.buffercomm[datosCom->Rx.indexRead++]=='U'){
 8000654:	687b      	ldr	r3, [r7, #4]
 8000656:	691a      	ldr	r2, [r3, #16]
 8000658:	687b      	ldr	r3, [r7, #4]
 800065a:	7b5b      	ldrb	r3, [r3, #13]
 800065c:	1c59      	adds	r1, r3, #1
 800065e:	b2c8      	uxtb	r0, r1
 8000660:	6879      	ldr	r1, [r7, #4]
 8000662:	7348      	strb	r0, [r1, #13]
 8000664:	4413      	add	r3, r2
 8000666:	781b      	ldrb	r3, [r3, #0]
 8000668:	2b55      	cmp	r3, #85	; 0x55
 800066a:	f040 80c2 	bne.w	80007f2 <CommDecodeHeader+0x1da>
                    estadoProtocolo=HEADER_1;
 800066e:	4b66      	ldr	r3, [pc, #408]	; (8000808 <CommDecodeHeader+0x1f0>)
 8000670:	2201      	movs	r2, #1
 8000672:	701a      	strb	r2, [r3, #0]
                    datosCom->cheksumRx=0;
 8000674:	687b      	ldr	r3, [r7, #4]
 8000676:	2200      	movs	r2, #0
 8000678:	709a      	strb	r2, [r3, #2]
                }
                break;
 800067a:	e0ba      	b.n	80007f2 <CommDecodeHeader+0x1da>
            case HEADER_1:
                if (datosCom->Rx.buffercomm[datosCom->Rx.indexRead++]=='N')
 800067c:	687b      	ldr	r3, [r7, #4]
 800067e:	691a      	ldr	r2, [r3, #16]
 8000680:	687b      	ldr	r3, [r7, #4]
 8000682:	7b5b      	ldrb	r3, [r3, #13]
 8000684:	1c59      	adds	r1, r3, #1
 8000686:	b2c8      	uxtb	r0, r1
 8000688:	6879      	ldr	r1, [r7, #4]
 800068a:	7348      	strb	r0, [r1, #13]
 800068c:	4413      	add	r3, r2
 800068e:	781b      	ldrb	r3, [r3, #0]
 8000690:	2b4e      	cmp	r3, #78	; 0x4e
 8000692:	d103      	bne.n	800069c <CommDecodeHeader+0x84>
                   estadoProtocolo=HEADER_2;
 8000694:	4b5c      	ldr	r3, [pc, #368]	; (8000808 <CommDecodeHeader+0x1f0>)
 8000696:	2202      	movs	r2, #2
 8000698:	701a      	strb	r2, [r3, #0]
 800069a:	e0aa      	b.n	80007f2 <CommDecodeHeader+0x1da>
                else{
                	datosCom->Rx.indexRead--;
 800069c:	687b      	ldr	r3, [r7, #4]
 800069e:	7b5b      	ldrb	r3, [r3, #13]
 80006a0:	3b01      	subs	r3, #1
 80006a2:	b2da      	uxtb	r2, r3
 80006a4:	687b      	ldr	r3, [r7, #4]
 80006a6:	735a      	strb	r2, [r3, #13]
                    estadoProtocolo=START;
 80006a8:	4b57      	ldr	r3, [pc, #348]	; (8000808 <CommDecodeHeader+0x1f0>)
 80006aa:	2200      	movs	r2, #0
 80006ac:	701a      	strb	r2, [r3, #0]
                }
                break;
 80006ae:	e0a0      	b.n	80007f2 <CommDecodeHeader+0x1da>
            case HEADER_2:
                if (datosCom->Rx.buffercomm[datosCom->Rx.indexRead++]=='E')
 80006b0:	687b      	ldr	r3, [r7, #4]
 80006b2:	691a      	ldr	r2, [r3, #16]
 80006b4:	687b      	ldr	r3, [r7, #4]
 80006b6:	7b5b      	ldrb	r3, [r3, #13]
 80006b8:	1c59      	adds	r1, r3, #1
 80006ba:	b2c8      	uxtb	r0, r1
 80006bc:	6879      	ldr	r1, [r7, #4]
 80006be:	7348      	strb	r0, [r1, #13]
 80006c0:	4413      	add	r3, r2
 80006c2:	781b      	ldrb	r3, [r3, #0]
 80006c4:	2b45      	cmp	r3, #69	; 0x45
 80006c6:	d103      	bne.n	80006d0 <CommDecodeHeader+0xb8>
                    estadoProtocolo=HEADER_3;
 80006c8:	4b4f      	ldr	r3, [pc, #316]	; (8000808 <CommDecodeHeader+0x1f0>)
 80006ca:	2203      	movs	r2, #3
 80006cc:	701a      	strb	r2, [r3, #0]
 80006ce:	e090      	b.n	80007f2 <CommDecodeHeader+0x1da>
                else{
                	datosCom->Rx.indexRead--;
 80006d0:	687b      	ldr	r3, [r7, #4]
 80006d2:	7b5b      	ldrb	r3, [r3, #13]
 80006d4:	3b01      	subs	r3, #1
 80006d6:	b2da      	uxtb	r2, r3
 80006d8:	687b      	ldr	r3, [r7, #4]
 80006da:	735a      	strb	r2, [r3, #13]
                   estadoProtocolo=START;
 80006dc:	4b4a      	ldr	r3, [pc, #296]	; (8000808 <CommDecodeHeader+0x1f0>)
 80006de:	2200      	movs	r2, #0
 80006e0:	701a      	strb	r2, [r3, #0]
                }
                break;
 80006e2:	e086      	b.n	80007f2 <CommDecodeHeader+0x1da>
			case HEADER_3:
				if (datosCom->Rx.buffercomm[datosCom->Rx.indexRead++]=='R')
 80006e4:	687b      	ldr	r3, [r7, #4]
 80006e6:	691a      	ldr	r2, [r3, #16]
 80006e8:	687b      	ldr	r3, [r7, #4]
 80006ea:	7b5b      	ldrb	r3, [r3, #13]
 80006ec:	1c59      	adds	r1, r3, #1
 80006ee:	b2c8      	uxtb	r0, r1
 80006f0:	6879      	ldr	r1, [r7, #4]
 80006f2:	7348      	strb	r0, [r1, #13]
 80006f4:	4413      	add	r3, r2
 80006f6:	781b      	ldrb	r3, [r3, #0]
 80006f8:	2b52      	cmp	r3, #82	; 0x52
 80006fa:	d103      	bne.n	8000704 <CommDecodeHeader+0xec>
					estadoProtocolo=NBYTES;
 80006fc:	4b42      	ldr	r3, [pc, #264]	; (8000808 <CommDecodeHeader+0x1f0>)
 80006fe:	2204      	movs	r2, #4
 8000700:	701a      	strb	r2, [r3, #0]
 8000702:	e076      	b.n	80007f2 <CommDecodeHeader+0x1da>
				else{
					datosCom->Rx.indexRead--;
 8000704:	687b      	ldr	r3, [r7, #4]
 8000706:	7b5b      	ldrb	r3, [r3, #13]
 8000708:	3b01      	subs	r3, #1
 800070a:	b2da      	uxtb	r2, r3
 800070c:	687b      	ldr	r3, [r7, #4]
 800070e:	735a      	strb	r2, [r3, #13]
				    estadoProtocolo=START;
 8000710:	4b3d      	ldr	r3, [pc, #244]	; (8000808 <CommDecodeHeader+0x1f0>)
 8000712:	2200      	movs	r2, #0
 8000714:	701a      	strb	r2, [r3, #0]
				}
            break;
 8000716:	e06c      	b.n	80007f2 <CommDecodeHeader+0x1da>
            case NBYTES: /*!< Leer byte de cantidad de datos (nBytes) y avanzar */
            	datosCom->indexStart=datosCom->Rx.indexRead;
 8000718:	687b      	ldr	r3, [r7, #4]
 800071a:	7b5a      	ldrb	r2, [r3, #13]
 800071c:	687b      	ldr	r3, [r7, #4]
 800071e:	705a      	strb	r2, [r3, #1]
                nBytes=datosCom->Rx.buffercomm[datosCom->Rx.indexRead++];
 8000720:	687b      	ldr	r3, [r7, #4]
 8000722:	691a      	ldr	r2, [r3, #16]
 8000724:	687b      	ldr	r3, [r7, #4]
 8000726:	7b5b      	ldrb	r3, [r3, #13]
 8000728:	1c59      	adds	r1, r3, #1
 800072a:	b2c8      	uxtb	r0, r1
 800072c:	6879      	ldr	r1, [r7, #4]
 800072e:	7348      	strb	r0, [r1, #13]
 8000730:	4413      	add	r3, r2
 8000732:	781a      	ldrb	r2, [r3, #0]
 8000734:	4b35      	ldr	r3, [pc, #212]	; (800080c <CommDecodeHeader+0x1f4>)
 8000736:	701a      	strb	r2, [r3, #0]
                estadoProtocolo=TOKEN;
 8000738:	4b33      	ldr	r3, [pc, #204]	; (8000808 <CommDecodeHeader+0x1f0>)
 800073a:	2205      	movs	r2, #5
 800073c:	701a      	strb	r2, [r3, #0]
                break;
 800073e:	e058      	b.n	80007f2 <CommDecodeHeader+0x1da>
            case TOKEN:
                if (datosCom->Rx.buffercomm[datosCom->Rx.indexRead++]==':'){
 8000740:	687b      	ldr	r3, [r7, #4]
 8000742:	691a      	ldr	r2, [r3, #16]
 8000744:	687b      	ldr	r3, [r7, #4]
 8000746:	7b5b      	ldrb	r3, [r3, #13]
 8000748:	1c59      	adds	r1, r3, #1
 800074a:	b2c8      	uxtb	r0, r1
 800074c:	6879      	ldr	r1, [r7, #4]
 800074e:	7348      	strb	r0, [r1, #13]
 8000750:	4413      	add	r3, r2
 8000752:	781b      	ldrb	r3, [r3, #0]
 8000754:	2b3a      	cmp	r3, #58	; 0x3a
 8000756:	d10a      	bne.n	800076e <CommDecodeHeader+0x156>

                   estadoProtocolo=PAYLOAD;
 8000758:	4b2b      	ldr	r3, [pc, #172]	; (8000808 <CommDecodeHeader+0x1f0>)
 800075a:	2206      	movs	r2, #6
 800075c:	701a      	strb	r2, [r3, #0]
                   datosCom->cheksumRx ='U'^'N'^'E'^'R'^ nBytes^':';
 800075e:	4b2b      	ldr	r3, [pc, #172]	; (800080c <CommDecodeHeader+0x1f4>)
 8000760:	781b      	ldrb	r3, [r3, #0]
 8000762:	f083 0336 	eor.w	r3, r3, #54	; 0x36
 8000766:	b2da      	uxtb	r2, r3
 8000768:	687b      	ldr	r3, [r7, #4]
 800076a:	709a      	strb	r2, [r3, #2]
 800076c:	e041      	b.n	80007f2 <CommDecodeHeader+0x1da>
                }
                else{
                	datosCom->Rx.indexRead--;
 800076e:	687b      	ldr	r3, [r7, #4]
 8000770:	7b5b      	ldrb	r3, [r3, #13]
 8000772:	3b01      	subs	r3, #1
 8000774:	b2da      	uxtb	r2, r3
 8000776:	687b      	ldr	r3, [r7, #4]
 8000778:	735a      	strb	r2, [r3, #13]
                    estadoProtocolo=START;
 800077a:	4b23      	ldr	r3, [pc, #140]	; (8000808 <CommDecodeHeader+0x1f0>)
 800077c:	2200      	movs	r2, #0
 800077e:	701a      	strb	r2, [r3, #0]
                }
                break;
 8000780:	e037      	b.n	80007f2 <CommDecodeHeader+0x1da>
            case PAYLOAD:

                if (nBytes>1){
 8000782:	4b22      	ldr	r3, [pc, #136]	; (800080c <CommDecodeHeader+0x1f4>)
 8000784:	781b      	ldrb	r3, [r3, #0]
 8000786:	2b01      	cmp	r3, #1
 8000788:	d90f      	bls.n	80007aa <CommDecodeHeader+0x192>
                	datosCom->cheksumRx ^= datosCom->Rx.buffercomm[datosCom->Rx.indexRead++];
 800078a:	687b      	ldr	r3, [r7, #4]
 800078c:	691a      	ldr	r2, [r3, #16]
 800078e:	687b      	ldr	r3, [r7, #4]
 8000790:	7b5b      	ldrb	r3, [r3, #13]
 8000792:	1c59      	adds	r1, r3, #1
 8000794:	b2c8      	uxtb	r0, r1
 8000796:	6879      	ldr	r1, [r7, #4]
 8000798:	7348      	strb	r0, [r1, #13]
 800079a:	4413      	add	r3, r2
 800079c:	781a      	ldrb	r2, [r3, #0]
 800079e:	687b      	ldr	r3, [r7, #4]
 80007a0:	789b      	ldrb	r3, [r3, #2]
 80007a2:	4053      	eors	r3, r2
 80007a4:	b2da      	uxtb	r2, r3
 80007a6:	687b      	ldr	r3, [r7, #4]
 80007a8:	709a      	strb	r2, [r3, #2]
                }
                nBytes--;
 80007aa:	4b18      	ldr	r3, [pc, #96]	; (800080c <CommDecodeHeader+0x1f4>)
 80007ac:	781b      	ldrb	r3, [r3, #0]
 80007ae:	3b01      	subs	r3, #1
 80007b0:	b2da      	uxtb	r2, r3
 80007b2:	4b16      	ldr	r3, [pc, #88]	; (800080c <CommDecodeHeader+0x1f4>)
 80007b4:	701a      	strb	r2, [r3, #0]
                if(nBytes<=0){ /*!< Cuando ya se leyeron todos los datos, compara el checksum. Si es correcto, llama a decodeData() para procesar el mensaje. */
 80007b6:	4b15      	ldr	r3, [pc, #84]	; (800080c <CommDecodeHeader+0x1f4>)
 80007b8:	781b      	ldrb	r3, [r3, #0]
 80007ba:	2b00      	cmp	r3, #0
 80007bc:	d119      	bne.n	80007f2 <CommDecodeHeader+0x1da>
                    estadoProtocolo=START;
 80007be:	4b12      	ldr	r3, [pc, #72]	; (8000808 <CommDecodeHeader+0x1f0>)
 80007c0:	2200      	movs	r2, #0
 80007c2:	701a      	strb	r2, [r3, #0]
                    if(datosCom->cheksumRx == datosCom->Rx.buffercomm[datosCom->Rx.indexRead]){
 80007c4:	687b      	ldr	r3, [r7, #4]
 80007c6:	789a      	ldrb	r2, [r3, #2]
 80007c8:	687b      	ldr	r3, [r7, #4]
 80007ca:	691b      	ldr	r3, [r3, #16]
 80007cc:	6879      	ldr	r1, [r7, #4]
 80007ce:	7b49      	ldrb	r1, [r1, #13]
 80007d0:	440b      	add	r3, r1
 80007d2:	781b      	ldrb	r3, [r3, #0]
 80007d4:	429a      	cmp	r2, r3
 80007d6:	d10c      	bne.n	80007f2 <CommDecodeHeader+0x1da>
                    	if(datosCom->CommDecodeData != NULL)
 80007d8:	687b      	ldr	r3, [r7, #4]
 80007da:	699b      	ldr	r3, [r3, #24]
 80007dc:	2b00      	cmp	r3, #0
 80007de:	d008      	beq.n	80007f2 <CommDecodeHeader+0x1da>
                    		datosCom->CommDecodeData(datosCom);
 80007e0:	687b      	ldr	r3, [r7, #4]
 80007e2:	699b      	ldr	r3, [r3, #24]
 80007e4:	6878      	ldr	r0, [r7, #4]
 80007e6:	4798      	blx	r3
                    }
                }

                break;
 80007e8:	e003      	b.n	80007f2 <CommDecodeHeader+0x1da>
            default:
                estadoProtocolo=START;
 80007ea:	4b07      	ldr	r3, [pc, #28]	; (8000808 <CommDecodeHeader+0x1f0>)
 80007ec:	2200      	movs	r2, #0
 80007ee:	701a      	strb	r2, [r3, #0]
                break;
 80007f0:	bf00      	nop
    while (datosCom->Rx.indexRead!=indexWriteRxCopy)
 80007f2:	687b      	ldr	r3, [r7, #4]
 80007f4:	7b5b      	ldrb	r3, [r3, #13]
 80007f6:	7bfa      	ldrb	r2, [r7, #15]
 80007f8:	429a      	cmp	r2, r3
 80007fa:	f47f af15 	bne.w	8000628 <CommDecodeHeader+0x10>
        }
    }
}
 80007fe:	bf00      	nop
 8000800:	bf00      	nop
 8000802:	3710      	adds	r7, #16
 8000804:	46bd      	mov	sp, r7
 8000806:	bd80      	pop	{r7, pc}
 8000808:	20000120 	.word	0x20000120
 800080c:	20000121 	.word	0x20000121

08000810 <CommSendInfo>:


/**
 * @Brief: Calculo y envio el checksum
 */
void CommSendInfo(_sDato *datosCom ,uint8_t bufferAux[], uint8_t bytes){
 8000810:	b490      	push	{r4, r7}
 8000812:	b08a      	sub	sp, #40	; 0x28
 8000814:	af00      	add	r7, sp, #0
 8000816:	60f8      	str	r0, [r7, #12]
 8000818:	60b9      	str	r1, [r7, #8]
 800081a:	4613      	mov	r3, r2
 800081c:	71fb      	strb	r3, [r7, #7]

    uint8_t bufAux[20], indiceAux=0,cks=0,i=0;
 800081e:	2300      	movs	r3, #0
 8000820:	f887 3027 	strb.w	r3, [r7, #39]	; 0x27
 8000824:	2300      	movs	r3, #0
 8000826:	f887 3026 	strb.w	r3, [r7, #38]	; 0x26
 800082a:	2300      	movs	r3, #0
 800082c:	f887 3025 	strb.w	r3, [r7, #37]	; 0x25

    bufAux[indiceAux++]='U';
 8000830:	f897 3027 	ldrb.w	r3, [r7, #39]	; 0x27
 8000834:	1c5a      	adds	r2, r3, #1
 8000836:	f887 2027 	strb.w	r2, [r7, #39]	; 0x27
 800083a:	3328      	adds	r3, #40	; 0x28
 800083c:	443b      	add	r3, r7
 800083e:	2255      	movs	r2, #85	; 0x55
 8000840:	f803 2c18 	strb.w	r2, [r3, #-24]
    bufAux[indiceAux++]='N';
 8000844:	f897 3027 	ldrb.w	r3, [r7, #39]	; 0x27
 8000848:	1c5a      	adds	r2, r3, #1
 800084a:	f887 2027 	strb.w	r2, [r7, #39]	; 0x27
 800084e:	3328      	adds	r3, #40	; 0x28
 8000850:	443b      	add	r3, r7
 8000852:	224e      	movs	r2, #78	; 0x4e
 8000854:	f803 2c18 	strb.w	r2, [r3, #-24]
    bufAux[indiceAux++]='E';
 8000858:	f897 3027 	ldrb.w	r3, [r7, #39]	; 0x27
 800085c:	1c5a      	adds	r2, r3, #1
 800085e:	f887 2027 	strb.w	r2, [r7, #39]	; 0x27
 8000862:	3328      	adds	r3, #40	; 0x28
 8000864:	443b      	add	r3, r7
 8000866:	2245      	movs	r2, #69	; 0x45
 8000868:	f803 2c18 	strb.w	r2, [r3, #-24]
    bufAux[indiceAux++]='R';
 800086c:	f897 3027 	ldrb.w	r3, [r7, #39]	; 0x27
 8000870:	1c5a      	adds	r2, r3, #1
 8000872:	f887 2027 	strb.w	r2, [r7, #39]	; 0x27
 8000876:	3328      	adds	r3, #40	; 0x28
 8000878:	443b      	add	r3, r7
 800087a:	2252      	movs	r2, #82	; 0x52
 800087c:	f803 2c18 	strb.w	r2, [r3, #-24]

    bufAux[indiceAux++]=bytes;
 8000880:	f897 3027 	ldrb.w	r3, [r7, #39]	; 0x27
 8000884:	1c5a      	adds	r2, r3, #1
 8000886:	f887 2027 	strb.w	r2, [r7, #39]	; 0x27
 800088a:	3328      	adds	r3, #40	; 0x28
 800088c:	443b      	add	r3, r7
 800088e:	79fa      	ldrb	r2, [r7, #7]
 8000890:	f803 2c18 	strb.w	r2, [r3, #-24]
    bufAux[indiceAux++]=':';
 8000894:	f897 3027 	ldrb.w	r3, [r7, #39]	; 0x27
 8000898:	1c5a      	adds	r2, r3, #1
 800089a:	f887 2027 	strb.w	r2, [r7, #39]	; 0x27
 800089e:	3328      	adds	r3, #40	; 0x28
 80008a0:	443b      	add	r3, r7
 80008a2:	223a      	movs	r2, #58	; 0x3a
 80008a4:	f803 2c18 	strb.w	r2, [r3, #-24]

    for(i=0; i<bytes-1; i++)
 80008a8:	2300      	movs	r3, #0
 80008aa:	f887 3025 	strb.w	r3, [r7, #37]	; 0x25
 80008ae:	e012      	b.n	80008d6 <CommSendInfo+0xc6>
        bufAux[indiceAux++] = bufferAux[i];
 80008b0:	f897 3025 	ldrb.w	r3, [r7, #37]	; 0x25
 80008b4:	68ba      	ldr	r2, [r7, #8]
 80008b6:	441a      	add	r2, r3
 80008b8:	f897 3027 	ldrb.w	r3, [r7, #39]	; 0x27
 80008bc:	1c59      	adds	r1, r3, #1
 80008be:	f887 1027 	strb.w	r1, [r7, #39]	; 0x27
 80008c2:	7812      	ldrb	r2, [r2, #0]
 80008c4:	3328      	adds	r3, #40	; 0x28
 80008c6:	443b      	add	r3, r7
 80008c8:	f803 2c18 	strb.w	r2, [r3, #-24]
    for(i=0; i<bytes-1; i++)
 80008cc:	f897 3025 	ldrb.w	r3, [r7, #37]	; 0x25
 80008d0:	3301      	adds	r3, #1
 80008d2:	f887 3025 	strb.w	r3, [r7, #37]	; 0x25
 80008d6:	f897 2025 	ldrb.w	r2, [r7, #37]	; 0x25
 80008da:	79fb      	ldrb	r3, [r7, #7]
 80008dc:	3b01      	subs	r3, #1
 80008de:	429a      	cmp	r2, r3
 80008e0:	dbe6      	blt.n	80008b0 <CommSendInfo+0xa0>

    cks	= 0;
 80008e2:	2300      	movs	r3, #0
 80008e4:	f887 3026 	strb.w	r3, [r7, #38]	; 0x26

    for(i=0 ;i<indiceAux;i++){    /*!< Cargar en Tx.buffercomm con checksum: */
 80008e8:	2300      	movs	r3, #0
 80008ea:	f887 3025 	strb.w	r3, [r7, #37]	; 0x25
 80008ee:	e01f      	b.n	8000930 <CommSendInfo+0x120>
        cks^= bufAux[i];
 80008f0:	f897 3025 	ldrb.w	r3, [r7, #37]	; 0x25
 80008f4:	3328      	adds	r3, #40	; 0x28
 80008f6:	443b      	add	r3, r7
 80008f8:	f813 2c18 	ldrb.w	r2, [r3, #-24]
 80008fc:	f897 3026 	ldrb.w	r3, [r7, #38]	; 0x26
 8000900:	4053      	eors	r3, r2
 8000902:	f887 3026 	strb.w	r3, [r7, #38]	; 0x26
        datosCom->Tx.buffercomm[datosCom->Tx.indexWrite++]=bufAux[i];
 8000906:	f897 2025 	ldrb.w	r2, [r7, #37]	; 0x25
 800090a:	68fb      	ldr	r3, [r7, #12]
 800090c:	6899      	ldr	r1, [r3, #8]
 800090e:	68fb      	ldr	r3, [r7, #12]
 8000910:	791b      	ldrb	r3, [r3, #4]
 8000912:	1c58      	adds	r0, r3, #1
 8000914:	b2c4      	uxtb	r4, r0
 8000916:	68f8      	ldr	r0, [r7, #12]
 8000918:	7104      	strb	r4, [r0, #4]
 800091a:	440b      	add	r3, r1
 800091c:	3228      	adds	r2, #40	; 0x28
 800091e:	443a      	add	r2, r7
 8000920:	f812 2c18 	ldrb.w	r2, [r2, #-24]
 8000924:	701a      	strb	r2, [r3, #0]
    for(i=0 ;i<indiceAux;i++){    /*!< Cargar en Tx.buffercomm con checksum: */
 8000926:	f897 3025 	ldrb.w	r3, [r7, #37]	; 0x25
 800092a:	3301      	adds	r3, #1
 800092c:	f887 3025 	strb.w	r3, [r7, #37]	; 0x25
 8000930:	f897 2025 	ldrb.w	r2, [r7, #37]	; 0x25
 8000934:	f897 3027 	ldrb.w	r3, [r7, #39]	; 0x27
 8000938:	429a      	cmp	r2, r3
 800093a:	d3d9      	bcc.n	80008f0 <CommSendInfo+0xe0>
    }

     datosCom->Tx.buffercomm[datosCom->Tx.indexWrite++]=cks;  /*!< Agregar el checksum al final */
 800093c:	68fb      	ldr	r3, [r7, #12]
 800093e:	689a      	ldr	r2, [r3, #8]
 8000940:	68fb      	ldr	r3, [r7, #12]
 8000942:	791b      	ldrb	r3, [r3, #4]
 8000944:	1c59      	adds	r1, r3, #1
 8000946:	b2c8      	uxtb	r0, r1
 8000948:	68f9      	ldr	r1, [r7, #12]
 800094a:	7108      	strb	r0, [r1, #4]
 800094c:	4413      	add	r3, r2
 800094e:	f897 2026 	ldrb.w	r2, [r7, #38]	; 0x26
 8000952:	701a      	strb	r2, [r3, #0]
     datosCom->bytesTosend=indiceAux; /*!< Cantidad total de bytes a transmitir (incluyendo checksum)*/
 8000954:	68fb      	ldr	r3, [r7, #12]
 8000956:	f897 2027 	ldrb.w	r2, [r7, #39]	; 0x27
 800095a:	751a      	strb	r2, [r3, #20]


}
 800095c:	bf00      	nop
 800095e:	3728      	adds	r7, #40	; 0x28
 8000960:	46bd      	mov	sp, r7
 8000962:	bc90      	pop	{r4, r7}
 8000964:	4770      	bx	lr
	...

08000968 <HAL_TIM_PeriodElapsedCallback>:

/* USER CODE END PFP */

/* Private user code ---------------------------------------------------------*/
/* USER CODE BEGIN 0 */
void HAL_TIM_PeriodElapsedCallback(TIM_HandleTypeDef *htim){
 8000968:	b480      	push	{r7}
 800096a:	b083      	sub	sp, #12
 800096c:	af00      	add	r7, sp, #0
 800096e:	6078      	str	r0, [r7, #4]
	if(htim -> Instance == TIM1){
 8000970:	687b      	ldr	r3, [r7, #4]
 8000972:	681b      	ldr	r3, [r3, #0]
 8000974:	4a06      	ldr	r2, [pc, #24]	; (8000990 <HAL_TIM_PeriodElapsedCallback+0x28>)
 8000976:	4293      	cmp	r3, r2
 8000978:	d104      	bne.n	8000984 <HAL_TIM_PeriodElapsedCallback+0x1c>
		IS250US = TRUE;
 800097a:	4a06      	ldr	r2, [pc, #24]	; (8000994 <HAL_TIM_PeriodElapsedCallback+0x2c>)
 800097c:	7813      	ldrb	r3, [r2, #0]
 800097e:	f043 0340 	orr.w	r3, r3, #64	; 0x40
 8000982:	7013      	strb	r3, [r2, #0]
	}

}
 8000984:	bf00      	nop
 8000986:	370c      	adds	r7, #12
 8000988:	46bd      	mov	sp, r7
 800098a:	f85d 7b04 	ldr.w	r7, [sp], #4
 800098e:	4770      	bx	lr
 8000990:	40010000 	.word	0x40010000
 8000994:	20000370 	.word	0x20000370

08000998 <HAL_ADC_ConvCpltCallback>:

void HAL_ADC_ConvCpltCallback(ADC_HandleTypeDef* hadc){
 8000998:	b480      	push	{r7}
 800099a:	b083      	sub	sp, #12
 800099c:	af00      	add	r7, sp, #0
 800099e:	6078      	str	r0, [r7, #4]
		}
//		sprintf(usbMsg,
//		"PA0:%4u \r\n",
//		sensorIR.bufferADCvalue[0]);
//		CDC_Transmit_FS((uint8_t*)usbMsg, strlen(usbMsg));
}
 80009a0:	bf00      	nop
 80009a2:	370c      	adds	r7, #12
 80009a4:	46bd      	mov	sp, r7
 80009a6:	f85d 7b04 	ldr.w	r7, [sp], #4
 80009aa:	4770      	bx	lr

080009ac <HAL_I2C_MemRxCpltCallback>:

void HAL_I2C_MemRxCpltCallback(I2C_HandleTypeDef *hi2c){
 80009ac:	b480      	push	{r7}
 80009ae:	b083      	sub	sp, #12
 80009b0:	af00      	add	r7, sp, #0
 80009b2:	6078      	str	r0, [r7, #4]

	DatosMPU.x.accel = (DatosMPU.bufData[0] << 8) | DatosMPU.bufData[1];
 80009b4:	4b29      	ldr	r3, [pc, #164]	; (8000a5c <HAL_I2C_MemRxCpltCallback+0xb0>)
 80009b6:	f893 3030 	ldrb.w	r3, [r3, #48]	; 0x30
 80009ba:	021b      	lsls	r3, r3, #8
 80009bc:	b21a      	sxth	r2, r3
 80009be:	4b27      	ldr	r3, [pc, #156]	; (8000a5c <HAL_I2C_MemRxCpltCallback+0xb0>)
 80009c0:	f893 3031 	ldrb.w	r3, [r3, #49]	; 0x31
 80009c4:	b21b      	sxth	r3, r3
 80009c6:	4313      	orrs	r3, r2
 80009c8:	b21a      	sxth	r2, r3
 80009ca:	4b24      	ldr	r3, [pc, #144]	; (8000a5c <HAL_I2C_MemRxCpltCallback+0xb0>)
 80009cc:	801a      	strh	r2, [r3, #0]
	DatosMPU.y.accel = (DatosMPU.bufData[2] << 8) | DatosMPU.bufData[3];
 80009ce:	4b23      	ldr	r3, [pc, #140]	; (8000a5c <HAL_I2C_MemRxCpltCallback+0xb0>)
 80009d0:	f893 3032 	ldrb.w	r3, [r3, #50]	; 0x32
 80009d4:	021b      	lsls	r3, r3, #8
 80009d6:	b21a      	sxth	r2, r3
 80009d8:	4b20      	ldr	r3, [pc, #128]	; (8000a5c <HAL_I2C_MemRxCpltCallback+0xb0>)
 80009da:	f893 3033 	ldrb.w	r3, [r3, #51]	; 0x33
 80009de:	b21b      	sxth	r3, r3
 80009e0:	4313      	orrs	r3, r2
 80009e2:	b21a      	sxth	r2, r3
 80009e4:	4b1d      	ldr	r3, [pc, #116]	; (8000a5c <HAL_I2C_MemRxCpltCallback+0xb0>)
 80009e6:	821a      	strh	r2, [r3, #16]
	DatosMPU.z.accel = (DatosMPU.bufData[4] << 8) | DatosMPU.bufData[5];
 80009e8:	4b1c      	ldr	r3, [pc, #112]	; (8000a5c <HAL_I2C_MemRxCpltCallback+0xb0>)
 80009ea:	f893 3034 	ldrb.w	r3, [r3, #52]	; 0x34
 80009ee:	021b      	lsls	r3, r3, #8
 80009f0:	b21a      	sxth	r2, r3
 80009f2:	4b1a      	ldr	r3, [pc, #104]	; (8000a5c <HAL_I2C_MemRxCpltCallback+0xb0>)
 80009f4:	f893 3035 	ldrb.w	r3, [r3, #53]	; 0x35
 80009f8:	b21b      	sxth	r3, r3
 80009fa:	4313      	orrs	r3, r2
 80009fc:	b21a      	sxth	r2, r3
 80009fe:	4b17      	ldr	r3, [pc, #92]	; (8000a5c <HAL_I2C_MemRxCpltCallback+0xb0>)
 8000a00:	841a      	strh	r2, [r3, #32]

//	DatosMPU.temperature = (bufData[6] << 8) | bufData[7];

	DatosMPU.x.gyro = (DatosMPU.bufData[8] << 8) | DatosMPU.bufData[9];
 8000a02:	4b16      	ldr	r3, [pc, #88]	; (8000a5c <HAL_I2C_MemRxCpltCallback+0xb0>)
 8000a04:	f893 3038 	ldrb.w	r3, [r3, #56]	; 0x38
 8000a08:	021b      	lsls	r3, r3, #8
 8000a0a:	b21a      	sxth	r2, r3
 8000a0c:	4b13      	ldr	r3, [pc, #76]	; (8000a5c <HAL_I2C_MemRxCpltCallback+0xb0>)
 8000a0e:	f893 3039 	ldrb.w	r3, [r3, #57]	; 0x39
 8000a12:	b21b      	sxth	r3, r3
 8000a14:	4313      	orrs	r3, r2
 8000a16:	b21a      	sxth	r2, r3
 8000a18:	4b10      	ldr	r3, [pc, #64]	; (8000a5c <HAL_I2C_MemRxCpltCallback+0xb0>)
 8000a1a:	805a      	strh	r2, [r3, #2]
	DatosMPU.y.gyro = (DatosMPU.bufData[10] << 8) | DatosMPU.bufData[11];
 8000a1c:	4b0f      	ldr	r3, [pc, #60]	; (8000a5c <HAL_I2C_MemRxCpltCallback+0xb0>)
 8000a1e:	f893 303a 	ldrb.w	r3, [r3, #58]	; 0x3a
 8000a22:	021b      	lsls	r3, r3, #8
 8000a24:	b21a      	sxth	r2, r3
 8000a26:	4b0d      	ldr	r3, [pc, #52]	; (8000a5c <HAL_I2C_MemRxCpltCallback+0xb0>)
 8000a28:	f893 303b 	ldrb.w	r3, [r3, #59]	; 0x3b
 8000a2c:	b21b      	sxth	r3, r3
 8000a2e:	4313      	orrs	r3, r2
 8000a30:	b21a      	sxth	r2, r3
 8000a32:	4b0a      	ldr	r3, [pc, #40]	; (8000a5c <HAL_I2C_MemRxCpltCallback+0xb0>)
 8000a34:	825a      	strh	r2, [r3, #18]
	DatosMPU.z.gyro = (DatosMPU.bufData[12] << 8) | DatosMPU.bufData[13];
 8000a36:	4b09      	ldr	r3, [pc, #36]	; (8000a5c <HAL_I2C_MemRxCpltCallback+0xb0>)
 8000a38:	f893 303c 	ldrb.w	r3, [r3, #60]	; 0x3c
 8000a3c:	021b      	lsls	r3, r3, #8
 8000a3e:	b21a      	sxth	r2, r3
 8000a40:	4b06      	ldr	r3, [pc, #24]	; (8000a5c <HAL_I2C_MemRxCpltCallback+0xb0>)
 8000a42:	f893 303d 	ldrb.w	r3, [r3, #61]	; 0x3d
 8000a46:	b21b      	sxth	r3, r3
 8000a48:	4313      	orrs	r3, r2
 8000a4a:	b21a      	sxth	r2, r3
 8000a4c:	4b03      	ldr	r3, [pc, #12]	; (8000a5c <HAL_I2C_MemRxCpltCallback+0xb0>)
 8000a4e:	845a      	strh	r2, [r3, #34]	; 0x22

}
 8000a50:	bf00      	nop
 8000a52:	370c      	adds	r7, #12
 8000a54:	46bd      	mov	sp, r7
 8000a56:	f85d 7b04 	ldr.w	r7, [sp], #4
 8000a5a:	4770      	bx	lr
 8000a5c:	200003ec 	.word	0x200003ec

08000a60 <main>:
/**
  * @brief  The application entry point.
  * @retval int
  */
int main(void)
{
 8000a60:	b580      	push	{r7, lr}
 8000a62:	b084      	sub	sp, #16
 8000a64:	af02      	add	r7, sp, #8
  /* USER CODE BEGIN 1 */
	uint8_t time250us = 0, time10ms = 0;
 8000a66:	2300      	movs	r3, #0
 8000a68:	71fb      	strb	r3, [r7, #7]
 8000a6a:	2300      	movs	r3, #0
 8000a6c:	71bb      	strb	r3, [r7, #6]
  /* USER CODE END 1 */

  /* MCU Configuration--------------------------------------------------------*/

  /* Reset of all peripherals, Initializes the Flash interface and the Systick. */
  HAL_Init();
 8000a6e:	f001 f909 	bl	8001c84 <HAL_Init>

  /* USER CODE BEGIN Init */
  CDC_Attach_Rx(&CommDatafromUSB);
 8000a72:	4847      	ldr	r0, [pc, #284]	; (8000b90 <main+0x130>)
 8000a74:	f009 fd6e 	bl	800a554 <CDC_Attach_Rx>
  CommInitProtocol(&datosComSerie, &CommDecodeData, commBufferRx, commBufferTx);
 8000a78:	4b46      	ldr	r3, [pc, #280]	; (8000b94 <main+0x134>)
 8000a7a:	4a47      	ldr	r2, [pc, #284]	; (8000b98 <main+0x138>)
 8000a7c:	4947      	ldr	r1, [pc, #284]	; (8000b9c <main+0x13c>)
 8000a7e:	4848      	ldr	r0, [pc, #288]	; (8000ba0 <main+0x140>)
 8000a80:	f7ff fdb3 	bl	80005ea <CommInitProtocol>
  /* USER CODE END Init */

  /* Configure the system clock */
  SystemClock_Config();
 8000a84:	f000 f8aa 	bl	8000bdc <SystemClock_Config>
  /* USER CODE BEGIN SysInit */

  /* USER CODE END SysInit */

  /* Initialize all configured peripherals */
  MX_GPIO_Init();
 8000a88:	f000 fb02 	bl	8001090 <MX_GPIO_Init>
  MX_DMA_Init();
 8000a8c:	f000 fac2 	bl	8001014 <MX_DMA_Init>
  MX_TIM1_Init();
 8000a90:	f000 f9ee 	bl	8000e70 <MX_TIM1_Init>
  MX_USB_DEVICE_Init();
 8000a94:	f009 fc0a 	bl	800a2ac <MX_USB_DEVICE_Init>
  MX_ADC1_Init();
 8000a98:	f000 f908 	bl	8000cac <MX_ADC1_Init>
  MX_TIM3_Init();
 8000a9c:	f000 fa38 	bl	8000f10 <MX_TIM3_Init>
  MX_I2C1_Init();
 8000aa0:	f000 f9b8 	bl	8000e14 <MX_I2C1_Init>
  /* USER CODE BEGIN 2 */
  HAL_TIM_Base_Start_IT(&htim1);
 8000aa4:	483f      	ldr	r0, [pc, #252]	; (8000ba4 <main+0x144>)
 8000aa6:	f005 f95f 	bl	8005d68 <HAL_TIM_Base_Start_IT>
  HAL_TIM_Base_Start_IT(&htim3);
 8000aaa:	483f      	ldr	r0, [pc, #252]	; (8000ba8 <main+0x148>)
 8000aac:	f005 f95c 	bl	8005d68 <HAL_TIM_Base_Start_IT>
  HAL_ADC_Start_DMA(&hadc1, (uint32_t*)&sensorIR.bufferADCvalue, NUM_CHANNELS_ADC);
 8000ab0:	2208      	movs	r2, #8
 8000ab2:	493e      	ldr	r1, [pc, #248]	; (8000bac <main+0x14c>)
 8000ab4:	483e      	ldr	r0, [pc, #248]	; (8000bb0 <main+0x150>)
 8000ab6:	f001 f9bf 	bl	8001e38 <HAL_ADC_Start_DMA>
  HAL_TIM_PWM_Start(&htim3, TIM_CHANNEL_2);
 8000aba:	2104      	movs	r1, #4
 8000abc:	483a      	ldr	r0, [pc, #232]	; (8000ba8 <main+0x148>)
 8000abe:	f005 fa0f 	bl	8005ee0 <HAL_TIM_PWM_Start>
  HAL_TIM_PWM_Start(&htim3, TIM_CHANNEL_1);
 8000ac2:	2100      	movs	r1, #0
 8000ac4:	4838      	ldr	r0, [pc, #224]	; (8000ba8 <main+0x148>)
 8000ac6:	f005 fa0b 	bl	8005ee0 <HAL_TIM_PWM_Start>

  en_InitENG(&motorL, &MotorL_SetPWM, &MotorL_SetPIN, htim3.Instance->ARR); /*!< asigno a cada motor una direccio de memoria para manejarlo desde la lib */
 8000aca:	4b37      	ldr	r3, [pc, #220]	; (8000ba8 <main+0x148>)
 8000acc:	681b      	ldr	r3, [r3, #0]
 8000ace:	6adb      	ldr	r3, [r3, #44]	; 0x2c
 8000ad0:	b29b      	uxth	r3, r3
 8000ad2:	4a38      	ldr	r2, [pc, #224]	; (8000bb4 <main+0x154>)
 8000ad4:	4938      	ldr	r1, [pc, #224]	; (8000bb8 <main+0x158>)
 8000ad6:	4839      	ldr	r0, [pc, #228]	; (8000bbc <main+0x15c>)
 8000ad8:	f7ff fcfc 	bl	80004d4 <en_InitENG>
  en_InitENG(&motorR, &MotorR_SetPWM, &MotorR_SetPIN, htim3.Instance->ARR); /*!< En donde, (htim3.Instance->ARR) es el valor maximo de PWM */
 8000adc:	4b32      	ldr	r3, [pc, #200]	; (8000ba8 <main+0x148>)
 8000ade:	681b      	ldr	r3, [r3, #0]
 8000ae0:	6adb      	ldr	r3, [r3, #44]	; 0x2c
 8000ae2:	b29b      	uxth	r3, r3
 8000ae4:	4a36      	ldr	r2, [pc, #216]	; (8000bc0 <main+0x160>)
 8000ae6:	4937      	ldr	r1, [pc, #220]	; (8000bc4 <main+0x164>)
 8000ae8:	4837      	ldr	r0, [pc, #220]	; (8000bc8 <main+0x168>)
 8000aea:	f7ff fcf3 	bl	80004d4 <en_InitENG>

  IS250US = FALSE;
 8000aee:	4a37      	ldr	r2, [pc, #220]	; (8000bcc <main+0x16c>)
 8000af0:	7813      	ldrb	r3, [r2, #0]
 8000af2:	f36f 1386 	bfc	r3, #6, #1
 8000af6:	7013      	strb	r3, [r2, #0]
  ADCready = FALSE;
 8000af8:	4a34      	ldr	r2, [pc, #208]	; (8000bcc <main+0x16c>)
 8000afa:	7813      	ldrb	r3, [r2, #0]
 8000afc:	f36f 1345 	bfc	r3, #5, #1
 8000b00:	7013      	strb	r3, [r2, #0]
  EnginesFlag = TRUE;
 8000b02:	4a32      	ldr	r2, [pc, #200]	; (8000bcc <main+0x16c>)
 8000b04:	7813      	ldrb	r3, [r2, #0]
 8000b06:	f043 0310 	orr.w	r3, r3, #16
 8000b0a:	7013      	strb	r3, [r2, #0]
  datosComSerie.Rx.indexRead = 0;
 8000b0c:	4b24      	ldr	r3, [pc, #144]	; (8000ba0 <main+0x140>)
 8000b0e:	2200      	movs	r2, #0
 8000b10:	735a      	strb	r2, [r3, #13]
  datosComSerie.Rx.indexWrite =0;
 8000b12:	4b23      	ldr	r3, [pc, #140]	; (8000ba0 <main+0x140>)
 8000b14:	2200      	movs	r2, #0
 8000b16:	731a      	strb	r2, [r3, #12]
  myFlags.allFlags = 0;
 8000b18:	4b2c      	ldr	r3, [pc, #176]	; (8000bcc <main+0x16c>)
 8000b1a:	2200      	movs	r2, #0
 8000b1c:	701a      	strb	r2, [r3, #0]
  {
    /* USER CODE END WHILE */

    /* USER CODE BEGIN 3 */

	  CommComunicationsTask(&datosComSerie);
 8000b1e:	4820      	ldr	r0, [pc, #128]	; (8000ba0 <main+0x140>)
 8000b20:	f000 fb6c 	bl	80011fc <CommComunicationsTask>

	  if(IS250US){
 8000b24:	4b29      	ldr	r3, [pc, #164]	; (8000bcc <main+0x16c>)
 8000b26:	781b      	ldrb	r3, [r3, #0]
 8000b28:	f003 0340 	and.w	r3, r3, #64	; 0x40
 8000b2c:	b2db      	uxtb	r3, r3
 8000b2e:	2b00      	cmp	r3, #0
 8000b30:	d0f5      	beq.n	8000b1e <main+0xbe>
		  time250us++;
 8000b32:	79fb      	ldrb	r3, [r7, #7]
 8000b34:	3301      	adds	r3, #1
 8000b36:	71fb      	strb	r3, [r7, #7]
		  IS250US =! IS250US;
 8000b38:	4b24      	ldr	r3, [pc, #144]	; (8000bcc <main+0x16c>)
 8000b3a:	781b      	ldrb	r3, [r3, #0]
 8000b3c:	f003 0340 	and.w	r3, r3, #64	; 0x40
 8000b40:	b2db      	uxtb	r3, r3
 8000b42:	2b00      	cmp	r3, #0
 8000b44:	bf0c      	ite	eq
 8000b46:	2301      	moveq	r3, #1
 8000b48:	2300      	movne	r3, #0
 8000b4a:	b2d9      	uxtb	r1, r3
 8000b4c:	4a1f      	ldr	r2, [pc, #124]	; (8000bcc <main+0x16c>)
 8000b4e:	7813      	ldrb	r3, [r2, #0]
 8000b50:	f361 1386 	bfi	r3, r1, #6, #1
 8000b54:	7013      	strb	r3, [r2, #0]
//		  HAL_ADC_Start_DMA(&hadc1, (uint32_t*)&sensorIR.bufferADCvalue, NUM_CHANNELS_ADC);
		  if(time250us >= 40){
 8000b56:	79fb      	ldrb	r3, [r7, #7]
 8000b58:	2b27      	cmp	r3, #39	; 0x27
 8000b5a:	d9e0      	bls.n	8000b1e <main+0xbe>
			  HAL_I2C_Mem_Read_DMA(&hi2c1, MPU6050_ADDR, ACCEL_XOUT_REG, MemAddSize, (uint8_t*)&DatosMPU.bufData, 14);
 8000b5c:	230e      	movs	r3, #14
 8000b5e:	9301      	str	r3, [sp, #4]
 8000b60:	4b1b      	ldr	r3, [pc, #108]	; (8000bd0 <main+0x170>)
 8000b62:	9300      	str	r3, [sp, #0]
 8000b64:	2301      	movs	r3, #1
 8000b66:	223b      	movs	r2, #59	; 0x3b
 8000b68:	21d0      	movs	r1, #208	; 0xd0
 8000b6a:	481a      	ldr	r0, [pc, #104]	; (8000bd4 <main+0x174>)
 8000b6c:	f002 fcc8 	bl	8003500 <HAL_I2C_Mem_Read_DMA>
			  time10ms++;
 8000b70:	79bb      	ldrb	r3, [r7, #6]
 8000b72:	3301      	adds	r3, #1
 8000b74:	71bb      	strb	r3, [r7, #6]
			  time250us = 0;
 8000b76:	2300      	movs	r3, #0
 8000b78:	71fb      	strb	r3, [r7, #7]
			  if(time10ms == 10){
 8000b7a:	79bb      	ldrb	r3, [r7, #6]
 8000b7c:	2b0a      	cmp	r3, #10
 8000b7e:	d1ce      	bne.n	8000b1e <main+0xbe>
				  HAL_GPIO_TogglePin(LED_GPIO_Port, LED_Pin);
 8000b80:	f44f 5100 	mov.w	r1, #8192	; 0x2000
 8000b84:	4814      	ldr	r0, [pc, #80]	; (8000bd8 <main+0x178>)
 8000b86:	f002 fb5c 	bl	8003242 <HAL_GPIO_TogglePin>
				  time10ms = 0;
 8000b8a:	2300      	movs	r3, #0
 8000b8c:	71bb      	strb	r3, [r7, #6]
	  CommComunicationsTask(&datosComSerie);
 8000b8e:	e7c6      	b.n	8000b1e <main+0xbe>
 8000b90:	080011a9 	.word	0x080011a9
 8000b94:	2000052c 	.word	0x2000052c
 8000b98:	2000042c 	.word	0x2000042c
 8000b9c:	0800128d 	.word	0x0800128d
 8000ba0:	20000378 	.word	0x20000378
 8000ba4:	200002e0 	.word	0x200002e0
 8000ba8:	20000328 	.word	0x20000328
 8000bac:	20000394 	.word	0x20000394
 8000bb0:	20000124 	.word	0x20000124
 8000bb4:	08001615 	.word	0x08001615
 8000bb8:	08001759 	.word	0x08001759
 8000bbc:	200003c4 	.word	0x200003c4
 8000bc0:	080016b5 	.word	0x080016b5
 8000bc4:	0800177d 	.word	0x0800177d
 8000bc8:	200003d8 	.word	0x200003d8
 8000bcc:	20000370 	.word	0x20000370
 8000bd0:	2000041c 	.word	0x2000041c
 8000bd4:	200001cc 	.word	0x200001cc
 8000bd8:	40020800 	.word	0x40020800

08000bdc <SystemClock_Config>:
/**
  * @brief System Clock Configuration
  * @retval None
  */
void SystemClock_Config(void)
{
 8000bdc:	b580      	push	{r7, lr}
 8000bde:	b094      	sub	sp, #80	; 0x50
 8000be0:	af00      	add	r7, sp, #0
  RCC_OscInitTypeDef RCC_OscInitStruct = {0};
 8000be2:	f107 0320 	add.w	r3, r7, #32
 8000be6:	2230      	movs	r2, #48	; 0x30
 8000be8:	2100      	movs	r1, #0
 8000bea:	4618      	mov	r0, r3
 8000bec:	f00a f8dc 	bl	800ada8 <memset>
  RCC_ClkInitTypeDef RCC_ClkInitStruct = {0};
 8000bf0:	f107 030c 	add.w	r3, r7, #12
 8000bf4:	2200      	movs	r2, #0
 8000bf6:	601a      	str	r2, [r3, #0]
 8000bf8:	605a      	str	r2, [r3, #4]
 8000bfa:	609a      	str	r2, [r3, #8]
 8000bfc:	60da      	str	r2, [r3, #12]
 8000bfe:	611a      	str	r2, [r3, #16]

  /** Configure the main internal regulator output voltage
  */
  __HAL_RCC_PWR_CLK_ENABLE();
 8000c00:	2300      	movs	r3, #0
 8000c02:	60bb      	str	r3, [r7, #8]
 8000c04:	4b27      	ldr	r3, [pc, #156]	; (8000ca4 <SystemClock_Config+0xc8>)
 8000c06:	6c1b      	ldr	r3, [r3, #64]	; 0x40
 8000c08:	4a26      	ldr	r2, [pc, #152]	; (8000ca4 <SystemClock_Config+0xc8>)
 8000c0a:	f043 5380 	orr.w	r3, r3, #268435456	; 0x10000000
 8000c0e:	6413      	str	r3, [r2, #64]	; 0x40
 8000c10:	4b24      	ldr	r3, [pc, #144]	; (8000ca4 <SystemClock_Config+0xc8>)
 8000c12:	6c1b      	ldr	r3, [r3, #64]	; 0x40
 8000c14:	f003 5380 	and.w	r3, r3, #268435456	; 0x10000000
 8000c18:	60bb      	str	r3, [r7, #8]
 8000c1a:	68bb      	ldr	r3, [r7, #8]
  __HAL_PWR_VOLTAGESCALING_CONFIG(PWR_REGULATOR_VOLTAGE_SCALE1);
 8000c1c:	2300      	movs	r3, #0
 8000c1e:	607b      	str	r3, [r7, #4]
 8000c20:	4b21      	ldr	r3, [pc, #132]	; (8000ca8 <SystemClock_Config+0xcc>)
 8000c22:	681b      	ldr	r3, [r3, #0]
 8000c24:	4a20      	ldr	r2, [pc, #128]	; (8000ca8 <SystemClock_Config+0xcc>)
 8000c26:	f443 4340 	orr.w	r3, r3, #49152	; 0xc000
 8000c2a:	6013      	str	r3, [r2, #0]
 8000c2c:	4b1e      	ldr	r3, [pc, #120]	; (8000ca8 <SystemClock_Config+0xcc>)
 8000c2e:	681b      	ldr	r3, [r3, #0]
 8000c30:	f403 4340 	and.w	r3, r3, #49152	; 0xc000
 8000c34:	607b      	str	r3, [r7, #4]
 8000c36:	687b      	ldr	r3, [r7, #4]

  /** Initializes the RCC Oscillators according to the specified parameters
  * in the RCC_OscInitTypeDef structure.
  */
  RCC_OscInitStruct.OscillatorType = RCC_OSCILLATORTYPE_HSE;
 8000c38:	2301      	movs	r3, #1
 8000c3a:	623b      	str	r3, [r7, #32]
  RCC_OscInitStruct.HSEState = RCC_HSE_ON;
 8000c3c:	f44f 3380 	mov.w	r3, #65536	; 0x10000
 8000c40:	627b      	str	r3, [r7, #36]	; 0x24
  RCC_OscInitStruct.PLL.PLLState = RCC_PLL_ON;
 8000c42:	2302      	movs	r3, #2
 8000c44:	63bb      	str	r3, [r7, #56]	; 0x38
  RCC_OscInitStruct.PLL.PLLSource = RCC_PLLSOURCE_HSE;
 8000c46:	f44f 0380 	mov.w	r3, #4194304	; 0x400000
 8000c4a:	63fb      	str	r3, [r7, #60]	; 0x3c
  RCC_OscInitStruct.PLL.PLLM = 25;
 8000c4c:	2319      	movs	r3, #25
 8000c4e:	643b      	str	r3, [r7, #64]	; 0x40
  RCC_OscInitStruct.PLL.PLLN = 192;
 8000c50:	23c0      	movs	r3, #192	; 0xc0
 8000c52:	647b      	str	r3, [r7, #68]	; 0x44
  RCC_OscInitStruct.PLL.PLLP = RCC_PLLP_DIV2;
 8000c54:	2302      	movs	r3, #2
 8000c56:	64bb      	str	r3, [r7, #72]	; 0x48
  RCC_OscInitStruct.PLL.PLLQ = 4;
 8000c58:	2304      	movs	r3, #4
 8000c5a:	64fb      	str	r3, [r7, #76]	; 0x4c
  if (HAL_RCC_OscConfig(&RCC_OscInitStruct) != HAL_OK)
 8000c5c:	f107 0320 	add.w	r3, r7, #32
 8000c60:	4618      	mov	r0, r3
 8000c62:	f004 fbed 	bl	8005440 <HAL_RCC_OscConfig>
 8000c66:	4603      	mov	r3, r0
 8000c68:	2b00      	cmp	r3, #0
 8000c6a:	d001      	beq.n	8000c70 <SystemClock_Config+0x94>
  {
    Error_Handler();
 8000c6c:	f000 fd98 	bl	80017a0 <Error_Handler>
  }

  /** Initializes the CPU, AHB and APB buses clocks
  */
  RCC_ClkInitStruct.ClockType = RCC_CLOCKTYPE_HCLK|RCC_CLOCKTYPE_SYSCLK
 8000c70:	230f      	movs	r3, #15
 8000c72:	60fb      	str	r3, [r7, #12]
                              |RCC_CLOCKTYPE_PCLK1|RCC_CLOCKTYPE_PCLK2;
  RCC_ClkInitStruct.SYSCLKSource = RCC_SYSCLKSOURCE_PLLCLK;
 8000c74:	2302      	movs	r3, #2
 8000c76:	613b      	str	r3, [r7, #16]
  RCC_ClkInitStruct.AHBCLKDivider = RCC_SYSCLK_DIV1;
 8000c78:	2300      	movs	r3, #0
 8000c7a:	617b      	str	r3, [r7, #20]
  RCC_ClkInitStruct.APB1CLKDivider = RCC_HCLK_DIV2;
 8000c7c:	f44f 5380 	mov.w	r3, #4096	; 0x1000
 8000c80:	61bb      	str	r3, [r7, #24]
  RCC_ClkInitStruct.APB2CLKDivider = RCC_HCLK_DIV1;
 8000c82:	2300      	movs	r3, #0
 8000c84:	61fb      	str	r3, [r7, #28]

  if (HAL_RCC_ClockConfig(&RCC_ClkInitStruct, FLASH_LATENCY_3) != HAL_OK)
 8000c86:	f107 030c 	add.w	r3, r7, #12
 8000c8a:	2103      	movs	r1, #3
 8000c8c:	4618      	mov	r0, r3
 8000c8e:	f004 fe4f 	bl	8005930 <HAL_RCC_ClockConfig>
 8000c92:	4603      	mov	r3, r0
 8000c94:	2b00      	cmp	r3, #0
 8000c96:	d001      	beq.n	8000c9c <SystemClock_Config+0xc0>
  {
    Error_Handler();
 8000c98:	f000 fd82 	bl	80017a0 <Error_Handler>
  }
}
 8000c9c:	bf00      	nop
 8000c9e:	3750      	adds	r7, #80	; 0x50
 8000ca0:	46bd      	mov	sp, r7
 8000ca2:	bd80      	pop	{r7, pc}
 8000ca4:	40023800 	.word	0x40023800
 8000ca8:	40007000 	.word	0x40007000

08000cac <MX_ADC1_Init>:
  * @brief ADC1 Initialization Function
  * @param None
  * @retval None
  */
static void MX_ADC1_Init(void)
{
 8000cac:	b580      	push	{r7, lr}
 8000cae:	b084      	sub	sp, #16
 8000cb0:	af00      	add	r7, sp, #0

  /* USER CODE BEGIN ADC1_Init 0 */

  /* USER CODE END ADC1_Init 0 */

  ADC_ChannelConfTypeDef sConfig = {0};
 8000cb2:	463b      	mov	r3, r7
 8000cb4:	2200      	movs	r2, #0
 8000cb6:	601a      	str	r2, [r3, #0]
 8000cb8:	605a      	str	r2, [r3, #4]
 8000cba:	609a      	str	r2, [r3, #8]
 8000cbc:	60da      	str	r2, [r3, #12]

  /* USER CODE END ADC1_Init 1 */

  /** Configure the global features of the ADC (Clock, Resolution, Data Alignment and number of conversion)
  */
  hadc1.Instance = ADC1;
 8000cbe:	4b52      	ldr	r3, [pc, #328]	; (8000e08 <MX_ADC1_Init+0x15c>)
 8000cc0:	4a52      	ldr	r2, [pc, #328]	; (8000e0c <MX_ADC1_Init+0x160>)
 8000cc2:	601a      	str	r2, [r3, #0]
  hadc1.Init.ClockPrescaler = ADC_CLOCK_SYNC_PCLK_DIV4;
 8000cc4:	4b50      	ldr	r3, [pc, #320]	; (8000e08 <MX_ADC1_Init+0x15c>)
 8000cc6:	f44f 3280 	mov.w	r2, #65536	; 0x10000
 8000cca:	605a      	str	r2, [r3, #4]
  hadc1.Init.Resolution = ADC_RESOLUTION_12B;
 8000ccc:	4b4e      	ldr	r3, [pc, #312]	; (8000e08 <MX_ADC1_Init+0x15c>)
 8000cce:	2200      	movs	r2, #0
 8000cd0:	609a      	str	r2, [r3, #8]
  hadc1.Init.ScanConvMode = ENABLE;
 8000cd2:	4b4d      	ldr	r3, [pc, #308]	; (8000e08 <MX_ADC1_Init+0x15c>)
 8000cd4:	2201      	movs	r2, #1
 8000cd6:	611a      	str	r2, [r3, #16]
  hadc1.Init.ContinuousConvMode = DISABLE;
 8000cd8:	4b4b      	ldr	r3, [pc, #300]	; (8000e08 <MX_ADC1_Init+0x15c>)
 8000cda:	2200      	movs	r2, #0
 8000cdc:	761a      	strb	r2, [r3, #24]
  hadc1.Init.DiscontinuousConvMode = DISABLE;
 8000cde:	4b4a      	ldr	r3, [pc, #296]	; (8000e08 <MX_ADC1_Init+0x15c>)
 8000ce0:	2200      	movs	r2, #0
 8000ce2:	f883 2020 	strb.w	r2, [r3, #32]
  hadc1.Init.ExternalTrigConvEdge = ADC_EXTERNALTRIGCONVEDGE_NONE;
 8000ce6:	4b48      	ldr	r3, [pc, #288]	; (8000e08 <MX_ADC1_Init+0x15c>)
 8000ce8:	2200      	movs	r2, #0
 8000cea:	62da      	str	r2, [r3, #44]	; 0x2c
  hadc1.Init.ExternalTrigConv = ADC_SOFTWARE_START;
 8000cec:	4b46      	ldr	r3, [pc, #280]	; (8000e08 <MX_ADC1_Init+0x15c>)
 8000cee:	4a48      	ldr	r2, [pc, #288]	; (8000e10 <MX_ADC1_Init+0x164>)
 8000cf0:	629a      	str	r2, [r3, #40]	; 0x28
  hadc1.Init.DataAlign = ADC_DATAALIGN_RIGHT;
 8000cf2:	4b45      	ldr	r3, [pc, #276]	; (8000e08 <MX_ADC1_Init+0x15c>)
 8000cf4:	2200      	movs	r2, #0
 8000cf6:	60da      	str	r2, [r3, #12]
  hadc1.Init.NbrOfConversion = 8;
 8000cf8:	4b43      	ldr	r3, [pc, #268]	; (8000e08 <MX_ADC1_Init+0x15c>)
 8000cfa:	2208      	movs	r2, #8
 8000cfc:	61da      	str	r2, [r3, #28]
  hadc1.Init.DMAContinuousRequests = DISABLE;
 8000cfe:	4b42      	ldr	r3, [pc, #264]	; (8000e08 <MX_ADC1_Init+0x15c>)
 8000d00:	2200      	movs	r2, #0
 8000d02:	f883 2030 	strb.w	r2, [r3, #48]	; 0x30
  hadc1.Init.EOCSelection = ADC_EOC_SINGLE_CONV;
 8000d06:	4b40      	ldr	r3, [pc, #256]	; (8000e08 <MX_ADC1_Init+0x15c>)
 8000d08:	2201      	movs	r2, #1
 8000d0a:	615a      	str	r2, [r3, #20]
  if (HAL_ADC_Init(&hadc1) != HAL_OK)
 8000d0c:	483e      	ldr	r0, [pc, #248]	; (8000e08 <MX_ADC1_Init+0x15c>)
 8000d0e:	f001 f84f 	bl	8001db0 <HAL_ADC_Init>
 8000d12:	4603      	mov	r3, r0
 8000d14:	2b00      	cmp	r3, #0
 8000d16:	d001      	beq.n	8000d1c <MX_ADC1_Init+0x70>
  {
    Error_Handler();
 8000d18:	f000 fd42 	bl	80017a0 <Error_Handler>
  }

  /** Configure for the selected ADC regular channel its corresponding rank in the sequencer and its sample time.
  */
  sConfig.Channel = ADC_CHANNEL_0;
 8000d1c:	2300      	movs	r3, #0
 8000d1e:	603b      	str	r3, [r7, #0]
  sConfig.Rank = 1;
 8000d20:	2301      	movs	r3, #1
 8000d22:	607b      	str	r3, [r7, #4]
  sConfig.SamplingTime = ADC_SAMPLETIME_3CYCLES;
 8000d24:	2300      	movs	r3, #0
 8000d26:	60bb      	str	r3, [r7, #8]
  if (HAL_ADC_ConfigChannel(&hadc1, &sConfig) != HAL_OK)
 8000d28:	463b      	mov	r3, r7
 8000d2a:	4619      	mov	r1, r3
 8000d2c:	4836      	ldr	r0, [pc, #216]	; (8000e08 <MX_ADC1_Init+0x15c>)
 8000d2e:	f001 f98b 	bl	8002048 <HAL_ADC_ConfigChannel>
 8000d32:	4603      	mov	r3, r0
 8000d34:	2b00      	cmp	r3, #0
 8000d36:	d001      	beq.n	8000d3c <MX_ADC1_Init+0x90>
  {
    Error_Handler();
 8000d38:	f000 fd32 	bl	80017a0 <Error_Handler>
  }

  /** Configure for the selected ADC regular channel its corresponding rank in the sequencer and its sample time.
  */
  sConfig.Channel = ADC_CHANNEL_1;
 8000d3c:	2301      	movs	r3, #1
 8000d3e:	603b      	str	r3, [r7, #0]
  sConfig.Rank = 2;
 8000d40:	2302      	movs	r3, #2
 8000d42:	607b      	str	r3, [r7, #4]
  if (HAL_ADC_ConfigChannel(&hadc1, &sConfig) != HAL_OK)
 8000d44:	463b      	mov	r3, r7
 8000d46:	4619      	mov	r1, r3
 8000d48:	482f      	ldr	r0, [pc, #188]	; (8000e08 <MX_ADC1_Init+0x15c>)
 8000d4a:	f001 f97d 	bl	8002048 <HAL_ADC_ConfigChannel>
 8000d4e:	4603      	mov	r3, r0
 8000d50:	2b00      	cmp	r3, #0
 8000d52:	d001      	beq.n	8000d58 <MX_ADC1_Init+0xac>
  {
    Error_Handler();
 8000d54:	f000 fd24 	bl	80017a0 <Error_Handler>
  }

  /** Configure for the selected ADC regular channel its corresponding rank in the sequencer and its sample time.
  */
  sConfig.Channel = ADC_CHANNEL_2;
 8000d58:	2302      	movs	r3, #2
 8000d5a:	603b      	str	r3, [r7, #0]
  sConfig.Rank = 3;
 8000d5c:	2303      	movs	r3, #3
 8000d5e:	607b      	str	r3, [r7, #4]
  if (HAL_ADC_ConfigChannel(&hadc1, &sConfig) != HAL_OK)
 8000d60:	463b      	mov	r3, r7
 8000d62:	4619      	mov	r1, r3
 8000d64:	4828      	ldr	r0, [pc, #160]	; (8000e08 <MX_ADC1_Init+0x15c>)
 8000d66:	f001 f96f 	bl	8002048 <HAL_ADC_ConfigChannel>
 8000d6a:	4603      	mov	r3, r0
 8000d6c:	2b00      	cmp	r3, #0
 8000d6e:	d001      	beq.n	8000d74 <MX_ADC1_Init+0xc8>
  {
    Error_Handler();
 8000d70:	f000 fd16 	bl	80017a0 <Error_Handler>
  }

  /** Configure for the selected ADC regular channel its corresponding rank in the sequencer and its sample time.
  */
  sConfig.Channel = ADC_CHANNEL_3;
 8000d74:	2303      	movs	r3, #3
 8000d76:	603b      	str	r3, [r7, #0]
  sConfig.Rank = 4;
 8000d78:	2304      	movs	r3, #4
 8000d7a:	607b      	str	r3, [r7, #4]
  if (HAL_ADC_ConfigChannel(&hadc1, &sConfig) != HAL_OK)
 8000d7c:	463b      	mov	r3, r7
 8000d7e:	4619      	mov	r1, r3
 8000d80:	4821      	ldr	r0, [pc, #132]	; (8000e08 <MX_ADC1_Init+0x15c>)
 8000d82:	f001 f961 	bl	8002048 <HAL_ADC_ConfigChannel>
 8000d86:	4603      	mov	r3, r0
 8000d88:	2b00      	cmp	r3, #0
 8000d8a:	d001      	beq.n	8000d90 <MX_ADC1_Init+0xe4>
  {
    Error_Handler();
 8000d8c:	f000 fd08 	bl	80017a0 <Error_Handler>
  }

  /** Configure for the selected ADC regular channel its corresponding rank in the sequencer and its sample time.
  */
  sConfig.Channel = ADC_CHANNEL_4;
 8000d90:	2304      	movs	r3, #4
 8000d92:	603b      	str	r3, [r7, #0]
  sConfig.Rank = 5;
 8000d94:	2305      	movs	r3, #5
 8000d96:	607b      	str	r3, [r7, #4]
  if (HAL_ADC_ConfigChannel(&hadc1, &sConfig) != HAL_OK)
 8000d98:	463b      	mov	r3, r7
 8000d9a:	4619      	mov	r1, r3
 8000d9c:	481a      	ldr	r0, [pc, #104]	; (8000e08 <MX_ADC1_Init+0x15c>)
 8000d9e:	f001 f953 	bl	8002048 <HAL_ADC_ConfigChannel>
 8000da2:	4603      	mov	r3, r0
 8000da4:	2b00      	cmp	r3, #0
 8000da6:	d001      	beq.n	8000dac <MX_ADC1_Init+0x100>
  {
    Error_Handler();
 8000da8:	f000 fcfa 	bl	80017a0 <Error_Handler>
  }

  /** Configure for the selected ADC regular channel its corresponding rank in the sequencer and its sample time.
  */
  sConfig.Channel = ADC_CHANNEL_5;
 8000dac:	2305      	movs	r3, #5
 8000dae:	603b      	str	r3, [r7, #0]
  sConfig.Rank = 6;
 8000db0:	2306      	movs	r3, #6
 8000db2:	607b      	str	r3, [r7, #4]
  if (HAL_ADC_ConfigChannel(&hadc1, &sConfig) != HAL_OK)
 8000db4:	463b      	mov	r3, r7
 8000db6:	4619      	mov	r1, r3
 8000db8:	4813      	ldr	r0, [pc, #76]	; (8000e08 <MX_ADC1_Init+0x15c>)
 8000dba:	f001 f945 	bl	8002048 <HAL_ADC_ConfigChannel>
 8000dbe:	4603      	mov	r3, r0
 8000dc0:	2b00      	cmp	r3, #0
 8000dc2:	d001      	beq.n	8000dc8 <MX_ADC1_Init+0x11c>
  {
    Error_Handler();
 8000dc4:	f000 fcec 	bl	80017a0 <Error_Handler>
  }

  /** Configure for the selected ADC regular channel its corresponding rank in the sequencer and its sample time.
  */
  sConfig.Channel = ADC_CHANNEL_6;
 8000dc8:	2306      	movs	r3, #6
 8000dca:	603b      	str	r3, [r7, #0]
  sConfig.Rank = 7;
 8000dcc:	2307      	movs	r3, #7
 8000dce:	607b      	str	r3, [r7, #4]
  if (HAL_ADC_ConfigChannel(&hadc1, &sConfig) != HAL_OK)
 8000dd0:	463b      	mov	r3, r7
 8000dd2:	4619      	mov	r1, r3
 8000dd4:	480c      	ldr	r0, [pc, #48]	; (8000e08 <MX_ADC1_Init+0x15c>)
 8000dd6:	f001 f937 	bl	8002048 <HAL_ADC_ConfigChannel>
 8000dda:	4603      	mov	r3, r0
 8000ddc:	2b00      	cmp	r3, #0
 8000dde:	d001      	beq.n	8000de4 <MX_ADC1_Init+0x138>
  {
    Error_Handler();
 8000de0:	f000 fcde 	bl	80017a0 <Error_Handler>
  }

  /** Configure for the selected ADC regular channel its corresponding rank in the sequencer and its sample time.
  */
  sConfig.Channel = ADC_CHANNEL_7;
 8000de4:	2307      	movs	r3, #7
 8000de6:	603b      	str	r3, [r7, #0]
  sConfig.Rank = 8;
 8000de8:	2308      	movs	r3, #8
 8000dea:	607b      	str	r3, [r7, #4]
  if (HAL_ADC_ConfigChannel(&hadc1, &sConfig) != HAL_OK)
 8000dec:	463b      	mov	r3, r7
 8000dee:	4619      	mov	r1, r3
 8000df0:	4805      	ldr	r0, [pc, #20]	; (8000e08 <MX_ADC1_Init+0x15c>)
 8000df2:	f001 f929 	bl	8002048 <HAL_ADC_ConfigChannel>
 8000df6:	4603      	mov	r3, r0
 8000df8:	2b00      	cmp	r3, #0
 8000dfa:	d001      	beq.n	8000e00 <MX_ADC1_Init+0x154>
  {
    Error_Handler();
 8000dfc:	f000 fcd0 	bl	80017a0 <Error_Handler>
  }
  /* USER CODE BEGIN ADC1_Init 2 */

  /* USER CODE END ADC1_Init 2 */

}
 8000e00:	bf00      	nop
 8000e02:	3710      	adds	r7, #16
 8000e04:	46bd      	mov	sp, r7
 8000e06:	bd80      	pop	{r7, pc}
 8000e08:	20000124 	.word	0x20000124
 8000e0c:	40012000 	.word	0x40012000
 8000e10:	0f000001 	.word	0x0f000001

08000e14 <MX_I2C1_Init>:
  * @brief I2C1 Initialization Function
  * @param None
  * @retval None
  */
static void MX_I2C1_Init(void)
{
 8000e14:	b580      	push	{r7, lr}
 8000e16:	af00      	add	r7, sp, #0
  /* USER CODE END I2C1_Init 0 */

  /* USER CODE BEGIN I2C1_Init 1 */

  /* USER CODE END I2C1_Init 1 */
  hi2c1.Instance = I2C1;
 8000e18:	4b12      	ldr	r3, [pc, #72]	; (8000e64 <MX_I2C1_Init+0x50>)
 8000e1a:	4a13      	ldr	r2, [pc, #76]	; (8000e68 <MX_I2C1_Init+0x54>)
 8000e1c:	601a      	str	r2, [r3, #0]
  hi2c1.Init.ClockSpeed = 400000;
 8000e1e:	4b11      	ldr	r3, [pc, #68]	; (8000e64 <MX_I2C1_Init+0x50>)
 8000e20:	4a12      	ldr	r2, [pc, #72]	; (8000e6c <MX_I2C1_Init+0x58>)
 8000e22:	605a      	str	r2, [r3, #4]
  hi2c1.Init.DutyCycle = I2C_DUTYCYCLE_2;
 8000e24:	4b0f      	ldr	r3, [pc, #60]	; (8000e64 <MX_I2C1_Init+0x50>)
 8000e26:	2200      	movs	r2, #0
 8000e28:	609a      	str	r2, [r3, #8]
  hi2c1.Init.OwnAddress1 = 0;
 8000e2a:	4b0e      	ldr	r3, [pc, #56]	; (8000e64 <MX_I2C1_Init+0x50>)
 8000e2c:	2200      	movs	r2, #0
 8000e2e:	60da      	str	r2, [r3, #12]
  hi2c1.Init.AddressingMode = I2C_ADDRESSINGMODE_7BIT;
 8000e30:	4b0c      	ldr	r3, [pc, #48]	; (8000e64 <MX_I2C1_Init+0x50>)
 8000e32:	f44f 4280 	mov.w	r2, #16384	; 0x4000
 8000e36:	611a      	str	r2, [r3, #16]
  hi2c1.Init.DualAddressMode = I2C_DUALADDRESS_DISABLE;
 8000e38:	4b0a      	ldr	r3, [pc, #40]	; (8000e64 <MX_I2C1_Init+0x50>)
 8000e3a:	2200      	movs	r2, #0
 8000e3c:	615a      	str	r2, [r3, #20]
  hi2c1.Init.OwnAddress2 = 0;
 8000e3e:	4b09      	ldr	r3, [pc, #36]	; (8000e64 <MX_I2C1_Init+0x50>)
 8000e40:	2200      	movs	r2, #0
 8000e42:	619a      	str	r2, [r3, #24]
  hi2c1.Init.GeneralCallMode = I2C_GENERALCALL_DISABLE;
 8000e44:	4b07      	ldr	r3, [pc, #28]	; (8000e64 <MX_I2C1_Init+0x50>)
 8000e46:	2200      	movs	r2, #0
 8000e48:	61da      	str	r2, [r3, #28]
  hi2c1.Init.NoStretchMode = I2C_NOSTRETCH_DISABLE;
 8000e4a:	4b06      	ldr	r3, [pc, #24]	; (8000e64 <MX_I2C1_Init+0x50>)
 8000e4c:	2200      	movs	r2, #0
 8000e4e:	621a      	str	r2, [r3, #32]
  if (HAL_I2C_Init(&hi2c1) != HAL_OK)
 8000e50:	4804      	ldr	r0, [pc, #16]	; (8000e64 <MX_I2C1_Init+0x50>)
 8000e52:	f002 fa11 	bl	8003278 <HAL_I2C_Init>
 8000e56:	4603      	mov	r3, r0
 8000e58:	2b00      	cmp	r3, #0
 8000e5a:	d001      	beq.n	8000e60 <MX_I2C1_Init+0x4c>
  {
    Error_Handler();
 8000e5c:	f000 fca0 	bl	80017a0 <Error_Handler>
  }
  /* USER CODE BEGIN I2C1_Init 2 */

  /* USER CODE END I2C1_Init 2 */

}
 8000e60:	bf00      	nop
 8000e62:	bd80      	pop	{r7, pc}
 8000e64:	200001cc 	.word	0x200001cc
 8000e68:	40005400 	.word	0x40005400
 8000e6c:	00061a80 	.word	0x00061a80

08000e70 <MX_TIM1_Init>:
  * @brief TIM1 Initialization Function
  * @param None
  * @retval None
  */
static void MX_TIM1_Init(void)
{
 8000e70:	b580      	push	{r7, lr}
 8000e72:	b086      	sub	sp, #24
 8000e74:	af00      	add	r7, sp, #0

  /* USER CODE BEGIN TIM1_Init 0 */

  /* USER CODE END TIM1_Init 0 */

  TIM_ClockConfigTypeDef sClockSourceConfig = {0};
 8000e76:	f107 0308 	add.w	r3, r7, #8
 8000e7a:	2200      	movs	r2, #0
 8000e7c:	601a      	str	r2, [r3, #0]
 8000e7e:	605a      	str	r2, [r3, #4]
 8000e80:	609a      	str	r2, [r3, #8]
 8000e82:	60da      	str	r2, [r3, #12]
  TIM_MasterConfigTypeDef sMasterConfig = {0};
 8000e84:	463b      	mov	r3, r7
 8000e86:	2200      	movs	r2, #0
 8000e88:	601a      	str	r2, [r3, #0]
 8000e8a:	605a      	str	r2, [r3, #4]

  /* USER CODE BEGIN TIM1_Init 1 */

  /* USER CODE END TIM1_Init 1 */
  htim1.Instance = TIM1;
 8000e8c:	4b1e      	ldr	r3, [pc, #120]	; (8000f08 <MX_TIM1_Init+0x98>)
 8000e8e:	4a1f      	ldr	r2, [pc, #124]	; (8000f0c <MX_TIM1_Init+0x9c>)
 8000e90:	601a      	str	r2, [r3, #0]
  htim1.Init.Prescaler = 0;
 8000e92:	4b1d      	ldr	r3, [pc, #116]	; (8000f08 <MX_TIM1_Init+0x98>)
 8000e94:	2200      	movs	r2, #0
 8000e96:	605a      	str	r2, [r3, #4]
  htim1.Init.CounterMode = TIM_COUNTERMODE_UP;
 8000e98:	4b1b      	ldr	r3, [pc, #108]	; (8000f08 <MX_TIM1_Init+0x98>)
 8000e9a:	2200      	movs	r2, #0
 8000e9c:	609a      	str	r2, [r3, #8]
  htim1.Init.Period = 23999;
 8000e9e:	4b1a      	ldr	r3, [pc, #104]	; (8000f08 <MX_TIM1_Init+0x98>)
 8000ea0:	f645 52bf 	movw	r2, #23999	; 0x5dbf
 8000ea4:	60da      	str	r2, [r3, #12]
  htim1.Init.ClockDivision = TIM_CLOCKDIVISION_DIV1;
 8000ea6:	4b18      	ldr	r3, [pc, #96]	; (8000f08 <MX_TIM1_Init+0x98>)
 8000ea8:	2200      	movs	r2, #0
 8000eaa:	611a      	str	r2, [r3, #16]
  htim1.Init.RepetitionCounter = 0;
 8000eac:	4b16      	ldr	r3, [pc, #88]	; (8000f08 <MX_TIM1_Init+0x98>)
 8000eae:	2200      	movs	r2, #0
 8000eb0:	615a      	str	r2, [r3, #20]
  htim1.Init.AutoReloadPreload = TIM_AUTORELOAD_PRELOAD_DISABLE;
 8000eb2:	4b15      	ldr	r3, [pc, #84]	; (8000f08 <MX_TIM1_Init+0x98>)
 8000eb4:	2200      	movs	r2, #0
 8000eb6:	619a      	str	r2, [r3, #24]
  if (HAL_TIM_Base_Init(&htim1) != HAL_OK)
 8000eb8:	4813      	ldr	r0, [pc, #76]	; (8000f08 <MX_TIM1_Init+0x98>)
 8000eba:	f004 ff05 	bl	8005cc8 <HAL_TIM_Base_Init>
 8000ebe:	4603      	mov	r3, r0
 8000ec0:	2b00      	cmp	r3, #0
 8000ec2:	d001      	beq.n	8000ec8 <MX_TIM1_Init+0x58>
  {
    Error_Handler();
 8000ec4:	f000 fc6c 	bl	80017a0 <Error_Handler>
  }
  sClockSourceConfig.ClockSource = TIM_CLOCKSOURCE_INTERNAL;
 8000ec8:	f44f 5380 	mov.w	r3, #4096	; 0x1000
 8000ecc:	60bb      	str	r3, [r7, #8]
  if (HAL_TIM_ConfigClockSource(&htim1, &sClockSourceConfig) != HAL_OK)
 8000ece:	f107 0308 	add.w	r3, r7, #8
 8000ed2:	4619      	mov	r1, r3
 8000ed4:	480c      	ldr	r0, [pc, #48]	; (8000f08 <MX_TIM1_Init+0x98>)
 8000ed6:	f005 fa65 	bl	80063a4 <HAL_TIM_ConfigClockSource>
 8000eda:	4603      	mov	r3, r0
 8000edc:	2b00      	cmp	r3, #0
 8000ede:	d001      	beq.n	8000ee4 <MX_TIM1_Init+0x74>
  {
    Error_Handler();
 8000ee0:	f000 fc5e 	bl	80017a0 <Error_Handler>
  }
  sMasterConfig.MasterOutputTrigger = TIM_TRGO_RESET;
 8000ee4:	2300      	movs	r3, #0
 8000ee6:	603b      	str	r3, [r7, #0]
  sMasterConfig.MasterSlaveMode = TIM_MASTERSLAVEMODE_DISABLE;
 8000ee8:	2300      	movs	r3, #0
 8000eea:	607b      	str	r3, [r7, #4]
  if (HAL_TIMEx_MasterConfigSynchronization(&htim1, &sMasterConfig) != HAL_OK)
 8000eec:	463b      	mov	r3, r7
 8000eee:	4619      	mov	r1, r3
 8000ef0:	4805      	ldr	r0, [pc, #20]	; (8000f08 <MX_TIM1_Init+0x98>)
 8000ef2:	f005 fe19 	bl	8006b28 <HAL_TIMEx_MasterConfigSynchronization>
 8000ef6:	4603      	mov	r3, r0
 8000ef8:	2b00      	cmp	r3, #0
 8000efa:	d001      	beq.n	8000f00 <MX_TIM1_Init+0x90>
  {
    Error_Handler();
 8000efc:	f000 fc50 	bl	80017a0 <Error_Handler>
  }
  /* USER CODE BEGIN TIM1_Init 2 */

  /* USER CODE END TIM1_Init 2 */

}
 8000f00:	bf00      	nop
 8000f02:	3718      	adds	r7, #24
 8000f04:	46bd      	mov	sp, r7
 8000f06:	bd80      	pop	{r7, pc}
 8000f08:	200002e0 	.word	0x200002e0
 8000f0c:	40010000 	.word	0x40010000

08000f10 <MX_TIM3_Init>:
  * @brief TIM3 Initialization Function
  * @param None
  * @retval None
  */
static void MX_TIM3_Init(void)
{
 8000f10:	b580      	push	{r7, lr}
 8000f12:	b08e      	sub	sp, #56	; 0x38
 8000f14:	af00      	add	r7, sp, #0

  /* USER CODE BEGIN TIM3_Init 0 */

  /* USER CODE END TIM3_Init 0 */

  TIM_ClockConfigTypeDef sClockSourceConfig = {0};
 8000f16:	f107 0328 	add.w	r3, r7, #40	; 0x28
 8000f1a:	2200      	movs	r2, #0
 8000f1c:	601a      	str	r2, [r3, #0]
 8000f1e:	605a      	str	r2, [r3, #4]
 8000f20:	609a      	str	r2, [r3, #8]
 8000f22:	60da      	str	r2, [r3, #12]
  TIM_MasterConfigTypeDef sMasterConfig = {0};
 8000f24:	f107 0320 	add.w	r3, r7, #32
 8000f28:	2200      	movs	r2, #0
 8000f2a:	601a      	str	r2, [r3, #0]
 8000f2c:	605a      	str	r2, [r3, #4]
  TIM_OC_InitTypeDef sConfigOC = {0};
 8000f2e:	1d3b      	adds	r3, r7, #4
 8000f30:	2200      	movs	r2, #0
 8000f32:	601a      	str	r2, [r3, #0]
 8000f34:	605a      	str	r2, [r3, #4]
 8000f36:	609a      	str	r2, [r3, #8]
 8000f38:	60da      	str	r2, [r3, #12]
 8000f3a:	611a      	str	r2, [r3, #16]
 8000f3c:	615a      	str	r2, [r3, #20]
 8000f3e:	619a      	str	r2, [r3, #24]

  /* USER CODE BEGIN TIM3_Init 1 */

  /* USER CODE END TIM3_Init 1 */
  htim3.Instance = TIM3;
 8000f40:	4b32      	ldr	r3, [pc, #200]	; (800100c <MX_TIM3_Init+0xfc>)
 8000f42:	4a33      	ldr	r2, [pc, #204]	; (8001010 <MX_TIM3_Init+0x100>)
 8000f44:	601a      	str	r2, [r3, #0]
  htim3.Init.Prescaler = 15;
 8000f46:	4b31      	ldr	r3, [pc, #196]	; (800100c <MX_TIM3_Init+0xfc>)
 8000f48:	220f      	movs	r2, #15
 8000f4a:	605a      	str	r2, [r3, #4]
  htim3.Init.CounterMode = TIM_COUNTERMODE_UP;
 8000f4c:	4b2f      	ldr	r3, [pc, #188]	; (800100c <MX_TIM3_Init+0xfc>)
 8000f4e:	2200      	movs	r2, #0
 8000f50:	609a      	str	r2, [r3, #8]
  htim3.Init.Period = 59999;
 8000f52:	4b2e      	ldr	r3, [pc, #184]	; (800100c <MX_TIM3_Init+0xfc>)
 8000f54:	f64e 225f 	movw	r2, #59999	; 0xea5f
 8000f58:	60da      	str	r2, [r3, #12]
  htim3.Init.ClockDivision = TIM_CLOCKDIVISION_DIV1;
 8000f5a:	4b2c      	ldr	r3, [pc, #176]	; (800100c <MX_TIM3_Init+0xfc>)
 8000f5c:	2200      	movs	r2, #0
 8000f5e:	611a      	str	r2, [r3, #16]
  htim3.Init.AutoReloadPreload = TIM_AUTORELOAD_PRELOAD_DISABLE;
 8000f60:	4b2a      	ldr	r3, [pc, #168]	; (800100c <MX_TIM3_Init+0xfc>)
 8000f62:	2200      	movs	r2, #0
 8000f64:	619a      	str	r2, [r3, #24]
  if (HAL_TIM_Base_Init(&htim3) != HAL_OK)
 8000f66:	4829      	ldr	r0, [pc, #164]	; (800100c <MX_TIM3_Init+0xfc>)
 8000f68:	f004 feae 	bl	8005cc8 <HAL_TIM_Base_Init>
 8000f6c:	4603      	mov	r3, r0
 8000f6e:	2b00      	cmp	r3, #0
 8000f70:	d001      	beq.n	8000f76 <MX_TIM3_Init+0x66>
  {
    Error_Handler();
 8000f72:	f000 fc15 	bl	80017a0 <Error_Handler>
  }
  sClockSourceConfig.ClockSource = TIM_CLOCKSOURCE_INTERNAL;
 8000f76:	f44f 5380 	mov.w	r3, #4096	; 0x1000
 8000f7a:	62bb      	str	r3, [r7, #40]	; 0x28
  if (HAL_TIM_ConfigClockSource(&htim3, &sClockSourceConfig) != HAL_OK)
 8000f7c:	f107 0328 	add.w	r3, r7, #40	; 0x28
 8000f80:	4619      	mov	r1, r3
 8000f82:	4822      	ldr	r0, [pc, #136]	; (800100c <MX_TIM3_Init+0xfc>)
 8000f84:	f005 fa0e 	bl	80063a4 <HAL_TIM_ConfigClockSource>
 8000f88:	4603      	mov	r3, r0
 8000f8a:	2b00      	cmp	r3, #0
 8000f8c:	d001      	beq.n	8000f92 <MX_TIM3_Init+0x82>
  {
    Error_Handler();
 8000f8e:	f000 fc07 	bl	80017a0 <Error_Handler>
  }
  if (HAL_TIM_PWM_Init(&htim3) != HAL_OK)
 8000f92:	481e      	ldr	r0, [pc, #120]	; (800100c <MX_TIM3_Init+0xfc>)
 8000f94:	f004 ff4a 	bl	8005e2c <HAL_TIM_PWM_Init>
 8000f98:	4603      	mov	r3, r0
 8000f9a:	2b00      	cmp	r3, #0
 8000f9c:	d001      	beq.n	8000fa2 <MX_TIM3_Init+0x92>
  {
    Error_Handler();
 8000f9e:	f000 fbff 	bl	80017a0 <Error_Handler>
  }
  sMasterConfig.MasterOutputTrigger = TIM_TRGO_RESET;
 8000fa2:	2300      	movs	r3, #0
 8000fa4:	623b      	str	r3, [r7, #32]
  sMasterConfig.MasterSlaveMode = TIM_MASTERSLAVEMODE_DISABLE;
 8000fa6:	2300      	movs	r3, #0
 8000fa8:	627b      	str	r3, [r7, #36]	; 0x24
  if (HAL_TIMEx_MasterConfigSynchronization(&htim3, &sMasterConfig) != HAL_OK)
 8000faa:	f107 0320 	add.w	r3, r7, #32
 8000fae:	4619      	mov	r1, r3
 8000fb0:	4816      	ldr	r0, [pc, #88]	; (800100c <MX_TIM3_Init+0xfc>)
 8000fb2:	f005 fdb9 	bl	8006b28 <HAL_TIMEx_MasterConfigSynchronization>
 8000fb6:	4603      	mov	r3, r0
 8000fb8:	2b00      	cmp	r3, #0
 8000fba:	d001      	beq.n	8000fc0 <MX_TIM3_Init+0xb0>
  {
    Error_Handler();
 8000fbc:	f000 fbf0 	bl	80017a0 <Error_Handler>
  }
  sConfigOC.OCMode = TIM_OCMODE_PWM1;
 8000fc0:	2360      	movs	r3, #96	; 0x60
 8000fc2:	607b      	str	r3, [r7, #4]
  sConfigOC.Pulse = 0;
 8000fc4:	2300      	movs	r3, #0
 8000fc6:	60bb      	str	r3, [r7, #8]
  sConfigOC.OCPolarity = TIM_OCPOLARITY_HIGH;
 8000fc8:	2300      	movs	r3, #0
 8000fca:	60fb      	str	r3, [r7, #12]
  sConfigOC.OCFastMode = TIM_OCFAST_DISABLE;
 8000fcc:	2300      	movs	r3, #0
 8000fce:	617b      	str	r3, [r7, #20]
  if (HAL_TIM_PWM_ConfigChannel(&htim3, &sConfigOC, TIM_CHANNEL_1) != HAL_OK)
 8000fd0:	1d3b      	adds	r3, r7, #4
 8000fd2:	2200      	movs	r2, #0
 8000fd4:	4619      	mov	r1, r3
 8000fd6:	480d      	ldr	r0, [pc, #52]	; (800100c <MX_TIM3_Init+0xfc>)
 8000fd8:	f005 f922 	bl	8006220 <HAL_TIM_PWM_ConfigChannel>
 8000fdc:	4603      	mov	r3, r0
 8000fde:	2b00      	cmp	r3, #0
 8000fe0:	d001      	beq.n	8000fe6 <MX_TIM3_Init+0xd6>
  {
    Error_Handler();
 8000fe2:	f000 fbdd 	bl	80017a0 <Error_Handler>
  }
  if (HAL_TIM_PWM_ConfigChannel(&htim3, &sConfigOC, TIM_CHANNEL_2) != HAL_OK)
 8000fe6:	1d3b      	adds	r3, r7, #4
 8000fe8:	2204      	movs	r2, #4
 8000fea:	4619      	mov	r1, r3
 8000fec:	4807      	ldr	r0, [pc, #28]	; (800100c <MX_TIM3_Init+0xfc>)
 8000fee:	f005 f917 	bl	8006220 <HAL_TIM_PWM_ConfigChannel>
 8000ff2:	4603      	mov	r3, r0
 8000ff4:	2b00      	cmp	r3, #0
 8000ff6:	d001      	beq.n	8000ffc <MX_TIM3_Init+0xec>
  {
    Error_Handler();
 8000ff8:	f000 fbd2 	bl	80017a0 <Error_Handler>
  }
  /* USER CODE BEGIN TIM3_Init 2 */

  /* USER CODE END TIM3_Init 2 */
  HAL_TIM_MspPostInit(&htim3);
 8000ffc:	4803      	ldr	r0, [pc, #12]	; (800100c <MX_TIM3_Init+0xfc>)
 8000ffe:	f000 fd65 	bl	8001acc <HAL_TIM_MspPostInit>

}
 8001002:	bf00      	nop
 8001004:	3738      	adds	r7, #56	; 0x38
 8001006:	46bd      	mov	sp, r7
 8001008:	bd80      	pop	{r7, pc}
 800100a:	bf00      	nop
 800100c:	20000328 	.word	0x20000328
 8001010:	40000400 	.word	0x40000400

08001014 <MX_DMA_Init>:

/**
  * Enable DMA controller clock
  */
static void MX_DMA_Init(void)
{
 8001014:	b580      	push	{r7, lr}
 8001016:	b082      	sub	sp, #8
 8001018:	af00      	add	r7, sp, #0

  /* DMA controller clock enable */
  __HAL_RCC_DMA2_CLK_ENABLE();
 800101a:	2300      	movs	r3, #0
 800101c:	607b      	str	r3, [r7, #4]
 800101e:	4b1b      	ldr	r3, [pc, #108]	; (800108c <MX_DMA_Init+0x78>)
 8001020:	6b1b      	ldr	r3, [r3, #48]	; 0x30
 8001022:	4a1a      	ldr	r2, [pc, #104]	; (800108c <MX_DMA_Init+0x78>)
 8001024:	f443 0380 	orr.w	r3, r3, #4194304	; 0x400000
 8001028:	6313      	str	r3, [r2, #48]	; 0x30
 800102a:	4b18      	ldr	r3, [pc, #96]	; (800108c <MX_DMA_Init+0x78>)
 800102c:	6b1b      	ldr	r3, [r3, #48]	; 0x30
 800102e:	f403 0380 	and.w	r3, r3, #4194304	; 0x400000
 8001032:	607b      	str	r3, [r7, #4]
 8001034:	687b      	ldr	r3, [r7, #4]
  __HAL_RCC_DMA1_CLK_ENABLE();
 8001036:	2300      	movs	r3, #0
 8001038:	603b      	str	r3, [r7, #0]
 800103a:	4b14      	ldr	r3, [pc, #80]	; (800108c <MX_DMA_Init+0x78>)
 800103c:	6b1b      	ldr	r3, [r3, #48]	; 0x30
 800103e:	4a13      	ldr	r2, [pc, #76]	; (800108c <MX_DMA_Init+0x78>)
 8001040:	f443 1300 	orr.w	r3, r3, #2097152	; 0x200000
 8001044:	6313      	str	r3, [r2, #48]	; 0x30
 8001046:	4b11      	ldr	r3, [pc, #68]	; (800108c <MX_DMA_Init+0x78>)
 8001048:	6b1b      	ldr	r3, [r3, #48]	; 0x30
 800104a:	f403 1300 	and.w	r3, r3, #2097152	; 0x200000
 800104e:	603b      	str	r3, [r7, #0]
 8001050:	683b      	ldr	r3, [r7, #0]

  /* DMA interrupt init */
  /* DMA1_Stream0_IRQn interrupt configuration */
  HAL_NVIC_SetPriority(DMA1_Stream0_IRQn, 0, 0);
 8001052:	2200      	movs	r2, #0
 8001054:	2100      	movs	r1, #0
 8001056:	200b      	movs	r0, #11
 8001058:	f001 fb81 	bl	800275e <HAL_NVIC_SetPriority>
  HAL_NVIC_EnableIRQ(DMA1_Stream0_IRQn);
 800105c:	200b      	movs	r0, #11
 800105e:	f001 fb9a 	bl	8002796 <HAL_NVIC_EnableIRQ>
  /* DMA1_Stream1_IRQn interrupt configuration */
  HAL_NVIC_SetPriority(DMA1_Stream1_IRQn, 0, 0);
 8001062:	2200      	movs	r2, #0
 8001064:	2100      	movs	r1, #0
 8001066:	200c      	movs	r0, #12
 8001068:	f001 fb79 	bl	800275e <HAL_NVIC_SetPriority>
  HAL_NVIC_EnableIRQ(DMA1_Stream1_IRQn);
 800106c:	200c      	movs	r0, #12
 800106e:	f001 fb92 	bl	8002796 <HAL_NVIC_EnableIRQ>
  /* DMA2_Stream0_IRQn interrupt configuration */
  HAL_NVIC_SetPriority(DMA2_Stream0_IRQn, 0, 0);
 8001072:	2200      	movs	r2, #0
 8001074:	2100      	movs	r1, #0
 8001076:	2038      	movs	r0, #56	; 0x38
 8001078:	f001 fb71 	bl	800275e <HAL_NVIC_SetPriority>
  HAL_NVIC_EnableIRQ(DMA2_Stream0_IRQn);
 800107c:	2038      	movs	r0, #56	; 0x38
 800107e:	f001 fb8a 	bl	8002796 <HAL_NVIC_EnableIRQ>

}
 8001082:	bf00      	nop
 8001084:	3708      	adds	r7, #8
 8001086:	46bd      	mov	sp, r7
 8001088:	bd80      	pop	{r7, pc}
 800108a:	bf00      	nop
 800108c:	40023800 	.word	0x40023800

08001090 <MX_GPIO_Init>:
  * @brief GPIO Initialization Function
  * @param None
  * @retval None
  */
static void MX_GPIO_Init(void)
{
 8001090:	b580      	push	{r7, lr}
 8001092:	b08a      	sub	sp, #40	; 0x28
 8001094:	af00      	add	r7, sp, #0
  GPIO_InitTypeDef GPIO_InitStruct = {0};
 8001096:	f107 0314 	add.w	r3, r7, #20
 800109a:	2200      	movs	r2, #0
 800109c:	601a      	str	r2, [r3, #0]
 800109e:	605a      	str	r2, [r3, #4]
 80010a0:	609a      	str	r2, [r3, #8]
 80010a2:	60da      	str	r2, [r3, #12]
 80010a4:	611a      	str	r2, [r3, #16]
/* USER CODE BEGIN MX_GPIO_Init_1 */
/* USER CODE END MX_GPIO_Init_1 */

  /* GPIO Ports Clock Enable */
  __HAL_RCC_GPIOC_CLK_ENABLE();
 80010a6:	2300      	movs	r3, #0
 80010a8:	613b      	str	r3, [r7, #16]
 80010aa:	4b3b      	ldr	r3, [pc, #236]	; (8001198 <MX_GPIO_Init+0x108>)
 80010ac:	6b1b      	ldr	r3, [r3, #48]	; 0x30
 80010ae:	4a3a      	ldr	r2, [pc, #232]	; (8001198 <MX_GPIO_Init+0x108>)
 80010b0:	f043 0304 	orr.w	r3, r3, #4
 80010b4:	6313      	str	r3, [r2, #48]	; 0x30
 80010b6:	4b38      	ldr	r3, [pc, #224]	; (8001198 <MX_GPIO_Init+0x108>)
 80010b8:	6b1b      	ldr	r3, [r3, #48]	; 0x30
 80010ba:	f003 0304 	and.w	r3, r3, #4
 80010be:	613b      	str	r3, [r7, #16]
 80010c0:	693b      	ldr	r3, [r7, #16]
  __HAL_RCC_GPIOH_CLK_ENABLE();
 80010c2:	2300      	movs	r3, #0
 80010c4:	60fb      	str	r3, [r7, #12]
 80010c6:	4b34      	ldr	r3, [pc, #208]	; (8001198 <MX_GPIO_Init+0x108>)
 80010c8:	6b1b      	ldr	r3, [r3, #48]	; 0x30
 80010ca:	4a33      	ldr	r2, [pc, #204]	; (8001198 <MX_GPIO_Init+0x108>)
 80010cc:	f043 0380 	orr.w	r3, r3, #128	; 0x80
 80010d0:	6313      	str	r3, [r2, #48]	; 0x30
 80010d2:	4b31      	ldr	r3, [pc, #196]	; (8001198 <MX_GPIO_Init+0x108>)
 80010d4:	6b1b      	ldr	r3, [r3, #48]	; 0x30
 80010d6:	f003 0380 	and.w	r3, r3, #128	; 0x80
 80010da:	60fb      	str	r3, [r7, #12]
 80010dc:	68fb      	ldr	r3, [r7, #12]
  __HAL_RCC_GPIOA_CLK_ENABLE();
 80010de:	2300      	movs	r3, #0
 80010e0:	60bb      	str	r3, [r7, #8]
 80010e2:	4b2d      	ldr	r3, [pc, #180]	; (8001198 <MX_GPIO_Init+0x108>)
 80010e4:	6b1b      	ldr	r3, [r3, #48]	; 0x30
 80010e6:	4a2c      	ldr	r2, [pc, #176]	; (8001198 <MX_GPIO_Init+0x108>)
 80010e8:	f043 0301 	orr.w	r3, r3, #1
 80010ec:	6313      	str	r3, [r2, #48]	; 0x30
 80010ee:	4b2a      	ldr	r3, [pc, #168]	; (8001198 <MX_GPIO_Init+0x108>)
 80010f0:	6b1b      	ldr	r3, [r3, #48]	; 0x30
 80010f2:	f003 0301 	and.w	r3, r3, #1
 80010f6:	60bb      	str	r3, [r7, #8]
 80010f8:	68bb      	ldr	r3, [r7, #8]
  __HAL_RCC_GPIOB_CLK_ENABLE();
 80010fa:	2300      	movs	r3, #0
 80010fc:	607b      	str	r3, [r7, #4]
 80010fe:	4b26      	ldr	r3, [pc, #152]	; (8001198 <MX_GPIO_Init+0x108>)
 8001100:	6b1b      	ldr	r3, [r3, #48]	; 0x30
 8001102:	4a25      	ldr	r2, [pc, #148]	; (8001198 <MX_GPIO_Init+0x108>)
 8001104:	f043 0302 	orr.w	r3, r3, #2
 8001108:	6313      	str	r3, [r2, #48]	; 0x30
 800110a:	4b23      	ldr	r3, [pc, #140]	; (8001198 <MX_GPIO_Init+0x108>)
 800110c:	6b1b      	ldr	r3, [r3, #48]	; 0x30
 800110e:	f003 0302 	and.w	r3, r3, #2
 8001112:	607b      	str	r3, [r7, #4]
 8001114:	687b      	ldr	r3, [r7, #4]

  /*Configure GPIO pin Output Level */
  HAL_GPIO_WritePin(LED_GPIO_Port, LED_Pin, GPIO_PIN_RESET);
 8001116:	2200      	movs	r2, #0
 8001118:	f44f 5100 	mov.w	r1, #8192	; 0x2000
 800111c:	481f      	ldr	r0, [pc, #124]	; (800119c <MX_GPIO_Init+0x10c>)
 800111e:	f002 f877 	bl	8003210 <HAL_GPIO_WritePin>

  /*Configure GPIO pin Output Level */
  HAL_GPIO_WritePin(GPIOA, OutEngB_1_Pin|OutEngB_2_Pin|OutEngA_2_Pin, GPIO_PIN_RESET);
 8001122:	2200      	movs	r2, #0
 8001124:	f44f 4106 	mov.w	r1, #34304	; 0x8600
 8001128:	481d      	ldr	r0, [pc, #116]	; (80011a0 <MX_GPIO_Init+0x110>)
 800112a:	f002 f871 	bl	8003210 <HAL_GPIO_WritePin>

  /*Configure GPIO pin Output Level */
  HAL_GPIO_WritePin(OutEngA_1_GPIO_Port, OutEngA_1_Pin, GPIO_PIN_RESET);
 800112e:	2200      	movs	r2, #0
 8001130:	2108      	movs	r1, #8
 8001132:	481c      	ldr	r0, [pc, #112]	; (80011a4 <MX_GPIO_Init+0x114>)
 8001134:	f002 f86c 	bl	8003210 <HAL_GPIO_WritePin>

  /*Configure GPIO pin : LED_Pin */
  GPIO_InitStruct.Pin = LED_Pin;
 8001138:	f44f 5300 	mov.w	r3, #8192	; 0x2000
 800113c:	617b      	str	r3, [r7, #20]
  GPIO_InitStruct.Mode = GPIO_MODE_OUTPUT_PP;
 800113e:	2301      	movs	r3, #1
 8001140:	61bb      	str	r3, [r7, #24]
  GPIO_InitStruct.Pull = GPIO_NOPULL;
 8001142:	2300      	movs	r3, #0
 8001144:	61fb      	str	r3, [r7, #28]
  GPIO_InitStruct.Speed = GPIO_SPEED_FREQ_LOW;
 8001146:	2300      	movs	r3, #0
 8001148:	623b      	str	r3, [r7, #32]
  HAL_GPIO_Init(LED_GPIO_Port, &GPIO_InitStruct);
 800114a:	f107 0314 	add.w	r3, r7, #20
 800114e:	4619      	mov	r1, r3
 8001150:	4812      	ldr	r0, [pc, #72]	; (800119c <MX_GPIO_Init+0x10c>)
 8001152:	f001 fed9 	bl	8002f08 <HAL_GPIO_Init>

  /*Configure GPIO pins : OutEngB_1_Pin OutEngB_2_Pin OutEngA_2_Pin */
  GPIO_InitStruct.Pin = OutEngB_1_Pin|OutEngB_2_Pin|OutEngA_2_Pin;
 8001156:	f44f 4306 	mov.w	r3, #34304	; 0x8600
 800115a:	617b      	str	r3, [r7, #20]
  GPIO_InitStruct.Mode = GPIO_MODE_OUTPUT_PP;
 800115c:	2301      	movs	r3, #1
 800115e:	61bb      	str	r3, [r7, #24]
  GPIO_InitStruct.Pull = GPIO_NOPULL;
 8001160:	2300      	movs	r3, #0
 8001162:	61fb      	str	r3, [r7, #28]
  GPIO_InitStruct.Speed = GPIO_SPEED_FREQ_LOW;
 8001164:	2300      	movs	r3, #0
 8001166:	623b      	str	r3, [r7, #32]
  HAL_GPIO_Init(GPIOA, &GPIO_InitStruct);
 8001168:	f107 0314 	add.w	r3, r7, #20
 800116c:	4619      	mov	r1, r3
 800116e:	480c      	ldr	r0, [pc, #48]	; (80011a0 <MX_GPIO_Init+0x110>)
 8001170:	f001 feca 	bl	8002f08 <HAL_GPIO_Init>

  /*Configure GPIO pin : OutEngA_1_Pin */
  GPIO_InitStruct.Pin = OutEngA_1_Pin;
 8001174:	2308      	movs	r3, #8
 8001176:	617b      	str	r3, [r7, #20]
  GPIO_InitStruct.Mode = GPIO_MODE_OUTPUT_PP;
 8001178:	2301      	movs	r3, #1
 800117a:	61bb      	str	r3, [r7, #24]
  GPIO_InitStruct.Pull = GPIO_NOPULL;
 800117c:	2300      	movs	r3, #0
 800117e:	61fb      	str	r3, [r7, #28]
  GPIO_InitStruct.Speed = GPIO_SPEED_FREQ_LOW;
 8001180:	2300      	movs	r3, #0
 8001182:	623b      	str	r3, [r7, #32]
  HAL_GPIO_Init(OutEngA_1_GPIO_Port, &GPIO_InitStruct);
 8001184:	f107 0314 	add.w	r3, r7, #20
 8001188:	4619      	mov	r1, r3
 800118a:	4806      	ldr	r0, [pc, #24]	; (80011a4 <MX_GPIO_Init+0x114>)
 800118c:	f001 febc 	bl	8002f08 <HAL_GPIO_Init>

/* USER CODE BEGIN MX_GPIO_Init_2 */
/* USER CODE END MX_GPIO_Init_2 */
}
 8001190:	bf00      	nop
 8001192:	3728      	adds	r7, #40	; 0x28
 8001194:	46bd      	mov	sp, r7
 8001196:	bd80      	pop	{r7, pc}
 8001198:	40023800 	.word	0x40023800
 800119c:	40020800 	.word	0x40020800
 80011a0:	40020000 	.word	0x40020000
 80011a4:	40020400 	.word	0x40020400

080011a8 <CommDatafromUSB>:
 * 			UNER = 55 4E 45 52 // Nbytes= 02 // ':' = 3A // Alive= F0 // 0xC4 = checksum
 *
 * @param: *buf, el buffer que posee la informacion para recibirla en el buffer de recepcion
 * @param: length, largo del buffer
 */
void CommDatafromUSB(uint8_t *buf, uint16_t length){
 80011a8:	b480      	push	{r7}
 80011aa:	b085      	sub	sp, #20
 80011ac:	af00      	add	r7, sp, #0
 80011ae:	6078      	str	r0, [r7, #4]
 80011b0:	460b      	mov	r3, r1
 80011b2:	807b      	strh	r3, [r7, #2]

  uint16_t i;

  for (i = 0; i < length; i++) {
 80011b4:	2300      	movs	r3, #0
 80011b6:	81fb      	strh	r3, [r7, #14]
 80011b8:	e012      	b.n	80011e0 <CommDatafromUSB+0x38>
	  datosComSerie.Rx.buffercomm[datosComSerie.Rx.indexWrite] = buf[i];
 80011ba:	89fb      	ldrh	r3, [r7, #14]
 80011bc:	687a      	ldr	r2, [r7, #4]
 80011be:	441a      	add	r2, r3
 80011c0:	4b0d      	ldr	r3, [pc, #52]	; (80011f8 <CommDatafromUSB+0x50>)
 80011c2:	691b      	ldr	r3, [r3, #16]
 80011c4:	490c      	ldr	r1, [pc, #48]	; (80011f8 <CommDatafromUSB+0x50>)
 80011c6:	7b09      	ldrb	r1, [r1, #12]
 80011c8:	440b      	add	r3, r1
 80011ca:	7812      	ldrb	r2, [r2, #0]
 80011cc:	701a      	strb	r2, [r3, #0]
	  datosComSerie.Rx.indexWrite++;
 80011ce:	4b0a      	ldr	r3, [pc, #40]	; (80011f8 <CommDatafromUSB+0x50>)
 80011d0:	7b1b      	ldrb	r3, [r3, #12]
 80011d2:	3301      	adds	r3, #1
 80011d4:	b2da      	uxtb	r2, r3
 80011d6:	4b08      	ldr	r3, [pc, #32]	; (80011f8 <CommDatafromUSB+0x50>)
 80011d8:	731a      	strb	r2, [r3, #12]
  for (i = 0; i < length; i++) {
 80011da:	89fb      	ldrh	r3, [r7, #14]
 80011dc:	3301      	adds	r3, #1
 80011de:	81fb      	strh	r3, [r7, #14]
 80011e0:	89fa      	ldrh	r2, [r7, #14]
 80011e2:	887b      	ldrh	r3, [r7, #2]
 80011e4:	429a      	cmp	r2, r3
 80011e6:	d3e8      	bcc.n	80011ba <CommDatafromUSB+0x12>
  }

}
 80011e8:	bf00      	nop
 80011ea:	bf00      	nop
 80011ec:	3714      	adds	r7, #20
 80011ee:	46bd      	mov	sp, r7
 80011f0:	f85d 7b04 	ldr.w	r7, [sp], #4
 80011f4:	4770      	bx	lr
 80011f6:	bf00      	nop
 80011f8:	20000378 	.word	0x20000378

080011fc <CommComunicationsTask>:

/**
 * @brief: si llegó informacion (CommDatafromUSB) entonces llamo a decodeheader para el analisis del protocolo "UNER"
 *
 */
void CommComunicationsTask(_sDato *datosCom){
 80011fc:	b580      	push	{r7, lr}
 80011fe:	b082      	sub	sp, #8
 8001200:	af00      	add	r7, sp, #0
 8001202:	6078      	str	r0, [r7, #4]
	if(datosCom->Rx.indexRead!=datosCom->Rx.indexWrite ){ /*!< si Recepcion write =! Recepcion read => buffer lleno */
 8001204:	687b      	ldr	r3, [r7, #4]
 8001206:	7b5a      	ldrb	r2, [r3, #13]
 8001208:	687b      	ldr	r3, [r7, #4]
 800120a:	7b1b      	ldrb	r3, [r3, #12]
 800120c:	429a      	cmp	r2, r3
 800120e:	d006      	beq.n	800121e <CommComunicationsTask+0x22>
		CommDecodeHeader(datosCom);
 8001210:	6878      	ldr	r0, [r7, #4]
 8001212:	f7ff fa01 	bl	8000618 <CommDecodeHeader>
		datosCom->Rx.indexRead=datosCom->Rx.indexWrite;
 8001216:	687b      	ldr	r3, [r7, #4]
 8001218:	7b1a      	ldrb	r2, [r3, #12]
 800121a:	687b      	ldr	r3, [r7, #4]
 800121c:	735a      	strb	r2, [r3, #13]
	}

	if(datosCom->Tx.indexRead!=datosCom->Tx.indexWrite ){
 800121e:	687b      	ldr	r3, [r7, #4]
 8001220:	795a      	ldrb	r2, [r3, #5]
 8001222:	687b      	ldr	r3, [r7, #4]
 8001224:	791b      	ldrb	r3, [r3, #4]
 8001226:	429a      	cmp	r2, r3
 8001228:	d02c      	beq.n	8001284 <CommComunicationsTask+0x88>
		if(datosCom->Tx.indexWrite > datosCom->Tx.indexRead){
 800122a:	687b      	ldr	r3, [r7, #4]
 800122c:	791a      	ldrb	r2, [r3, #4]
 800122e:	687b      	ldr	r3, [r7, #4]
 8001230:	795b      	ldrb	r3, [r3, #5]
 8001232:	429a      	cmp	r2, r3
 8001234:	d908      	bls.n	8001248 <CommComunicationsTask+0x4c>
				datosCom->bytesTosend = datosCom->Tx.indexWrite - datosCom->Tx.indexRead;
 8001236:	687b      	ldr	r3, [r7, #4]
 8001238:	791a      	ldrb	r2, [r3, #4]
 800123a:	687b      	ldr	r3, [r7, #4]
 800123c:	795b      	ldrb	r3, [r3, #5]
 800123e:	1ad3      	subs	r3, r2, r3
 8001240:	b2da      	uxtb	r2, r3
 8001242:	687b      	ldr	r3, [r7, #4]
 8001244:	751a      	strb	r2, [r3, #20]
 8001246:	e006      	b.n	8001256 <CommComunicationsTask+0x5a>
		}else{
			datosCom->bytesTosend =  sizeof(datosCom->Rx.buffercomm) - datosCom->Tx.indexRead;
 8001248:	687b      	ldr	r3, [r7, #4]
 800124a:	795b      	ldrb	r3, [r3, #5]
 800124c:	f1c3 0304 	rsb	r3, r3, #4
 8001250:	b2da      	uxtb	r2, r3
 8001252:	687b      	ldr	r3, [r7, #4]
 8001254:	751a      	strb	r2, [r3, #20]
		}
		if(CDC_Transmit_FS(&datosCom->Tx.buffercomm[datosCom->Tx.indexRead], datosCom->bytesTosend) == USBD_OK){ /*!< Paquete enviado hacia QT: 55 4E 45 52   01 	 3A     F0         0D          C8
 8001256:	687b      	ldr	r3, [r7, #4]
 8001258:	689b      	ldr	r3, [r3, #8]
 800125a:	687a      	ldr	r2, [r7, #4]
 800125c:	7952      	ldrb	r2, [r2, #5]
 800125e:	441a      	add	r2, r3
 8001260:	687b      	ldr	r3, [r7, #4]
 8001262:	7d1b      	ldrb	r3, [r3, #20]
 8001264:	b29b      	uxth	r3, r3
 8001266:	4619      	mov	r1, r3
 8001268:	4610      	mov	r0, r2
 800126a:	f009 f93b 	bl	800a4e4 <CDC_Transmit_FS>
 800126e:	4603      	mov	r3, r0
 8001270:	2b00      	cmp	r3, #0
 8001272:	d107      	bne.n	8001284 <CommComunicationsTask+0x88>
							 																												    'U''N''E''R''Nbytes'':''ID:Alive''Payload: ACK''Cheksum'*/
			datosCom->Tx.indexRead += datosCom->bytesTosend;
 8001274:	687b      	ldr	r3, [r7, #4]
 8001276:	795a      	ldrb	r2, [r3, #5]
 8001278:	687b      	ldr	r3, [r7, #4]
 800127a:	7d1b      	ldrb	r3, [r3, #20]
 800127c:	4413      	add	r3, r2
 800127e:	b2da      	uxtb	r2, r3
 8001280:	687b      	ldr	r3, [r7, #4]
 8001282:	715a      	strb	r2, [r3, #5]
		}
	}
}
 8001284:	bf00      	nop
 8001286:	3708      	adds	r7, #8
 8001288:	46bd      	mov	sp, r7
 800128a:	bd80      	pop	{r7, pc}

0800128c <CommDecodeData>:

/**
 * @brief Si el protocolo fue aceptado (CommDecodeHeader), entonces preparo la respuesta segun el ID recibido.
 *
 */
void CommDecodeData(_sDato *datosComLib){
 800128c:	b580      	push	{r7, lr}
 800128e:	b08a      	sub	sp, #40	; 0x28
 8001290:	af00      	add	r7, sp, #0
 8001292:	6078      	str	r0, [r7, #4]
    uint8_t bufAux[20], indiceAux=0,bytes=0;
 8001294:	2300      	movs	r3, #0
 8001296:	f887 3026 	strb.w	r3, [r7, #38]	; 0x26
 800129a:	2300      	movs	r3, #0
 800129c:	f887 3027 	strb.w	r3, [r7, #39]	; 0x27
    uint32_t velL = 0, velR = 0;
 80012a0:	2300      	movs	r3, #0
 80012a2:	623b      	str	r3, [r7, #32]
 80012a4:	2300      	movs	r3, #0
 80012a6:	61fb      	str	r3, [r7, #28]

    switch (datosComLib->Rx.buffercomm[datosComLib->indexStart+2])/*!< ID EN LA POSICION 2, porque es donde se adjunta el byte que te dice "ALIVE, FIRMWARE, ETC" */
 80012a8:	687b      	ldr	r3, [r7, #4]
 80012aa:	691a      	ldr	r2, [r3, #16]
 80012ac:	687b      	ldr	r3, [r7, #4]
 80012ae:	785b      	ldrb	r3, [r3, #1]
 80012b0:	3302      	adds	r3, #2
 80012b2:	4413      	add	r3, r2
 80012b4:	781b      	ldrb	r3, [r3, #0]
 80012b6:	2bf1      	cmp	r3, #241	; 0xf1
 80012b8:	d02a      	beq.n	8001310 <CommDecodeData+0x84>
 80012ba:	2bf1      	cmp	r3, #241	; 0xf1
 80012bc:	f300 8186 	bgt.w	80015cc <CommDecodeData+0x340>
 80012c0:	2bf0      	cmp	r3, #240	; 0xf0
 80012c2:	d00d      	beq.n	80012e0 <CommDecodeData+0x54>
 80012c4:	2bf0      	cmp	r3, #240	; 0xf0
 80012c6:	f300 8181 	bgt.w	80015cc <CommDecodeData+0x340>
 80012ca:	2ba2      	cmp	r3, #162	; 0xa2
 80012cc:	f000 80b6 	beq.w	800143c <CommDecodeData+0x1b0>
 80012d0:	2ba2      	cmp	r3, #162	; 0xa2
 80012d2:	f300 817b 	bgt.w	80015cc <CommDecodeData+0x340>
 80012d6:	2ba0      	cmp	r3, #160	; 0xa0
 80012d8:	d028      	beq.n	800132c <CommDecodeData+0xa0>
 80012da:	2ba1      	cmp	r3, #161	; 0xa1
 80012dc:	d053      	beq.n	8001386 <CommDecodeData+0xfa>
 80012de:	e175      	b.n	80015cc <CommDecodeData+0x340>
    {

	case ALIVE:
		bufAux[indiceAux++] = ALIVE;   	/*!< ID de respuesta */
 80012e0:	f897 3026 	ldrb.w	r3, [r7, #38]	; 0x26
 80012e4:	1c5a      	adds	r2, r3, #1
 80012e6:	f887 2026 	strb.w	r2, [r7, #38]	; 0x26
 80012ea:	3328      	adds	r3, #40	; 0x28
 80012ec:	443b      	add	r3, r7
 80012ee:	22f0      	movs	r2, #240	; 0xf0
 80012f0:	f803 2c20 	strb.w	r2, [r3, #-32]
		bufAux[indiceAux++] = 0x0D;    	/*!< Respuesta: ACK */
 80012f4:	f897 3026 	ldrb.w	r3, [r7, #38]	; 0x26
 80012f8:	1c5a      	adds	r2, r3, #1
 80012fa:	f887 2026 	strb.w	r2, [r7, #38]	; 0x26
 80012fe:	3328      	adds	r3, #40	; 0x28
 8001300:	443b      	add	r3, r7
 8001302:	220d      	movs	r2, #13
 8001304:	f803 2c20 	strb.w	r2, [r3, #-32]
		bytes = 0x03;        			/*!< NBYTES = 3 (ID + Dato + Checksum) */
 8001308:	2303      	movs	r3, #3
 800130a:	f887 3027 	strb.w	r3, [r7, #39]	; 0x27
	break;
 800130e:	e16b      	b.n	80015e8 <CommDecodeData+0x35c>

    case FIRMWARE:
		bufAux[indiceAux++]=FIRMWARE;
 8001310:	f897 3026 	ldrb.w	r3, [r7, #38]	; 0x26
 8001314:	1c5a      	adds	r2, r3, #1
 8001316:	f887 2026 	strb.w	r2, [r7, #38]	; 0x26
 800131a:	3328      	adds	r3, #40	; 0x28
 800131c:	443b      	add	r3, r7
 800131e:	22f1      	movs	r2, #241	; 0xf1
 8001320:	f803 2c20 	strb.w	r2, [r3, #-32]
		bytes=0x02;
 8001324:	2302      	movs	r3, #2
 8001326:	f887 3027 	strb.w	r3, [r7, #39]	; 0x27
    break;
 800132a:	e15d      	b.n	80015e8 <CommDecodeData+0x35c>

    break;

    case IR:
        bufAux[indiceAux++] = IR;
 800132c:	f897 3026 	ldrb.w	r3, [r7, #38]	; 0x26
 8001330:	1c5a      	adds	r2, r3, #1
 8001332:	f887 2026 	strb.w	r2, [r7, #38]	; 0x26
 8001336:	3328      	adds	r3, #40	; 0x28
 8001338:	443b      	add	r3, r7
 800133a:	22a0      	movs	r2, #160	; 0xa0
 800133c:	f803 2c20 	strb.w	r2, [r3, #-32]
        w.u16[0] = sensorIR.bufferADCvalue[0];
 8001340:	4baf      	ldr	r3, [pc, #700]	; (8001600 <CommDecodeData+0x374>)
 8001342:	681b      	ldr	r3, [r3, #0]
 8001344:	b29a      	uxth	r2, r3
 8001346:	4baf      	ldr	r3, [pc, #700]	; (8001604 <CommDecodeData+0x378>)
 8001348:	801a      	strh	r2, [r3, #0]
        bufAux[indiceAux++] = w.u8[0];  // LSB
 800134a:	f897 3026 	ldrb.w	r3, [r7, #38]	; 0x26
 800134e:	1c5a      	adds	r2, r3, #1
 8001350:	f887 2026 	strb.w	r2, [r7, #38]	; 0x26
 8001354:	4619      	mov	r1, r3
 8001356:	4bab      	ldr	r3, [pc, #684]	; (8001604 <CommDecodeData+0x378>)
 8001358:	781a      	ldrb	r2, [r3, #0]
 800135a:	f101 0328 	add.w	r3, r1, #40	; 0x28
 800135e:	443b      	add	r3, r7
 8001360:	f803 2c20 	strb.w	r2, [r3, #-32]
        bufAux[indiceAux++] = w.u8[1];  // MSB
 8001364:	f897 3026 	ldrb.w	r3, [r7, #38]	; 0x26
 8001368:	1c5a      	adds	r2, r3, #1
 800136a:	f887 2026 	strb.w	r2, [r7, #38]	; 0x26
 800136e:	4619      	mov	r1, r3
 8001370:	4ba4      	ldr	r3, [pc, #656]	; (8001604 <CommDecodeData+0x378>)
 8001372:	785a      	ldrb	r2, [r3, #1]
 8001374:	f101 0328 	add.w	r3, r1, #40	; 0x28
 8001378:	443b      	add	r3, r7
 800137a:	f803 2c20 	strb.w	r2, [r3, #-32]
        bytes = 4; // 1 byte para ID, 2 bytes por canal + Cks
 800137e:	2304      	movs	r3, #4
 8001380:	f887 3027 	strb.w	r3, [r7, #39]	; 0x27

//        for (uint8_t i = 0; i < NUM_CHANNELS_ADC; i++) {

//        }

	break;
 8001384:	e130      	b.n	80015e8 <CommDecodeData+0x35c>

    case MOTOR:

        w.u8[0] = datosComLib->Rx.buffercomm[datosComLib->indexStart+3];
 8001386:	687b      	ldr	r3, [r7, #4]
 8001388:	691a      	ldr	r2, [r3, #16]
 800138a:	687b      	ldr	r3, [r7, #4]
 800138c:	785b      	ldrb	r3, [r3, #1]
 800138e:	3303      	adds	r3, #3
 8001390:	4413      	add	r3, r2
 8001392:	781a      	ldrb	r2, [r3, #0]
 8001394:	4b9b      	ldr	r3, [pc, #620]	; (8001604 <CommDecodeData+0x378>)
 8001396:	701a      	strb	r2, [r3, #0]
        w.u8[1] = datosComLib->Rx.buffercomm[datosComLib->indexStart+4];
 8001398:	687b      	ldr	r3, [r7, #4]
 800139a:	691a      	ldr	r2, [r3, #16]
 800139c:	687b      	ldr	r3, [r7, #4]
 800139e:	785b      	ldrb	r3, [r3, #1]
 80013a0:	3304      	adds	r3, #4
 80013a2:	4413      	add	r3, r2
 80013a4:	781a      	ldrb	r2, [r3, #0]
 80013a6:	4b97      	ldr	r3, [pc, #604]	; (8001604 <CommDecodeData+0x378>)
 80013a8:	705a      	strb	r2, [r3, #1]
        w.u8[2] = datosComLib->Rx.buffercomm[datosComLib->indexStart+5];
 80013aa:	687b      	ldr	r3, [r7, #4]
 80013ac:	691a      	ldr	r2, [r3, #16]
 80013ae:	687b      	ldr	r3, [r7, #4]
 80013b0:	785b      	ldrb	r3, [r3, #1]
 80013b2:	3305      	adds	r3, #5
 80013b4:	4413      	add	r3, r2
 80013b6:	781a      	ldrb	r2, [r3, #0]
 80013b8:	4b92      	ldr	r3, [pc, #584]	; (8001604 <CommDecodeData+0x378>)
 80013ba:	709a      	strb	r2, [r3, #2]
        w.u8[3] = datosComLib->Rx.buffercomm[datosComLib->indexStart+6];
 80013bc:	687b      	ldr	r3, [r7, #4]
 80013be:	691a      	ldr	r2, [r3, #16]
 80013c0:	687b      	ldr	r3, [r7, #4]
 80013c2:	785b      	ldrb	r3, [r3, #1]
 80013c4:	3306      	adds	r3, #6
 80013c6:	4413      	add	r3, r2
 80013c8:	781a      	ldrb	r2, [r3, #0]
 80013ca:	4b8e      	ldr	r3, [pc, #568]	; (8001604 <CommDecodeData+0x378>)
 80013cc:	70da      	strb	r2, [r3, #3]
        velL = w.i32;
 80013ce:	4b8d      	ldr	r3, [pc, #564]	; (8001604 <CommDecodeData+0x378>)
 80013d0:	681b      	ldr	r3, [r3, #0]
 80013d2:	623b      	str	r3, [r7, #32]

        w.u8[0] = datosComLib->Rx.buffercomm[datosComLib->indexStart+7];
 80013d4:	687b      	ldr	r3, [r7, #4]
 80013d6:	691a      	ldr	r2, [r3, #16]
 80013d8:	687b      	ldr	r3, [r7, #4]
 80013da:	785b      	ldrb	r3, [r3, #1]
 80013dc:	3307      	adds	r3, #7
 80013de:	4413      	add	r3, r2
 80013e0:	781a      	ldrb	r2, [r3, #0]
 80013e2:	4b88      	ldr	r3, [pc, #544]	; (8001604 <CommDecodeData+0x378>)
 80013e4:	701a      	strb	r2, [r3, #0]
        w.u8[1] = datosComLib->Rx.buffercomm[datosComLib->indexStart+8];
 80013e6:	687b      	ldr	r3, [r7, #4]
 80013e8:	691a      	ldr	r2, [r3, #16]
 80013ea:	687b      	ldr	r3, [r7, #4]
 80013ec:	785b      	ldrb	r3, [r3, #1]
 80013ee:	3308      	adds	r3, #8
 80013f0:	4413      	add	r3, r2
 80013f2:	781a      	ldrb	r2, [r3, #0]
 80013f4:	4b83      	ldr	r3, [pc, #524]	; (8001604 <CommDecodeData+0x378>)
 80013f6:	705a      	strb	r2, [r3, #1]
        w.u8[2] = datosComLib->Rx.buffercomm[datosComLib->indexStart+9];
 80013f8:	687b      	ldr	r3, [r7, #4]
 80013fa:	691a      	ldr	r2, [r3, #16]
 80013fc:	687b      	ldr	r3, [r7, #4]
 80013fe:	785b      	ldrb	r3, [r3, #1]
 8001400:	3309      	adds	r3, #9
 8001402:	4413      	add	r3, r2
 8001404:	781a      	ldrb	r2, [r3, #0]
 8001406:	4b7f      	ldr	r3, [pc, #508]	; (8001604 <CommDecodeData+0x378>)
 8001408:	709a      	strb	r2, [r3, #2]
        w.u8[3] = datosComLib->Rx.buffercomm[datosComLib->indexStart+10];
 800140a:	687b      	ldr	r3, [r7, #4]
 800140c:	691a      	ldr	r2, [r3, #16]
 800140e:	687b      	ldr	r3, [r7, #4]
 8001410:	785b      	ldrb	r3, [r3, #1]
 8001412:	330a      	adds	r3, #10
 8001414:	4413      	add	r3, r2
 8001416:	781a      	ldrb	r2, [r3, #0]
 8001418:	4b7a      	ldr	r3, [pc, #488]	; (8001604 <CommDecodeData+0x378>)
 800141a:	70da      	strb	r2, [r3, #3]
        velR = w.i32;
 800141c:	4b79      	ldr	r3, [pc, #484]	; (8001604 <CommDecodeData+0x378>)
 800141e:	681b      	ldr	r3, [r3, #0]
 8001420:	61fb      	str	r3, [r7, #28]

        en_HandlerENG(&motorL, velL, 0);
 8001422:	6a3b      	ldr	r3, [r7, #32]
 8001424:	2200      	movs	r2, #0
 8001426:	4619      	mov	r1, r3
 8001428:	4877      	ldr	r0, [pc, #476]	; (8001608 <CommDecodeData+0x37c>)
 800142a:	f7ff f86f 	bl	800050c <en_HandlerENG>
        en_HandlerENG(&motorR, velR, 0);
 800142e:	69fb      	ldr	r3, [r7, #28]
 8001430:	2200      	movs	r2, #0
 8001432:	4619      	mov	r1, r3
 8001434:	4875      	ldr	r0, [pc, #468]	; (800160c <CommDecodeData+0x380>)
 8001436:	f7ff f869 	bl	800050c <en_HandlerENG>
//        bufAux[indiceAux++] = w.u8[2];
//        bufAux[indiceAux++] = w.u8[3];
//
//        bytes = 2 + 8; // ID + cks + velL + velR

	break;
 800143a:	e0d5      	b.n	80015e8 <CommDecodeData+0x35c>

    case MPUData:
    	bufAux[indiceAux++] = MPUData;
 800143c:	f897 3026 	ldrb.w	r3, [r7, #38]	; 0x26
 8001440:	1c5a      	adds	r2, r3, #1
 8001442:	f887 2026 	strb.w	r2, [r7, #38]	; 0x26
 8001446:	3328      	adds	r3, #40	; 0x28
 8001448:	443b      	add	r3, r7
 800144a:	22a2      	movs	r2, #162	; 0xa2
 800144c:	f803 2c20 	strb.w	r2, [r3, #-32]
    	// Aceleracion
    	w.i16[0] = DatosMPU.x.accel;
 8001450:	4b6f      	ldr	r3, [pc, #444]	; (8001610 <CommDecodeData+0x384>)
 8001452:	f9b3 2000 	ldrsh.w	r2, [r3]
 8001456:	4b6b      	ldr	r3, [pc, #428]	; (8001604 <CommDecodeData+0x378>)
 8001458:	801a      	strh	r2, [r3, #0]
    	bufAux[indiceAux++] = w.u8[0];
 800145a:	f897 3026 	ldrb.w	r3, [r7, #38]	; 0x26
 800145e:	1c5a      	adds	r2, r3, #1
 8001460:	f887 2026 	strb.w	r2, [r7, #38]	; 0x26
 8001464:	4619      	mov	r1, r3
 8001466:	4b67      	ldr	r3, [pc, #412]	; (8001604 <CommDecodeData+0x378>)
 8001468:	781a      	ldrb	r2, [r3, #0]
 800146a:	f101 0328 	add.w	r3, r1, #40	; 0x28
 800146e:	443b      	add	r3, r7
 8001470:	f803 2c20 	strb.w	r2, [r3, #-32]
    	bufAux[indiceAux++] = w.u8[1];
 8001474:	f897 3026 	ldrb.w	r3, [r7, #38]	; 0x26
 8001478:	1c5a      	adds	r2, r3, #1
 800147a:	f887 2026 	strb.w	r2, [r7, #38]	; 0x26
 800147e:	4619      	mov	r1, r3
 8001480:	4b60      	ldr	r3, [pc, #384]	; (8001604 <CommDecodeData+0x378>)
 8001482:	785a      	ldrb	r2, [r3, #1]
 8001484:	f101 0328 	add.w	r3, r1, #40	; 0x28
 8001488:	443b      	add	r3, r7
 800148a:	f803 2c20 	strb.w	r2, [r3, #-32]

    	w.i16[0] = DatosMPU.y.accel;
 800148e:	4b60      	ldr	r3, [pc, #384]	; (8001610 <CommDecodeData+0x384>)
 8001490:	f9b3 2010 	ldrsh.w	r2, [r3, #16]
 8001494:	4b5b      	ldr	r3, [pc, #364]	; (8001604 <CommDecodeData+0x378>)
 8001496:	801a      	strh	r2, [r3, #0]
    	bufAux[indiceAux++] = w.u8[0];
 8001498:	f897 3026 	ldrb.w	r3, [r7, #38]	; 0x26
 800149c:	1c5a      	adds	r2, r3, #1
 800149e:	f887 2026 	strb.w	r2, [r7, #38]	; 0x26
 80014a2:	4619      	mov	r1, r3
 80014a4:	4b57      	ldr	r3, [pc, #348]	; (8001604 <CommDecodeData+0x378>)
 80014a6:	781a      	ldrb	r2, [r3, #0]
 80014a8:	f101 0328 	add.w	r3, r1, #40	; 0x28
 80014ac:	443b      	add	r3, r7
 80014ae:	f803 2c20 	strb.w	r2, [r3, #-32]
    	bufAux[indiceAux++] = w.u8[1];
 80014b2:	f897 3026 	ldrb.w	r3, [r7, #38]	; 0x26
 80014b6:	1c5a      	adds	r2, r3, #1
 80014b8:	f887 2026 	strb.w	r2, [r7, #38]	; 0x26
 80014bc:	4619      	mov	r1, r3
 80014be:	4b51      	ldr	r3, [pc, #324]	; (8001604 <CommDecodeData+0x378>)
 80014c0:	785a      	ldrb	r2, [r3, #1]
 80014c2:	f101 0328 	add.w	r3, r1, #40	; 0x28
 80014c6:	443b      	add	r3, r7
 80014c8:	f803 2c20 	strb.w	r2, [r3, #-32]

    	w.i16[0] = DatosMPU.z.accel;
 80014cc:	4b50      	ldr	r3, [pc, #320]	; (8001610 <CommDecodeData+0x384>)
 80014ce:	f9b3 2020 	ldrsh.w	r2, [r3, #32]
 80014d2:	4b4c      	ldr	r3, [pc, #304]	; (8001604 <CommDecodeData+0x378>)
 80014d4:	801a      	strh	r2, [r3, #0]
    	bufAux[indiceAux++] = w.u8[0];
 80014d6:	f897 3026 	ldrb.w	r3, [r7, #38]	; 0x26
 80014da:	1c5a      	adds	r2, r3, #1
 80014dc:	f887 2026 	strb.w	r2, [r7, #38]	; 0x26
 80014e0:	4619      	mov	r1, r3
 80014e2:	4b48      	ldr	r3, [pc, #288]	; (8001604 <CommDecodeData+0x378>)
 80014e4:	781a      	ldrb	r2, [r3, #0]
 80014e6:	f101 0328 	add.w	r3, r1, #40	; 0x28
 80014ea:	443b      	add	r3, r7
 80014ec:	f803 2c20 	strb.w	r2, [r3, #-32]
    	bufAux[indiceAux++] = w.u8[1];
 80014f0:	f897 3026 	ldrb.w	r3, [r7, #38]	; 0x26
 80014f4:	1c5a      	adds	r2, r3, #1
 80014f6:	f887 2026 	strb.w	r2, [r7, #38]	; 0x26
 80014fa:	4619      	mov	r1, r3
 80014fc:	4b41      	ldr	r3, [pc, #260]	; (8001604 <CommDecodeData+0x378>)
 80014fe:	785a      	ldrb	r2, [r3, #1]
 8001500:	f101 0328 	add.w	r3, r1, #40	; 0x28
 8001504:	443b      	add	r3, r7
 8001506:	f803 2c20 	strb.w	r2, [r3, #-32]

    	// Giroscopio
    	w.i16[0] = DatosMPU.x.gyro;
 800150a:	4b41      	ldr	r3, [pc, #260]	; (8001610 <CommDecodeData+0x384>)
 800150c:	f9b3 2002 	ldrsh.w	r2, [r3, #2]
 8001510:	4b3c      	ldr	r3, [pc, #240]	; (8001604 <CommDecodeData+0x378>)
 8001512:	801a      	strh	r2, [r3, #0]
    	bufAux[indiceAux++] = w.u8[0];
 8001514:	f897 3026 	ldrb.w	r3, [r7, #38]	; 0x26
 8001518:	1c5a      	adds	r2, r3, #1
 800151a:	f887 2026 	strb.w	r2, [r7, #38]	; 0x26
 800151e:	4619      	mov	r1, r3
 8001520:	4b38      	ldr	r3, [pc, #224]	; (8001604 <CommDecodeData+0x378>)
 8001522:	781a      	ldrb	r2, [r3, #0]
 8001524:	f101 0328 	add.w	r3, r1, #40	; 0x28
 8001528:	443b      	add	r3, r7
 800152a:	f803 2c20 	strb.w	r2, [r3, #-32]
    	bufAux[indiceAux++] = w.u8[1];
 800152e:	f897 3026 	ldrb.w	r3, [r7, #38]	; 0x26
 8001532:	1c5a      	adds	r2, r3, #1
 8001534:	f887 2026 	strb.w	r2, [r7, #38]	; 0x26
 8001538:	4619      	mov	r1, r3
 800153a:	4b32      	ldr	r3, [pc, #200]	; (8001604 <CommDecodeData+0x378>)
 800153c:	785a      	ldrb	r2, [r3, #1]
 800153e:	f101 0328 	add.w	r3, r1, #40	; 0x28
 8001542:	443b      	add	r3, r7
 8001544:	f803 2c20 	strb.w	r2, [r3, #-32]

    	w.i16[0] = DatosMPU.y.gyro;
 8001548:	4b31      	ldr	r3, [pc, #196]	; (8001610 <CommDecodeData+0x384>)
 800154a:	f9b3 2012 	ldrsh.w	r2, [r3, #18]
 800154e:	4b2d      	ldr	r3, [pc, #180]	; (8001604 <CommDecodeData+0x378>)
 8001550:	801a      	strh	r2, [r3, #0]
    	bufAux[indiceAux++] = w.u8[0];
 8001552:	f897 3026 	ldrb.w	r3, [r7, #38]	; 0x26
 8001556:	1c5a      	adds	r2, r3, #1
 8001558:	f887 2026 	strb.w	r2, [r7, #38]	; 0x26
 800155c:	4619      	mov	r1, r3
 800155e:	4b29      	ldr	r3, [pc, #164]	; (8001604 <CommDecodeData+0x378>)
 8001560:	781a      	ldrb	r2, [r3, #0]
 8001562:	f101 0328 	add.w	r3, r1, #40	; 0x28
 8001566:	443b      	add	r3, r7
 8001568:	f803 2c20 	strb.w	r2, [r3, #-32]
    	bufAux[indiceAux++] = w.u8[1];
 800156c:	f897 3026 	ldrb.w	r3, [r7, #38]	; 0x26
 8001570:	1c5a      	adds	r2, r3, #1
 8001572:	f887 2026 	strb.w	r2, [r7, #38]	; 0x26
 8001576:	4619      	mov	r1, r3
 8001578:	4b22      	ldr	r3, [pc, #136]	; (8001604 <CommDecodeData+0x378>)
 800157a:	785a      	ldrb	r2, [r3, #1]
 800157c:	f101 0328 	add.w	r3, r1, #40	; 0x28
 8001580:	443b      	add	r3, r7
 8001582:	f803 2c20 	strb.w	r2, [r3, #-32]

    	w.i16[0] = DatosMPU.z.gyro;
 8001586:	4b22      	ldr	r3, [pc, #136]	; (8001610 <CommDecodeData+0x384>)
 8001588:	f9b3 2022 	ldrsh.w	r2, [r3, #34]	; 0x22
 800158c:	4b1d      	ldr	r3, [pc, #116]	; (8001604 <CommDecodeData+0x378>)
 800158e:	801a      	strh	r2, [r3, #0]
    	bufAux[indiceAux++] = w.u8[0];
 8001590:	f897 3026 	ldrb.w	r3, [r7, #38]	; 0x26
 8001594:	1c5a      	adds	r2, r3, #1
 8001596:	f887 2026 	strb.w	r2, [r7, #38]	; 0x26
 800159a:	4619      	mov	r1, r3
 800159c:	4b19      	ldr	r3, [pc, #100]	; (8001604 <CommDecodeData+0x378>)
 800159e:	781a      	ldrb	r2, [r3, #0]
 80015a0:	f101 0328 	add.w	r3, r1, #40	; 0x28
 80015a4:	443b      	add	r3, r7
 80015a6:	f803 2c20 	strb.w	r2, [r3, #-32]
    	bufAux[indiceAux++] = w.u8[1];
 80015aa:	f897 3026 	ldrb.w	r3, [r7, #38]	; 0x26
 80015ae:	1c5a      	adds	r2, r3, #1
 80015b0:	f887 2026 	strb.w	r2, [r7, #38]	; 0x26
 80015b4:	4619      	mov	r1, r3
 80015b6:	4b13      	ldr	r3, [pc, #76]	; (8001604 <CommDecodeData+0x378>)
 80015b8:	785a      	ldrb	r2, [r3, #1]
 80015ba:	f101 0328 	add.w	r3, r1, #40	; 0x28
 80015be:	443b      	add	r3, r7
 80015c0:	f803 2c20 	strb.w	r2, [r3, #-32]

    	bytes = 14;
 80015c4:	230e      	movs	r3, #14
 80015c6:	f887 3027 	strb.w	r3, [r7, #39]	; 0x27


    break;
 80015ca:	e00d      	b.n	80015e8 <CommDecodeData+0x35c>


    default:
        bufAux[indiceAux++]=0xFF;
 80015cc:	f897 3026 	ldrb.w	r3, [r7, #38]	; 0x26
 80015d0:	1c5a      	adds	r2, r3, #1
 80015d2:	f887 2026 	strb.w	r2, [r7, #38]	; 0x26
 80015d6:	3328      	adds	r3, #40	; 0x28
 80015d8:	443b      	add	r3, r7
 80015da:	22ff      	movs	r2, #255	; 0xff
 80015dc:	f803 2c20 	strb.w	r2, [r3, #-32]
        bytes=0x02;
 80015e0:	2302      	movs	r3, #2
 80015e2:	f887 3027 	strb.w	r3, [r7, #39]	; 0x27
    break;
 80015e6:	bf00      	nop
    }

    CommSendInfo(datosComLib,bufAux,bytes);
 80015e8:	f897 2027 	ldrb.w	r2, [r7, #39]	; 0x27
 80015ec:	f107 0308 	add.w	r3, r7, #8
 80015f0:	4619      	mov	r1, r3
 80015f2:	6878      	ldr	r0, [r7, #4]
 80015f4:	f7ff f90c 	bl	8000810 <CommSendInfo>
}
 80015f8:	bf00      	nop
 80015fa:	3728      	adds	r7, #40	; 0x28
 80015fc:	46bd      	mov	sp, r7
 80015fe:	bd80      	pop	{r7, pc}
 8001600:	20000394 	.word	0x20000394
 8001604:	20000374 	.word	0x20000374
 8001608:	200003c4 	.word	0x200003c4
 800160c:	200003d8 	.word	0x200003d8
 8001610:	200003ec 	.word	0x200003ec

08001614 <MotorL_SetPIN>:

/**
 * @brief Seteo los pines segun el estado de los motores (Adelante, atras, freno, libre)
 */
void MotorL_SetPIN(_eEngState estado){
 8001614:	b580      	push	{r7, lr}
 8001616:	b082      	sub	sp, #8
 8001618:	af00      	add	r7, sp, #0
 800161a:	4603      	mov	r3, r0
 800161c:	71fb      	strb	r3, [r7, #7]
	switch(motorL.estado){
 800161e:	4b22      	ldr	r3, [pc, #136]	; (80016a8 <MotorL_SetPIN+0x94>)
 8001620:	781b      	ldrb	r3, [r3, #0]
 8001622:	2b03      	cmp	r3, #3
 8001624:	d83a      	bhi.n	800169c <MotorL_SetPIN+0x88>
 8001626:	a201      	add	r2, pc, #4	; (adr r2, 800162c <MotorL_SetPIN+0x18>)
 8001628:	f852 f023 	ldr.w	pc, [r2, r3, lsl #2]
 800162c:	08001655 	.word	0x08001655
 8001630:	0800166d 	.word	0x0800166d
 8001634:	08001685 	.word	0x08001685
 8001638:	0800163d 	.word	0x0800163d
		case BRAKE:
			HAL_GPIO_WritePin(OutEngA_1_GPIO_Port, OutEngA_1_Pin, 1);
 800163c:	2201      	movs	r2, #1
 800163e:	2108      	movs	r1, #8
 8001640:	481a      	ldr	r0, [pc, #104]	; (80016ac <MotorL_SetPIN+0x98>)
 8001642:	f001 fde5 	bl	8003210 <HAL_GPIO_WritePin>
			HAL_GPIO_WritePin(OutEngA_2_GPIO_Port, OutEngA_2_Pin, 1);
 8001646:	2201      	movs	r2, #1
 8001648:	f44f 4100 	mov.w	r1, #32768	; 0x8000
 800164c:	4818      	ldr	r0, [pc, #96]	; (80016b0 <MotorL_SetPIN+0x9c>)
 800164e:	f001 fddf 	bl	8003210 <HAL_GPIO_WritePin>
			break;
 8001652:	e024      	b.n	800169e <MotorL_SetPIN+0x8a>

		case FRONT:
			HAL_GPIO_WritePin(OutEngA_1_GPIO_Port, OutEngA_1_Pin, 1);
 8001654:	2201      	movs	r2, #1
 8001656:	2108      	movs	r1, #8
 8001658:	4814      	ldr	r0, [pc, #80]	; (80016ac <MotorL_SetPIN+0x98>)
 800165a:	f001 fdd9 	bl	8003210 <HAL_GPIO_WritePin>
			HAL_GPIO_WritePin(OutEngA_2_GPIO_Port, OutEngA_2_Pin, 0);
 800165e:	2200      	movs	r2, #0
 8001660:	f44f 4100 	mov.w	r1, #32768	; 0x8000
 8001664:	4812      	ldr	r0, [pc, #72]	; (80016b0 <MotorL_SetPIN+0x9c>)
 8001666:	f001 fdd3 	bl	8003210 <HAL_GPIO_WritePin>
			break;
 800166a:	e018      	b.n	800169e <MotorL_SetPIN+0x8a>

		case BACK:
			HAL_GPIO_WritePin(OutEngA_1_GPIO_Port, OutEngA_1_Pin, 0);
 800166c:	2200      	movs	r2, #0
 800166e:	2108      	movs	r1, #8
 8001670:	480e      	ldr	r0, [pc, #56]	; (80016ac <MotorL_SetPIN+0x98>)
 8001672:	f001 fdcd 	bl	8003210 <HAL_GPIO_WritePin>
			HAL_GPIO_WritePin(OutEngA_2_GPIO_Port, OutEngA_2_Pin, 1);
 8001676:	2201      	movs	r2, #1
 8001678:	f44f 4100 	mov.w	r1, #32768	; 0x8000
 800167c:	480c      	ldr	r0, [pc, #48]	; (80016b0 <MotorL_SetPIN+0x9c>)
 800167e:	f001 fdc7 	bl	8003210 <HAL_GPIO_WritePin>
			break;
 8001682:	e00c      	b.n	800169e <MotorL_SetPIN+0x8a>

		case FREE:
			HAL_GPIO_WritePin(OutEngA_1_GPIO_Port, OutEngA_1_Pin, 0);
 8001684:	2200      	movs	r2, #0
 8001686:	2108      	movs	r1, #8
 8001688:	4808      	ldr	r0, [pc, #32]	; (80016ac <MotorL_SetPIN+0x98>)
 800168a:	f001 fdc1 	bl	8003210 <HAL_GPIO_WritePin>
			HAL_GPIO_WritePin(OutEngA_2_GPIO_Port, OutEngA_2_Pin, 0);
 800168e:	2200      	movs	r2, #0
 8001690:	f44f 4100 	mov.w	r1, #32768	; 0x8000
 8001694:	4806      	ldr	r0, [pc, #24]	; (80016b0 <MotorL_SetPIN+0x9c>)
 8001696:	f001 fdbb 	bl	8003210 <HAL_GPIO_WritePin>
			break;
 800169a:	e000      	b.n	800169e <MotorL_SetPIN+0x8a>
		default:
			break;
 800169c:	bf00      	nop
	}
}
 800169e:	bf00      	nop
 80016a0:	3708      	adds	r7, #8
 80016a2:	46bd      	mov	sp, r7
 80016a4:	bd80      	pop	{r7, pc}
 80016a6:	bf00      	nop
 80016a8:	200003c4 	.word	0x200003c4
 80016ac:	40020400 	.word	0x40020400
 80016b0:	40020000 	.word	0x40020000

080016b4 <MotorR_SetPIN>:
void MotorR_SetPIN(_eEngState estado){
 80016b4:	b580      	push	{r7, lr}
 80016b6:	b082      	sub	sp, #8
 80016b8:	af00      	add	r7, sp, #0
 80016ba:	4603      	mov	r3, r0
 80016bc:	71fb      	strb	r3, [r7, #7]
	switch(motorR.estado){
 80016be:	4b24      	ldr	r3, [pc, #144]	; (8001750 <MotorR_SetPIN+0x9c>)
 80016c0:	781b      	ldrb	r3, [r3, #0]
 80016c2:	2b03      	cmp	r3, #3
 80016c4:	d83e      	bhi.n	8001744 <MotorR_SetPIN+0x90>
 80016c6:	a201      	add	r2, pc, #4	; (adr r2, 80016cc <MotorR_SetPIN+0x18>)
 80016c8:	f852 f023 	ldr.w	pc, [r2, r3, lsl #2]
 80016cc:	080016f7 	.word	0x080016f7
 80016d0:	08001711 	.word	0x08001711
 80016d4:	0800172b 	.word	0x0800172b
 80016d8:	080016dd 	.word	0x080016dd
		case BRAKE:
			HAL_GPIO_WritePin(OutEngB_1_GPIO_Port, OutEngB_1_Pin, 1);
 80016dc:	2201      	movs	r2, #1
 80016de:	f44f 7100 	mov.w	r1, #512	; 0x200
 80016e2:	481c      	ldr	r0, [pc, #112]	; (8001754 <MotorR_SetPIN+0xa0>)
 80016e4:	f001 fd94 	bl	8003210 <HAL_GPIO_WritePin>
			HAL_GPIO_WritePin(OutEngB_2_GPIO_Port, OutEngB_2_Pin, 1);
 80016e8:	2201      	movs	r2, #1
 80016ea:	f44f 6180 	mov.w	r1, #1024	; 0x400
 80016ee:	4819      	ldr	r0, [pc, #100]	; (8001754 <MotorR_SetPIN+0xa0>)
 80016f0:	f001 fd8e 	bl	8003210 <HAL_GPIO_WritePin>
			break;
 80016f4:	e027      	b.n	8001746 <MotorR_SetPIN+0x92>

		case FRONT:
			HAL_GPIO_WritePin(OutEngB_1_GPIO_Port, OutEngB_1_Pin, 1);
 80016f6:	2201      	movs	r2, #1
 80016f8:	f44f 7100 	mov.w	r1, #512	; 0x200
 80016fc:	4815      	ldr	r0, [pc, #84]	; (8001754 <MotorR_SetPIN+0xa0>)
 80016fe:	f001 fd87 	bl	8003210 <HAL_GPIO_WritePin>
			HAL_GPIO_WritePin(OutEngB_2_GPIO_Port, OutEngB_2_Pin, 0);
 8001702:	2200      	movs	r2, #0
 8001704:	f44f 6180 	mov.w	r1, #1024	; 0x400
 8001708:	4812      	ldr	r0, [pc, #72]	; (8001754 <MotorR_SetPIN+0xa0>)
 800170a:	f001 fd81 	bl	8003210 <HAL_GPIO_WritePin>
			break;
 800170e:	e01a      	b.n	8001746 <MotorR_SetPIN+0x92>

		case BACK:
			HAL_GPIO_WritePin(OutEngB_1_GPIO_Port, OutEngB_1_Pin, 0);
 8001710:	2200      	movs	r2, #0
 8001712:	f44f 7100 	mov.w	r1, #512	; 0x200
 8001716:	480f      	ldr	r0, [pc, #60]	; (8001754 <MotorR_SetPIN+0xa0>)
 8001718:	f001 fd7a 	bl	8003210 <HAL_GPIO_WritePin>
			HAL_GPIO_WritePin(OutEngB_2_GPIO_Port, OutEngB_2_Pin, 1);
 800171c:	2201      	movs	r2, #1
 800171e:	f44f 6180 	mov.w	r1, #1024	; 0x400
 8001722:	480c      	ldr	r0, [pc, #48]	; (8001754 <MotorR_SetPIN+0xa0>)
 8001724:	f001 fd74 	bl	8003210 <HAL_GPIO_WritePin>
			break;
 8001728:	e00d      	b.n	8001746 <MotorR_SetPIN+0x92>

		case FREE:
			HAL_GPIO_WritePin(OutEngB_1_GPIO_Port, OutEngB_1_Pin, 0);
 800172a:	2200      	movs	r2, #0
 800172c:	f44f 7100 	mov.w	r1, #512	; 0x200
 8001730:	4808      	ldr	r0, [pc, #32]	; (8001754 <MotorR_SetPIN+0xa0>)
 8001732:	f001 fd6d 	bl	8003210 <HAL_GPIO_WritePin>
			HAL_GPIO_WritePin(OutEngB_2_GPIO_Port, OutEngB_2_Pin, 0);
 8001736:	2200      	movs	r2, #0
 8001738:	f44f 6180 	mov.w	r1, #1024	; 0x400
 800173c:	4805      	ldr	r0, [pc, #20]	; (8001754 <MotorR_SetPIN+0xa0>)
 800173e:	f001 fd67 	bl	8003210 <HAL_GPIO_WritePin>
			break;
 8001742:	e000      	b.n	8001746 <MotorR_SetPIN+0x92>
		default:
			break;
 8001744:	bf00      	nop
	}
}
 8001746:	bf00      	nop
 8001748:	3708      	adds	r7, #8
 800174a:	46bd      	mov	sp, r7
 800174c:	bd80      	pop	{r7, pc}
 800174e:	bf00      	nop
 8001750:	200003d8 	.word	0x200003d8
 8001754:	40020000 	.word	0x40020000

08001758 <MotorL_SetPWM>:

/**
 * @Brief Le doy la velocidad a los motores
 */
void MotorL_SetPWM(uint16_t dCycle){
 8001758:	b480      	push	{r7}
 800175a:	b083      	sub	sp, #12
 800175c:	af00      	add	r7, sp, #0
 800175e:	4603      	mov	r3, r0
 8001760:	80fb      	strh	r3, [r7, #6]
	__HAL_TIM_SET_COMPARE(&htim3, TIM_CHANNEL_2, dCycle);
 8001762:	4b05      	ldr	r3, [pc, #20]	; (8001778 <MotorL_SetPWM+0x20>)
 8001764:	681b      	ldr	r3, [r3, #0]
 8001766:	88fa      	ldrh	r2, [r7, #6]
 8001768:	639a      	str	r2, [r3, #56]	; 0x38
}
 800176a:	bf00      	nop
 800176c:	370c      	adds	r7, #12
 800176e:	46bd      	mov	sp, r7
 8001770:	f85d 7b04 	ldr.w	r7, [sp], #4
 8001774:	4770      	bx	lr
 8001776:	bf00      	nop
 8001778:	20000328 	.word	0x20000328

0800177c <MotorR_SetPWM>:
void MotorR_SetPWM(uint16_t dCycle){
 800177c:	b480      	push	{r7}
 800177e:	b083      	sub	sp, #12
 8001780:	af00      	add	r7, sp, #0
 8001782:	4603      	mov	r3, r0
 8001784:	80fb      	strh	r3, [r7, #6]
	__HAL_TIM_SET_COMPARE(&htim3, TIM_CHANNEL_1, dCycle);
 8001786:	4b05      	ldr	r3, [pc, #20]	; (800179c <MotorR_SetPWM+0x20>)
 8001788:	681b      	ldr	r3, [r3, #0]
 800178a:	88fa      	ldrh	r2, [r7, #6]
 800178c:	635a      	str	r2, [r3, #52]	; 0x34
}
 800178e:	bf00      	nop
 8001790:	370c      	adds	r7, #12
 8001792:	46bd      	mov	sp, r7
 8001794:	f85d 7b04 	ldr.w	r7, [sp], #4
 8001798:	4770      	bx	lr
 800179a:	bf00      	nop
 800179c:	20000328 	.word	0x20000328

080017a0 <Error_Handler>:
/**
  * @brief  This function is executed in case of error occurrence.
  * @retval None
  */
void Error_Handler(void)
{
 80017a0:	b480      	push	{r7}
 80017a2:	af00      	add	r7, sp, #0
  \details Disables IRQ interrupts by setting special-purpose register PRIMASK.
           Can only be executed in Privileged modes.
 */
__STATIC_FORCEINLINE void __disable_irq(void)
{
  __ASM volatile ("cpsid i" : : : "memory");
 80017a4:	b672      	cpsid	i
}
 80017a6:	bf00      	nop
  /* USER CODE BEGIN Error_Handler_Debug */
  /* User can add his own implementation to report the HAL error return state */
  __disable_irq();
  while (1)
 80017a8:	e7fe      	b.n	80017a8 <Error_Handler+0x8>
	...

080017ac <HAL_MspInit>:
 80017ac:	b480      	push	{r7}
 80017ae:	b083      	sub	sp, #12
 80017b0:	af00      	add	r7, sp, #0
 80017b2:	2300      	movs	r3, #0
 80017b4:	607b      	str	r3, [r7, #4]
 80017b6:	4b10      	ldr	r3, [pc, #64]	; (80017f8 <HAL_MspInit+0x4c>)
 80017b8:	6c5b      	ldr	r3, [r3, #68]	; 0x44
 80017ba:	4a0f      	ldr	r2, [pc, #60]	; (80017f8 <HAL_MspInit+0x4c>)
 80017bc:	f443 4380 	orr.w	r3, r3, #16384	; 0x4000
 80017c0:	6453      	str	r3, [r2, #68]	; 0x44
 80017c2:	4b0d      	ldr	r3, [pc, #52]	; (80017f8 <HAL_MspInit+0x4c>)
 80017c4:	6c5b      	ldr	r3, [r3, #68]	; 0x44
 80017c6:	f403 4380 	and.w	r3, r3, #16384	; 0x4000
 80017ca:	607b      	str	r3, [r7, #4]
 80017cc:	687b      	ldr	r3, [r7, #4]
 80017ce:	2300      	movs	r3, #0
 80017d0:	603b      	str	r3, [r7, #0]
 80017d2:	4b09      	ldr	r3, [pc, #36]	; (80017f8 <HAL_MspInit+0x4c>)
 80017d4:	6c1b      	ldr	r3, [r3, #64]	; 0x40
 80017d6:	4a08      	ldr	r2, [pc, #32]	; (80017f8 <HAL_MspInit+0x4c>)
 80017d8:	f043 5380 	orr.w	r3, r3, #268435456	; 0x10000000
 80017dc:	6413      	str	r3, [r2, #64]	; 0x40
 80017de:	4b06      	ldr	r3, [pc, #24]	; (80017f8 <HAL_MspInit+0x4c>)
 80017e0:	6c1b      	ldr	r3, [r3, #64]	; 0x40
 80017e2:	f003 5380 	and.w	r3, r3, #268435456	; 0x10000000
 80017e6:	603b      	str	r3, [r7, #0]
 80017e8:	683b      	ldr	r3, [r7, #0]
 80017ea:	bf00      	nop
 80017ec:	370c      	adds	r7, #12
 80017ee:	46bd      	mov	sp, r7
 80017f0:	f85d 7b04 	ldr.w	r7, [sp], #4
 80017f4:	4770      	bx	lr
 80017f6:	bf00      	nop
 80017f8:	40023800 	.word	0x40023800

080017fc <HAL_ADC_MspInit>:
 80017fc:	b580      	push	{r7, lr}
 80017fe:	b08a      	sub	sp, #40	; 0x28
 8001800:	af00      	add	r7, sp, #0
 8001802:	6078      	str	r0, [r7, #4]
 8001804:	f107 0314 	add.w	r3, r7, #20
 8001808:	2200      	movs	r2, #0
 800180a:	601a      	str	r2, [r3, #0]
 800180c:	605a      	str	r2, [r3, #4]
 800180e:	609a      	str	r2, [r3, #8]
 8001810:	60da      	str	r2, [r3, #12]
 8001812:	611a      	str	r2, [r3, #16]
 8001814:	687b      	ldr	r3, [r7, #4]
 8001816:	681b      	ldr	r3, [r3, #0]
 8001818:	4a2e      	ldr	r2, [pc, #184]	; (80018d4 <HAL_ADC_MspInit+0xd8>)
 800181a:	4293      	cmp	r3, r2
 800181c:	d156      	bne.n	80018cc <HAL_ADC_MspInit+0xd0>
 800181e:	2300      	movs	r3, #0
 8001820:	613b      	str	r3, [r7, #16]
 8001822:	4b2d      	ldr	r3, [pc, #180]	; (80018d8 <HAL_ADC_MspInit+0xdc>)
 8001824:	6c5b      	ldr	r3, [r3, #68]	; 0x44
 8001826:	4a2c      	ldr	r2, [pc, #176]	; (80018d8 <HAL_ADC_MspInit+0xdc>)
 8001828:	f443 7380 	orr.w	r3, r3, #256	; 0x100
 800182c:	6453      	str	r3, [r2, #68]	; 0x44
 800182e:	4b2a      	ldr	r3, [pc, #168]	; (80018d8 <HAL_ADC_MspInit+0xdc>)
 8001830:	6c5b      	ldr	r3, [r3, #68]	; 0x44
 8001832:	f403 7380 	and.w	r3, r3, #256	; 0x100
 8001836:	613b      	str	r3, [r7, #16]
 8001838:	693b      	ldr	r3, [r7, #16]
 800183a:	2300      	movs	r3, #0
 800183c:	60fb      	str	r3, [r7, #12]
 800183e:	4b26      	ldr	r3, [pc, #152]	; (80018d8 <HAL_ADC_MspInit+0xdc>)
 8001840:	6b1b      	ldr	r3, [r3, #48]	; 0x30
 8001842:	4a25      	ldr	r2, [pc, #148]	; (80018d8 <HAL_ADC_MspInit+0xdc>)
 8001844:	f043 0301 	orr.w	r3, r3, #1
 8001848:	6313      	str	r3, [r2, #48]	; 0x30
 800184a:	4b23      	ldr	r3, [pc, #140]	; (80018d8 <HAL_ADC_MspInit+0xdc>)
 800184c:	6b1b      	ldr	r3, [r3, #48]	; 0x30
 800184e:	f003 0301 	and.w	r3, r3, #1
 8001852:	60fb      	str	r3, [r7, #12]
 8001854:	68fb      	ldr	r3, [r7, #12]
 8001856:	23ff      	movs	r3, #255	; 0xff
 8001858:	617b      	str	r3, [r7, #20]
 800185a:	2303      	movs	r3, #3
 800185c:	61bb      	str	r3, [r7, #24]
 800185e:	2300      	movs	r3, #0
 8001860:	61fb      	str	r3, [r7, #28]
 8001862:	f107 0314 	add.w	r3, r7, #20
 8001866:	4619      	mov	r1, r3
 8001868:	481c      	ldr	r0, [pc, #112]	; (80018dc <HAL_ADC_MspInit+0xe0>)
 800186a:	f001 fb4d 	bl	8002f08 <HAL_GPIO_Init>
 800186e:	4b1c      	ldr	r3, [pc, #112]	; (80018e0 <HAL_ADC_MspInit+0xe4>)
 8001870:	4a1c      	ldr	r2, [pc, #112]	; (80018e4 <HAL_ADC_MspInit+0xe8>)
 8001872:	601a      	str	r2, [r3, #0]
 8001874:	4b1a      	ldr	r3, [pc, #104]	; (80018e0 <HAL_ADC_MspInit+0xe4>)
 8001876:	2200      	movs	r2, #0
 8001878:	605a      	str	r2, [r3, #4]
 800187a:	4b19      	ldr	r3, [pc, #100]	; (80018e0 <HAL_ADC_MspInit+0xe4>)
 800187c:	2200      	movs	r2, #0
 800187e:	609a      	str	r2, [r3, #8]
 8001880:	4b17      	ldr	r3, [pc, #92]	; (80018e0 <HAL_ADC_MspInit+0xe4>)
 8001882:	2200      	movs	r2, #0
 8001884:	60da      	str	r2, [r3, #12]
 8001886:	4b16      	ldr	r3, [pc, #88]	; (80018e0 <HAL_ADC_MspInit+0xe4>)
 8001888:	f44f 6280 	mov.w	r2, #1024	; 0x400
 800188c:	611a      	str	r2, [r3, #16]
 800188e:	4b14      	ldr	r3, [pc, #80]	; (80018e0 <HAL_ADC_MspInit+0xe4>)
 8001890:	f44f 6200 	mov.w	r2, #2048	; 0x800
 8001894:	615a      	str	r2, [r3, #20]
 8001896:	4b12      	ldr	r3, [pc, #72]	; (80018e0 <HAL_ADC_MspInit+0xe4>)
 8001898:	f44f 5200 	mov.w	r2, #8192	; 0x2000
 800189c:	619a      	str	r2, [r3, #24]
 800189e:	4b10      	ldr	r3, [pc, #64]	; (80018e0 <HAL_ADC_MspInit+0xe4>)
 80018a0:	2200      	movs	r2, #0
 80018a2:	61da      	str	r2, [r3, #28]
 80018a4:	4b0e      	ldr	r3, [pc, #56]	; (80018e0 <HAL_ADC_MspInit+0xe4>)
 80018a6:	2200      	movs	r2, #0
 80018a8:	621a      	str	r2, [r3, #32]
 80018aa:	4b0d      	ldr	r3, [pc, #52]	; (80018e0 <HAL_ADC_MspInit+0xe4>)
 80018ac:	2200      	movs	r2, #0
 80018ae:	625a      	str	r2, [r3, #36]	; 0x24
 80018b0:	480b      	ldr	r0, [pc, #44]	; (80018e0 <HAL_ADC_MspInit+0xe4>)
 80018b2:	f000 ff8b 	bl	80027cc <HAL_DMA_Init>
 80018b6:	4603      	mov	r3, r0
 80018b8:	2b00      	cmp	r3, #0
 80018ba:	d001      	beq.n	80018c0 <HAL_ADC_MspInit+0xc4>
 80018bc:	f7ff ff70 	bl	80017a0 <Error_Handler>
 80018c0:	687b      	ldr	r3, [r7, #4]
 80018c2:	4a07      	ldr	r2, [pc, #28]	; (80018e0 <HAL_ADC_MspInit+0xe4>)
 80018c4:	639a      	str	r2, [r3, #56]	; 0x38
 80018c6:	4a06      	ldr	r2, [pc, #24]	; (80018e0 <HAL_ADC_MspInit+0xe4>)
 80018c8:	687b      	ldr	r3, [r7, #4]
 80018ca:	6393      	str	r3, [r2, #56]	; 0x38
 80018cc:	bf00      	nop
 80018ce:	3728      	adds	r7, #40	; 0x28
 80018d0:	46bd      	mov	sp, r7
 80018d2:	bd80      	pop	{r7, pc}
 80018d4:	40012000 	.word	0x40012000
 80018d8:	40023800 	.word	0x40023800
 80018dc:	40020000 	.word	0x40020000
 80018e0:	2000016c 	.word	0x2000016c
 80018e4:	40026410 	.word	0x40026410

080018e8 <HAL_I2C_MspInit>:
 80018e8:	b580      	push	{r7, lr}
 80018ea:	b08a      	sub	sp, #40	; 0x28
 80018ec:	af00      	add	r7, sp, #0
 80018ee:	6078      	str	r0, [r7, #4]
 80018f0:	f107 0314 	add.w	r3, r7, #20
 80018f4:	2200      	movs	r2, #0
 80018f6:	601a      	str	r2, [r3, #0]
 80018f8:	605a      	str	r2, [r3, #4]
 80018fa:	609a      	str	r2, [r3, #8]
 80018fc:	60da      	str	r2, [r3, #12]
 80018fe:	611a      	str	r2, [r3, #16]
 8001900:	687b      	ldr	r3, [r7, #4]
 8001902:	681b      	ldr	r3, [r3, #0]
 8001904:	4a47      	ldr	r2, [pc, #284]	; (8001a24 <HAL_I2C_MspInit+0x13c>)
 8001906:	4293      	cmp	r3, r2
 8001908:	f040 8087 	bne.w	8001a1a <HAL_I2C_MspInit+0x132>
 800190c:	2300      	movs	r3, #0
 800190e:	613b      	str	r3, [r7, #16]
 8001910:	4b45      	ldr	r3, [pc, #276]	; (8001a28 <HAL_I2C_MspInit+0x140>)
 8001912:	6b1b      	ldr	r3, [r3, #48]	; 0x30
 8001914:	4a44      	ldr	r2, [pc, #272]	; (8001a28 <HAL_I2C_MspInit+0x140>)
 8001916:	f043 0302 	orr.w	r3, r3, #2
 800191a:	6313      	str	r3, [r2, #48]	; 0x30
 800191c:	4b42      	ldr	r3, [pc, #264]	; (8001a28 <HAL_I2C_MspInit+0x140>)
 800191e:	6b1b      	ldr	r3, [r3, #48]	; 0x30
 8001920:	f003 0302 	and.w	r3, r3, #2
 8001924:	613b      	str	r3, [r7, #16]
 8001926:	693b      	ldr	r3, [r7, #16]
 8001928:	23c0      	movs	r3, #192	; 0xc0
 800192a:	617b      	str	r3, [r7, #20]
 800192c:	2312      	movs	r3, #18
 800192e:	61bb      	str	r3, [r7, #24]
 8001930:	2300      	movs	r3, #0
 8001932:	61fb      	str	r3, [r7, #28]
 8001934:	2303      	movs	r3, #3
 8001936:	623b      	str	r3, [r7, #32]
 8001938:	2304      	movs	r3, #4
 800193a:	627b      	str	r3, [r7, #36]	; 0x24
 800193c:	f107 0314 	add.w	r3, r7, #20
 8001940:	4619      	mov	r1, r3
 8001942:	483a      	ldr	r0, [pc, #232]	; (8001a2c <HAL_I2C_MspInit+0x144>)
 8001944:	f001 fae0 	bl	8002f08 <HAL_GPIO_Init>
 8001948:	2300      	movs	r3, #0
 800194a:	60fb      	str	r3, [r7, #12]
 800194c:	4b36      	ldr	r3, [pc, #216]	; (8001a28 <HAL_I2C_MspInit+0x140>)
 800194e:	6c1b      	ldr	r3, [r3, #64]	; 0x40
 8001950:	4a35      	ldr	r2, [pc, #212]	; (8001a28 <HAL_I2C_MspInit+0x140>)
 8001952:	f443 1300 	orr.w	r3, r3, #2097152	; 0x200000
 8001956:	6413      	str	r3, [r2, #64]	; 0x40
 8001958:	4b33      	ldr	r3, [pc, #204]	; (8001a28 <HAL_I2C_MspInit+0x140>)
 800195a:	6c1b      	ldr	r3, [r3, #64]	; 0x40
 800195c:	f403 1300 	and.w	r3, r3, #2097152	; 0x200000
 8001960:	60fb      	str	r3, [r7, #12]
 8001962:	68fb      	ldr	r3, [r7, #12]
 8001964:	4b32      	ldr	r3, [pc, #200]	; (8001a30 <HAL_I2C_MspInit+0x148>)
 8001966:	4a33      	ldr	r2, [pc, #204]	; (8001a34 <HAL_I2C_MspInit+0x14c>)
 8001968:	601a      	str	r2, [r3, #0]
 800196a:	4b31      	ldr	r3, [pc, #196]	; (8001a30 <HAL_I2C_MspInit+0x148>)
 800196c:	f04f 7200 	mov.w	r2, #33554432	; 0x2000000
 8001970:	605a      	str	r2, [r3, #4]
 8001972:	4b2f      	ldr	r3, [pc, #188]	; (8001a30 <HAL_I2C_MspInit+0x148>)
 8001974:	2200      	movs	r2, #0
 8001976:	609a      	str	r2, [r3, #8]
 8001978:	4b2d      	ldr	r3, [pc, #180]	; (8001a30 <HAL_I2C_MspInit+0x148>)
 800197a:	2200      	movs	r2, #0
 800197c:	60da      	str	r2, [r3, #12]
 800197e:	4b2c      	ldr	r3, [pc, #176]	; (8001a30 <HAL_I2C_MspInit+0x148>)
 8001980:	f44f 6280 	mov.w	r2, #1024	; 0x400
 8001984:	611a      	str	r2, [r3, #16]
 8001986:	4b2a      	ldr	r3, [pc, #168]	; (8001a30 <HAL_I2C_MspInit+0x148>)
 8001988:	2200      	movs	r2, #0
 800198a:	615a      	str	r2, [r3, #20]
 800198c:	4b28      	ldr	r3, [pc, #160]	; (8001a30 <HAL_I2C_MspInit+0x148>)
 800198e:	2200      	movs	r2, #0
 8001990:	619a      	str	r2, [r3, #24]
 8001992:	4b27      	ldr	r3, [pc, #156]	; (8001a30 <HAL_I2C_MspInit+0x148>)
 8001994:	2200      	movs	r2, #0
 8001996:	61da      	str	r2, [r3, #28]
 8001998:	4b25      	ldr	r3, [pc, #148]	; (8001a30 <HAL_I2C_MspInit+0x148>)
 800199a:	2200      	movs	r2, #0
 800199c:	621a      	str	r2, [r3, #32]
 800199e:	4b24      	ldr	r3, [pc, #144]	; (8001a30 <HAL_I2C_MspInit+0x148>)
 80019a0:	2200      	movs	r2, #0
 80019a2:	625a      	str	r2, [r3, #36]	; 0x24
 80019a4:	4822      	ldr	r0, [pc, #136]	; (8001a30 <HAL_I2C_MspInit+0x148>)
 80019a6:	f000 ff11 	bl	80027cc <HAL_DMA_Init>
 80019aa:	4603      	mov	r3, r0
 80019ac:	2b00      	cmp	r3, #0
 80019ae:	d001      	beq.n	80019b4 <HAL_I2C_MspInit+0xcc>
 80019b0:	f7ff fef6 	bl	80017a0 <Error_Handler>
 80019b4:	687b      	ldr	r3, [r7, #4]
 80019b6:	4a1e      	ldr	r2, [pc, #120]	; (8001a30 <HAL_I2C_MspInit+0x148>)
 80019b8:	639a      	str	r2, [r3, #56]	; 0x38
 80019ba:	4a1d      	ldr	r2, [pc, #116]	; (8001a30 <HAL_I2C_MspInit+0x148>)
 80019bc:	687b      	ldr	r3, [r7, #4]
 80019be:	6393      	str	r3, [r2, #56]	; 0x38
 80019c0:	4b1d      	ldr	r3, [pc, #116]	; (8001a38 <HAL_I2C_MspInit+0x150>)
 80019c2:	4a1e      	ldr	r2, [pc, #120]	; (8001a3c <HAL_I2C_MspInit+0x154>)
 80019c4:	601a      	str	r2, [r3, #0]
 80019c6:	4b1c      	ldr	r3, [pc, #112]	; (8001a38 <HAL_I2C_MspInit+0x150>)
 80019c8:	2200      	movs	r2, #0
 80019ca:	605a      	str	r2, [r3, #4]
 80019cc:	4b1a      	ldr	r3, [pc, #104]	; (8001a38 <HAL_I2C_MspInit+0x150>)
 80019ce:	2240      	movs	r2, #64	; 0x40
 80019d0:	609a      	str	r2, [r3, #8]
 80019d2:	4b19      	ldr	r3, [pc, #100]	; (8001a38 <HAL_I2C_MspInit+0x150>)
 80019d4:	2200      	movs	r2, #0
 80019d6:	60da      	str	r2, [r3, #12]
 80019d8:	4b17      	ldr	r3, [pc, #92]	; (8001a38 <HAL_I2C_MspInit+0x150>)
 80019da:	f44f 6280 	mov.w	r2, #1024	; 0x400
 80019de:	611a      	str	r2, [r3, #16]
 80019e0:	4b15      	ldr	r3, [pc, #84]	; (8001a38 <HAL_I2C_MspInit+0x150>)
 80019e2:	2200      	movs	r2, #0
 80019e4:	615a      	str	r2, [r3, #20]
 80019e6:	4b14      	ldr	r3, [pc, #80]	; (8001a38 <HAL_I2C_MspInit+0x150>)
 80019e8:	2200      	movs	r2, #0
 80019ea:	619a      	str	r2, [r3, #24]
 80019ec:	4b12      	ldr	r3, [pc, #72]	; (8001a38 <HAL_I2C_MspInit+0x150>)
 80019ee:	2200      	movs	r2, #0
 80019f0:	61da      	str	r2, [r3, #28]
 80019f2:	4b11      	ldr	r3, [pc, #68]	; (8001a38 <HAL_I2C_MspInit+0x150>)
 80019f4:	2200      	movs	r2, #0
 80019f6:	621a      	str	r2, [r3, #32]
 80019f8:	4b0f      	ldr	r3, [pc, #60]	; (8001a38 <HAL_I2C_MspInit+0x150>)
 80019fa:	2200      	movs	r2, #0
 80019fc:	625a      	str	r2, [r3, #36]	; 0x24
 80019fe:	480e      	ldr	r0, [pc, #56]	; (8001a38 <HAL_I2C_MspInit+0x150>)
 8001a00:	f000 fee4 	bl	80027cc <HAL_DMA_Init>
 8001a04:	4603      	mov	r3, r0
 8001a06:	2b00      	cmp	r3, #0
 8001a08:	d001      	beq.n	8001a0e <HAL_I2C_MspInit+0x126>
 8001a0a:	f7ff fec9 	bl	80017a0 <Error_Handler>
 8001a0e:	687b      	ldr	r3, [r7, #4]
 8001a10:	4a09      	ldr	r2, [pc, #36]	; (8001a38 <HAL_I2C_MspInit+0x150>)
 8001a12:	635a      	str	r2, [r3, #52]	; 0x34
 8001a14:	4a08      	ldr	r2, [pc, #32]	; (8001a38 <HAL_I2C_MspInit+0x150>)
 8001a16:	687b      	ldr	r3, [r7, #4]
 8001a18:	6393      	str	r3, [r2, #56]	; 0x38
 8001a1a:	bf00      	nop
 8001a1c:	3728      	adds	r7, #40	; 0x28
 8001a1e:	46bd      	mov	sp, r7
 8001a20:	bd80      	pop	{r7, pc}
 8001a22:	bf00      	nop
 8001a24:	40005400 	.word	0x40005400
 8001a28:	40023800 	.word	0x40023800
 8001a2c:	40020400 	.word	0x40020400
 8001a30:	20000220 	.word	0x20000220
 8001a34:	40026010 	.word	0x40026010
 8001a38:	20000280 	.word	0x20000280
 8001a3c:	40026028 	.word	0x40026028

08001a40 <HAL_TIM_Base_MspInit>:
 8001a40:	b580      	push	{r7, lr}
 8001a42:	b084      	sub	sp, #16
 8001a44:	af00      	add	r7, sp, #0
 8001a46:	6078      	str	r0, [r7, #4]
 8001a48:	687b      	ldr	r3, [r7, #4]
 8001a4a:	681b      	ldr	r3, [r3, #0]
 8001a4c:	4a1c      	ldr	r2, [pc, #112]	; (8001ac0 <HAL_TIM_Base_MspInit+0x80>)
 8001a4e:	4293      	cmp	r3, r2
 8001a50:	d116      	bne.n	8001a80 <HAL_TIM_Base_MspInit+0x40>
 8001a52:	2300      	movs	r3, #0
 8001a54:	60fb      	str	r3, [r7, #12]
 8001a56:	4b1b      	ldr	r3, [pc, #108]	; (8001ac4 <HAL_TIM_Base_MspInit+0x84>)
 8001a58:	6c5b      	ldr	r3, [r3, #68]	; 0x44
 8001a5a:	4a1a      	ldr	r2, [pc, #104]	; (8001ac4 <HAL_TIM_Base_MspInit+0x84>)
 8001a5c:	f043 0301 	orr.w	r3, r3, #1
 8001a60:	6453      	str	r3, [r2, #68]	; 0x44
 8001a62:	4b18      	ldr	r3, [pc, #96]	; (8001ac4 <HAL_TIM_Base_MspInit+0x84>)
 8001a64:	6c5b      	ldr	r3, [r3, #68]	; 0x44
 8001a66:	f003 0301 	and.w	r3, r3, #1
 8001a6a:	60fb      	str	r3, [r7, #12]
 8001a6c:	68fb      	ldr	r3, [r7, #12]
 8001a6e:	2200      	movs	r2, #0
 8001a70:	2100      	movs	r1, #0
 8001a72:	2019      	movs	r0, #25
 8001a74:	f000 fe73 	bl	800275e <HAL_NVIC_SetPriority>
 8001a78:	2019      	movs	r0, #25
 8001a7a:	f000 fe8c 	bl	8002796 <HAL_NVIC_EnableIRQ>
 8001a7e:	e01a      	b.n	8001ab6 <HAL_TIM_Base_MspInit+0x76>
 8001a80:	687b      	ldr	r3, [r7, #4]
 8001a82:	681b      	ldr	r3, [r3, #0]
 8001a84:	4a10      	ldr	r2, [pc, #64]	; (8001ac8 <HAL_TIM_Base_MspInit+0x88>)
 8001a86:	4293      	cmp	r3, r2
 8001a88:	d115      	bne.n	8001ab6 <HAL_TIM_Base_MspInit+0x76>
 8001a8a:	2300      	movs	r3, #0
 8001a8c:	60bb      	str	r3, [r7, #8]
 8001a8e:	4b0d      	ldr	r3, [pc, #52]	; (8001ac4 <HAL_TIM_Base_MspInit+0x84>)
 8001a90:	6c1b      	ldr	r3, [r3, #64]	; 0x40
 8001a92:	4a0c      	ldr	r2, [pc, #48]	; (8001ac4 <HAL_TIM_Base_MspInit+0x84>)
 8001a94:	f043 0302 	orr.w	r3, r3, #2
 8001a98:	6413      	str	r3, [r2, #64]	; 0x40
 8001a9a:	4b0a      	ldr	r3, [pc, #40]	; (8001ac4 <HAL_TIM_Base_MspInit+0x84>)
 8001a9c:	6c1b      	ldr	r3, [r3, #64]	; 0x40
 8001a9e:	f003 0302 	and.w	r3, r3, #2
 8001aa2:	60bb      	str	r3, [r7, #8]
 8001aa4:	68bb      	ldr	r3, [r7, #8]
 8001aa6:	2200      	movs	r2, #0
 8001aa8:	2100      	movs	r1, #0
 8001aaa:	201d      	movs	r0, #29
 8001aac:	f000 fe57 	bl	800275e <HAL_NVIC_SetPriority>
 8001ab0:	201d      	movs	r0, #29
 8001ab2:	f000 fe70 	bl	8002796 <HAL_NVIC_EnableIRQ>
 8001ab6:	bf00      	nop
 8001ab8:	3710      	adds	r7, #16
 8001aba:	46bd      	mov	sp, r7
 8001abc:	bd80      	pop	{r7, pc}
 8001abe:	bf00      	nop
 8001ac0:	40010000 	.word	0x40010000
 8001ac4:	40023800 	.word	0x40023800
 8001ac8:	40000400 	.word	0x40000400

08001acc <HAL_TIM_MspPostInit>:
 8001acc:	b580      	push	{r7, lr}
 8001ace:	b088      	sub	sp, #32
 8001ad0:	af00      	add	r7, sp, #0
 8001ad2:	6078      	str	r0, [r7, #4]
 8001ad4:	f107 030c 	add.w	r3, r7, #12
 8001ad8:	2200      	movs	r2, #0
 8001ada:	601a      	str	r2, [r3, #0]
 8001adc:	605a      	str	r2, [r3, #4]
 8001ade:	609a      	str	r2, [r3, #8]
 8001ae0:	60da      	str	r2, [r3, #12]
 8001ae2:	611a      	str	r2, [r3, #16]
 8001ae4:	687b      	ldr	r3, [r7, #4]
 8001ae6:	681b      	ldr	r3, [r3, #0]
 8001ae8:	4a12      	ldr	r2, [pc, #72]	; (8001b34 <HAL_TIM_MspPostInit+0x68>)
 8001aea:	4293      	cmp	r3, r2
 8001aec:	d11d      	bne.n	8001b2a <HAL_TIM_MspPostInit+0x5e>
 8001aee:	2300      	movs	r3, #0
 8001af0:	60bb      	str	r3, [r7, #8]
 8001af2:	4b11      	ldr	r3, [pc, #68]	; (8001b38 <HAL_TIM_MspPostInit+0x6c>)
 8001af4:	6b1b      	ldr	r3, [r3, #48]	; 0x30
 8001af6:	4a10      	ldr	r2, [pc, #64]	; (8001b38 <HAL_TIM_MspPostInit+0x6c>)
 8001af8:	f043 0302 	orr.w	r3, r3, #2
 8001afc:	6313      	str	r3, [r2, #48]	; 0x30
 8001afe:	4b0e      	ldr	r3, [pc, #56]	; (8001b38 <HAL_TIM_MspPostInit+0x6c>)
 8001b00:	6b1b      	ldr	r3, [r3, #48]	; 0x30
 8001b02:	f003 0302 	and.w	r3, r3, #2
 8001b06:	60bb      	str	r3, [r7, #8]
 8001b08:	68bb      	ldr	r3, [r7, #8]
 8001b0a:	2330      	movs	r3, #48	; 0x30
 8001b0c:	60fb      	str	r3, [r7, #12]
 8001b0e:	2302      	movs	r3, #2
 8001b10:	613b      	str	r3, [r7, #16]
 8001b12:	2300      	movs	r3, #0
 8001b14:	617b      	str	r3, [r7, #20]
 8001b16:	2300      	movs	r3, #0
 8001b18:	61bb      	str	r3, [r7, #24]
 8001b1a:	2302      	movs	r3, #2
 8001b1c:	61fb      	str	r3, [r7, #28]
 8001b1e:	f107 030c 	add.w	r3, r7, #12
 8001b22:	4619      	mov	r1, r3
 8001b24:	4805      	ldr	r0, [pc, #20]	; (8001b3c <HAL_TIM_MspPostInit+0x70>)
 8001b26:	f001 f9ef 	bl	8002f08 <HAL_GPIO_Init>
 8001b2a:	bf00      	nop
 8001b2c:	3720      	adds	r7, #32
 8001b2e:	46bd      	mov	sp, r7
 8001b30:	bd80      	pop	{r7, pc}
 8001b32:	bf00      	nop
 8001b34:	40000400 	.word	0x40000400
 8001b38:	40023800 	.word	0x40023800
 8001b3c:	40020400 	.word	0x40020400

08001b40 <NMI_Handler>:
 8001b40:	b480      	push	{r7}
 8001b42:	af00      	add	r7, sp, #0
 8001b44:	e7fe      	b.n	8001b44 <NMI_Handler+0x4>

08001b46 <HardFault_Handler>:
 8001b46:	b480      	push	{r7}
 8001b48:	af00      	add	r7, sp, #0
 8001b4a:	e7fe      	b.n	8001b4a <HardFault_Handler+0x4>

08001b4c <MemManage_Handler>:
 8001b4c:	b480      	push	{r7}
 8001b4e:	af00      	add	r7, sp, #0
 8001b50:	e7fe      	b.n	8001b50 <MemManage_Handler+0x4>

08001b52 <BusFault_Handler>:
 8001b52:	b480      	push	{r7}
 8001b54:	af00      	add	r7, sp, #0
 8001b56:	e7fe      	b.n	8001b56 <BusFault_Handler+0x4>

08001b58 <UsageFault_Handler>:
 8001b58:	b480      	push	{r7}
 8001b5a:	af00      	add	r7, sp, #0
 8001b5c:	e7fe      	b.n	8001b5c <UsageFault_Handler+0x4>

08001b5e <SVC_Handler>:
 8001b5e:	b480      	push	{r7}
 8001b60:	af00      	add	r7, sp, #0
 8001b62:	bf00      	nop
 8001b64:	46bd      	mov	sp, r7
 8001b66:	f85d 7b04 	ldr.w	r7, [sp], #4
 8001b6a:	4770      	bx	lr

08001b6c <DebugMon_Handler>:
 8001b6c:	b480      	push	{r7}
 8001b6e:	af00      	add	r7, sp, #0
 8001b70:	bf00      	nop
 8001b72:	46bd      	mov	sp, r7
 8001b74:	f85d 7b04 	ldr.w	r7, [sp], #4
 8001b78:	4770      	bx	lr

08001b7a <PendSV_Handler>:
 8001b7a:	b480      	push	{r7}
 8001b7c:	af00      	add	r7, sp, #0
 8001b7e:	bf00      	nop
 8001b80:	46bd      	mov	sp, r7
 8001b82:	f85d 7b04 	ldr.w	r7, [sp], #4
 8001b86:	4770      	bx	lr

08001b88 <SysTick_Handler>:
 8001b88:	b580      	push	{r7, lr}
 8001b8a:	af00      	add	r7, sp, #0
 8001b8c:	f000 f8cc 	bl	8001d28 <HAL_IncTick>
 8001b90:	bf00      	nop
 8001b92:	bd80      	pop	{r7, pc}

08001b94 <DMA1_Stream0_IRQHandler>:
 8001b94:	b580      	push	{r7, lr}
 8001b96:	af00      	add	r7, sp, #0
 8001b98:	4802      	ldr	r0, [pc, #8]	; (8001ba4 <DMA1_Stream0_IRQHandler+0x10>)
 8001b9a:	f000 ff3f 	bl	8002a1c <HAL_DMA_IRQHandler>
 8001b9e:	bf00      	nop
 8001ba0:	bd80      	pop	{r7, pc}
 8001ba2:	bf00      	nop
 8001ba4:	20000220 	.word	0x20000220

08001ba8 <DMA1_Stream1_IRQHandler>:
 8001ba8:	b580      	push	{r7, lr}
 8001baa:	af00      	add	r7, sp, #0
 8001bac:	4802      	ldr	r0, [pc, #8]	; (8001bb8 <DMA1_Stream1_IRQHandler+0x10>)
 8001bae:	f000 ff35 	bl	8002a1c <HAL_DMA_IRQHandler>
 8001bb2:	bf00      	nop
 8001bb4:	bd80      	pop	{r7, pc}
 8001bb6:	bf00      	nop
 8001bb8:	20000280 	.word	0x20000280

08001bbc <TIM1_UP_TIM10_IRQHandler>:
 8001bbc:	b580      	push	{r7, lr}
 8001bbe:	af00      	add	r7, sp, #0
 8001bc0:	4802      	ldr	r0, [pc, #8]	; (8001bcc <TIM1_UP_TIM10_IRQHandler+0x10>)
 8001bc2:	f004 fa3d 	bl	8006040 <HAL_TIM_IRQHandler>
 8001bc6:	bf00      	nop
 8001bc8:	bd80      	pop	{r7, pc}
 8001bca:	bf00      	nop
 8001bcc:	200002e0 	.word	0x200002e0

08001bd0 <TIM3_IRQHandler>:
 8001bd0:	b580      	push	{r7, lr}
 8001bd2:	af00      	add	r7, sp, #0
 8001bd4:	4802      	ldr	r0, [pc, #8]	; (8001be0 <TIM3_IRQHandler+0x10>)
 8001bd6:	f004 fa33 	bl	8006040 <HAL_TIM_IRQHandler>
 8001bda:	bf00      	nop
 8001bdc:	bd80      	pop	{r7, pc}
 8001bde:	bf00      	nop
 8001be0:	20000328 	.word	0x20000328

08001be4 <DMA2_Stream0_IRQHandler>:
 8001be4:	b580      	push	{r7, lr}
 8001be6:	af00      	add	r7, sp, #0
 8001be8:	4802      	ldr	r0, [pc, #8]	; (8001bf4 <DMA2_Stream0_IRQHandler+0x10>)
 8001bea:	f000 ff17 	bl	8002a1c <HAL_DMA_IRQHandler>
 8001bee:	bf00      	nop
 8001bf0:	bd80      	pop	{r7, pc}
 8001bf2:	bf00      	nop
 8001bf4:	2000016c 	.word	0x2000016c

08001bf8 <OTG_FS_IRQHandler>:
 8001bf8:	b580      	push	{r7, lr}
 8001bfa:	af00      	add	r7, sp, #0
 8001bfc:	4802      	ldr	r0, [pc, #8]	; (8001c08 <OTG_FS_IRQHandler+0x10>)
 8001bfe:	f002 fb10 	bl	8004222 <HAL_PCD_IRQHandler>
 8001c02:	bf00      	nop
 8001c04:	bd80      	pop	{r7, pc}
 8001c06:	bf00      	nop
 8001c08:	20000f14 	.word	0x20000f14

08001c0c <SystemInit>:
 8001c0c:	b480      	push	{r7}
 8001c0e:	af00      	add	r7, sp, #0
 8001c10:	4b06      	ldr	r3, [pc, #24]	; (8001c2c <SystemInit+0x20>)
 8001c12:	f8d3 3088 	ldr.w	r3, [r3, #136]	; 0x88
 8001c16:	4a05      	ldr	r2, [pc, #20]	; (8001c2c <SystemInit+0x20>)
 8001c18:	f443 0370 	orr.w	r3, r3, #15728640	; 0xf00000
 8001c1c:	f8c2 3088 	str.w	r3, [r2, #136]	; 0x88
 8001c20:	bf00      	nop
 8001c22:	46bd      	mov	sp, r7
 8001c24:	f85d 7b04 	ldr.w	r7, [sp], #4
 8001c28:	4770      	bx	lr
 8001c2a:	bf00      	nop
 8001c2c:	e000ed00 	.word	0xe000ed00

08001c30 <Reset_Handler>:
 8001c30:	f8df d034 	ldr.w	sp, [pc, #52]	; 8001c68 <LoopFillZerobss+0xe>
 8001c34:	f7ff ffea 	bl	8001c0c <SystemInit>
 8001c38:	480c      	ldr	r0, [pc, #48]	; (8001c6c <LoopFillZerobss+0x12>)
 8001c3a:	490d      	ldr	r1, [pc, #52]	; (8001c70 <LoopFillZerobss+0x16>)
 8001c3c:	4a0d      	ldr	r2, [pc, #52]	; (8001c74 <LoopFillZerobss+0x1a>)
 8001c3e:	2300      	movs	r3, #0
 8001c40:	e002      	b.n	8001c48 <LoopCopyDataInit>

08001c42 <CopyDataInit>:
 8001c42:	58d4      	ldr	r4, [r2, r3]
 8001c44:	50c4      	str	r4, [r0, r3]
 8001c46:	3304      	adds	r3, #4

08001c48 <LoopCopyDataInit>:
 8001c48:	18c4      	adds	r4, r0, r3
 8001c4a:	428c      	cmp	r4, r1
 8001c4c:	d3f9      	bcc.n	8001c42 <CopyDataInit>
 8001c4e:	4a0a      	ldr	r2, [pc, #40]	; (8001c78 <LoopFillZerobss+0x1e>)
 8001c50:	4c0a      	ldr	r4, [pc, #40]	; (8001c7c <LoopFillZerobss+0x22>)
 8001c52:	2300      	movs	r3, #0
 8001c54:	e001      	b.n	8001c5a <LoopFillZerobss>

08001c56 <FillZerobss>:
 8001c56:	6013      	str	r3, [r2, #0]
 8001c58:	3204      	adds	r2, #4

08001c5a <LoopFillZerobss>:
 8001c5a:	42a2      	cmp	r2, r4
 8001c5c:	d3fb      	bcc.n	8001c56 <FillZerobss>
 8001c5e:	f009 f8ab 	bl	800adb8 <__libc_init_array>
 8001c62:	f7fe fefd 	bl	8000a60 <main>
 8001c66:	4770      	bx	lr
 8001c68:	20020000 	.word	0x20020000
 8001c6c:	20000000 	.word	0x20000000
 8001c70:	20000104 	.word	0x20000104
 8001c74:	0800ae90 	.word	0x0800ae90
 8001c78:	20000104 	.word	0x20000104
 8001c7c:	20001618 	.word	0x20001618

08001c80 <ADC_IRQHandler>:
 8001c80:	e7fe      	b.n	8001c80 <ADC_IRQHandler>
	...

08001c84 <HAL_Init>:
 8001c84:	b580      	push	{r7, lr}
 8001c86:	af00      	add	r7, sp, #0
 8001c88:	4b0e      	ldr	r3, [pc, #56]	; (8001cc4 <HAL_Init+0x40>)
 8001c8a:	681b      	ldr	r3, [r3, #0]
 8001c8c:	4a0d      	ldr	r2, [pc, #52]	; (8001cc4 <HAL_Init+0x40>)
 8001c8e:	f443 7300 	orr.w	r3, r3, #512	; 0x200
 8001c92:	6013      	str	r3, [r2, #0]
 8001c94:	4b0b      	ldr	r3, [pc, #44]	; (8001cc4 <HAL_Init+0x40>)
 8001c96:	681b      	ldr	r3, [r3, #0]
 8001c98:	4a0a      	ldr	r2, [pc, #40]	; (8001cc4 <HAL_Init+0x40>)
 8001c9a:	f443 6380 	orr.w	r3, r3, #1024	; 0x400
 8001c9e:	6013      	str	r3, [r2, #0]
 8001ca0:	4b08      	ldr	r3, [pc, #32]	; (8001cc4 <HAL_Init+0x40>)
 8001ca2:	681b      	ldr	r3, [r3, #0]
 8001ca4:	4a07      	ldr	r2, [pc, #28]	; (8001cc4 <HAL_Init+0x40>)
 8001ca6:	f443 7380 	orr.w	r3, r3, #256	; 0x100
 8001caa:	6013      	str	r3, [r2, #0]
 8001cac:	2003      	movs	r0, #3
 8001cae:	f000 fd4b 	bl	8002748 <HAL_NVIC_SetPriorityGrouping>
 8001cb2:	200f      	movs	r0, #15
 8001cb4:	f000 f808 	bl	8001cc8 <HAL_InitTick>
 8001cb8:	f7ff fd78 	bl	80017ac <HAL_MspInit>
 8001cbc:	2300      	movs	r3, #0
 8001cbe:	4618      	mov	r0, r3
 8001cc0:	bd80      	pop	{r7, pc}
 8001cc2:	bf00      	nop
 8001cc4:	40023c00 	.word	0x40023c00

08001cc8 <HAL_InitTick>:
 8001cc8:	b580      	push	{r7, lr}
 8001cca:	b082      	sub	sp, #8
 8001ccc:	af00      	add	r7, sp, #0
 8001cce:	6078      	str	r0, [r7, #4]
 8001cd0:	4b12      	ldr	r3, [pc, #72]	; (8001d1c <HAL_InitTick+0x54>)
 8001cd2:	681a      	ldr	r2, [r3, #0]
 8001cd4:	4b12      	ldr	r3, [pc, #72]	; (8001d20 <HAL_InitTick+0x58>)
 8001cd6:	781b      	ldrb	r3, [r3, #0]
 8001cd8:	4619      	mov	r1, r3
 8001cda:	f44f 737a 	mov.w	r3, #1000	; 0x3e8
 8001cde:	fbb3 f3f1 	udiv	r3, r3, r1
 8001ce2:	fbb2 f3f3 	udiv	r3, r2, r3
 8001ce6:	4618      	mov	r0, r3
 8001ce8:	f000 fd63 	bl	80027b2 <HAL_SYSTICK_Config>
 8001cec:	4603      	mov	r3, r0
 8001cee:	2b00      	cmp	r3, #0
 8001cf0:	d001      	beq.n	8001cf6 <HAL_InitTick+0x2e>
 8001cf2:	2301      	movs	r3, #1
 8001cf4:	e00e      	b.n	8001d14 <HAL_InitTick+0x4c>
 8001cf6:	687b      	ldr	r3, [r7, #4]
 8001cf8:	2b0f      	cmp	r3, #15
 8001cfa:	d80a      	bhi.n	8001d12 <HAL_InitTick+0x4a>
 8001cfc:	2200      	movs	r2, #0
 8001cfe:	6879      	ldr	r1, [r7, #4]
 8001d00:	f04f 30ff 	mov.w	r0, #4294967295
 8001d04:	f000 fd2b 	bl	800275e <HAL_NVIC_SetPriority>
 8001d08:	4a06      	ldr	r2, [pc, #24]	; (8001d24 <HAL_InitTick+0x5c>)
 8001d0a:	687b      	ldr	r3, [r7, #4]
 8001d0c:	6013      	str	r3, [r2, #0]
 8001d0e:	2300      	movs	r3, #0
 8001d10:	e000      	b.n	8001d14 <HAL_InitTick+0x4c>
 8001d12:	2301      	movs	r3, #1
 8001d14:	4618      	mov	r0, r3
 8001d16:	3708      	adds	r7, #8
 8001d18:	46bd      	mov	sp, r7
 8001d1a:	bd80      	pop	{r7, pc}
 8001d1c:	20000000 	.word	0x20000000
 8001d20:	20000008 	.word	0x20000008
 8001d24:	20000004 	.word	0x20000004

08001d28 <HAL_IncTick>:
 8001d28:	b480      	push	{r7}
 8001d2a:	af00      	add	r7, sp, #0
 8001d2c:	4b06      	ldr	r3, [pc, #24]	; (8001d48 <HAL_IncTick+0x20>)
 8001d2e:	781b      	ldrb	r3, [r3, #0]
 8001d30:	461a      	mov	r2, r3
 8001d32:	4b06      	ldr	r3, [pc, #24]	; (8001d4c <HAL_IncTick+0x24>)
 8001d34:	681b      	ldr	r3, [r3, #0]
 8001d36:	4413      	add	r3, r2
 8001d38:	4a04      	ldr	r2, [pc, #16]	; (8001d4c <HAL_IncTick+0x24>)
 8001d3a:	6013      	str	r3, [r2, #0]
 8001d3c:	bf00      	nop
 8001d3e:	46bd      	mov	sp, r7
 8001d40:	f85d 7b04 	ldr.w	r7, [sp], #4
 8001d44:	4770      	bx	lr
 8001d46:	bf00      	nop
 8001d48:	20000008 	.word	0x20000008
 8001d4c:	2000062c 	.word	0x2000062c

08001d50 <HAL_GetTick>:
 8001d50:	b480      	push	{r7}
 8001d52:	af00      	add	r7, sp, #0
 8001d54:	4b03      	ldr	r3, [pc, #12]	; (8001d64 <HAL_GetTick+0x14>)
 8001d56:	681b      	ldr	r3, [r3, #0]
 8001d58:	4618      	mov	r0, r3
 8001d5a:	46bd      	mov	sp, r7
 8001d5c:	f85d 7b04 	ldr.w	r7, [sp], #4
 8001d60:	4770      	bx	lr
 8001d62:	bf00      	nop
 8001d64:	2000062c 	.word	0x2000062c

08001d68 <HAL_Delay>:
 8001d68:	b580      	push	{r7, lr}
 8001d6a:	b084      	sub	sp, #16
 8001d6c:	af00      	add	r7, sp, #0
 8001d6e:	6078      	str	r0, [r7, #4]
 8001d70:	f7ff ffee 	bl	8001d50 <HAL_GetTick>
 8001d74:	60b8      	str	r0, [r7, #8]
 8001d76:	687b      	ldr	r3, [r7, #4]
 8001d78:	60fb      	str	r3, [r7, #12]
 8001d7a:	68fb      	ldr	r3, [r7, #12]
 8001d7c:	f1b3 3fff 	cmp.w	r3, #4294967295
 8001d80:	d005      	beq.n	8001d8e <HAL_Delay+0x26>
 8001d82:	4b0a      	ldr	r3, [pc, #40]	; (8001dac <HAL_Delay+0x44>)
 8001d84:	781b      	ldrb	r3, [r3, #0]
 8001d86:	461a      	mov	r2, r3
 8001d88:	68fb      	ldr	r3, [r7, #12]
 8001d8a:	4413      	add	r3, r2
 8001d8c:	60fb      	str	r3, [r7, #12]
 8001d8e:	bf00      	nop
 8001d90:	f7ff ffde 	bl	8001d50 <HAL_GetTick>
 8001d94:	4602      	mov	r2, r0
 8001d96:	68bb      	ldr	r3, [r7, #8]
 8001d98:	1ad3      	subs	r3, r2, r3
 8001d9a:	68fa      	ldr	r2, [r7, #12]
 8001d9c:	429a      	cmp	r2, r3
 8001d9e:	d8f7      	bhi.n	8001d90 <HAL_Delay+0x28>
 8001da0:	bf00      	nop
 8001da2:	bf00      	nop
 8001da4:	3710      	adds	r7, #16
 8001da6:	46bd      	mov	sp, r7
 8001da8:	bd80      	pop	{r7, pc}
 8001daa:	bf00      	nop
 8001dac:	20000008 	.word	0x20000008

08001db0 <HAL_ADC_Init>:
 8001db0:	b580      	push	{r7, lr}
 8001db2:	b084      	sub	sp, #16
 8001db4:	af00      	add	r7, sp, #0
 8001db6:	6078      	str	r0, [r7, #4]
 8001db8:	2300      	movs	r3, #0
 8001dba:	73fb      	strb	r3, [r7, #15]
 8001dbc:	687b      	ldr	r3, [r7, #4]
 8001dbe:	2b00      	cmp	r3, #0
 8001dc0:	d101      	bne.n	8001dc6 <HAL_ADC_Init+0x16>
 8001dc2:	2301      	movs	r3, #1
 8001dc4:	e033      	b.n	8001e2e <HAL_ADC_Init+0x7e>
 8001dc6:	687b      	ldr	r3, [r7, #4]
 8001dc8:	6c1b      	ldr	r3, [r3, #64]	; 0x40
 8001dca:	2b00      	cmp	r3, #0
 8001dcc:	d109      	bne.n	8001de2 <HAL_ADC_Init+0x32>
 8001dce:	6878      	ldr	r0, [r7, #4]
 8001dd0:	f7ff fd14 	bl	80017fc <HAL_ADC_MspInit>
 8001dd4:	687b      	ldr	r3, [r7, #4]
 8001dd6:	2200      	movs	r2, #0
 8001dd8:	645a      	str	r2, [r3, #68]	; 0x44
 8001dda:	687b      	ldr	r3, [r7, #4]
 8001ddc:	2200      	movs	r2, #0
 8001dde:	f883 203c 	strb.w	r2, [r3, #60]	; 0x3c
 8001de2:	687b      	ldr	r3, [r7, #4]
 8001de4:	6c1b      	ldr	r3, [r3, #64]	; 0x40
 8001de6:	f003 0310 	and.w	r3, r3, #16
 8001dea:	2b00      	cmp	r3, #0
 8001dec:	d118      	bne.n	8001e20 <HAL_ADC_Init+0x70>
 8001dee:	687b      	ldr	r3, [r7, #4]
 8001df0:	6c1b      	ldr	r3, [r3, #64]	; 0x40
 8001df2:	f423 5388 	bic.w	r3, r3, #4352	; 0x1100
 8001df6:	f023 0302 	bic.w	r3, r3, #2
 8001dfa:	f043 0202 	orr.w	r2, r3, #2
 8001dfe:	687b      	ldr	r3, [r7, #4]
 8001e00:	641a      	str	r2, [r3, #64]	; 0x40
 8001e02:	6878      	ldr	r0, [r7, #4]
 8001e04:	f000 fa52 	bl	80022ac <ADC_Init>
 8001e08:	687b      	ldr	r3, [r7, #4]
 8001e0a:	2200      	movs	r2, #0
 8001e0c:	645a      	str	r2, [r3, #68]	; 0x44
 8001e0e:	687b      	ldr	r3, [r7, #4]
 8001e10:	6c1b      	ldr	r3, [r3, #64]	; 0x40
 8001e12:	f023 0303 	bic.w	r3, r3, #3
 8001e16:	f043 0201 	orr.w	r2, r3, #1
 8001e1a:	687b      	ldr	r3, [r7, #4]
 8001e1c:	641a      	str	r2, [r3, #64]	; 0x40
 8001e1e:	e001      	b.n	8001e24 <HAL_ADC_Init+0x74>
 8001e20:	2301      	movs	r3, #1
 8001e22:	73fb      	strb	r3, [r7, #15]
 8001e24:	687b      	ldr	r3, [r7, #4]
 8001e26:	2200      	movs	r2, #0
 8001e28:	f883 203c 	strb.w	r2, [r3, #60]	; 0x3c
 8001e2c:	7bfb      	ldrb	r3, [r7, #15]
 8001e2e:	4618      	mov	r0, r3
 8001e30:	3710      	adds	r7, #16
 8001e32:	46bd      	mov	sp, r7
 8001e34:	bd80      	pop	{r7, pc}
	...

08001e38 <HAL_ADC_Start_DMA>:
 8001e38:	b580      	push	{r7, lr}
 8001e3a:	b088      	sub	sp, #32
 8001e3c:	af00      	add	r7, sp, #0
 8001e3e:	60f8      	str	r0, [r7, #12]
 8001e40:	60b9      	str	r1, [r7, #8]
 8001e42:	607a      	str	r2, [r7, #4]
 8001e44:	2300      	movs	r3, #0
 8001e46:	617b      	str	r3, [r7, #20]
 8001e48:	2300      	movs	r3, #0
 8001e4a:	77fb      	strb	r3, [r7, #31]
 8001e4c:	68fb      	ldr	r3, [r7, #12]
 8001e4e:	f893 303c 	ldrb.w	r3, [r3, #60]	; 0x3c
 8001e52:	2b01      	cmp	r3, #1
 8001e54:	d101      	bne.n	8001e5a <HAL_ADC_Start_DMA+0x22>
 8001e56:	2302      	movs	r3, #2
 8001e58:	e0d0      	b.n	8001ffc <HAL_ADC_Start_DMA+0x1c4>
 8001e5a:	68fb      	ldr	r3, [r7, #12]
 8001e5c:	2201      	movs	r2, #1
 8001e5e:	f883 203c 	strb.w	r2, [r3, #60]	; 0x3c
 8001e62:	68fb      	ldr	r3, [r7, #12]
 8001e64:	681b      	ldr	r3, [r3, #0]
 8001e66:	689b      	ldr	r3, [r3, #8]
 8001e68:	f003 0301 	and.w	r3, r3, #1
 8001e6c:	2b01      	cmp	r3, #1
 8001e6e:	d018      	beq.n	8001ea2 <HAL_ADC_Start_DMA+0x6a>
 8001e70:	68fb      	ldr	r3, [r7, #12]
 8001e72:	681b      	ldr	r3, [r3, #0]
 8001e74:	689a      	ldr	r2, [r3, #8]
 8001e76:	68fb      	ldr	r3, [r7, #12]
 8001e78:	681b      	ldr	r3, [r3, #0]
 8001e7a:	f042 0201 	orr.w	r2, r2, #1
 8001e7e:	609a      	str	r2, [r3, #8]
 8001e80:	4b60      	ldr	r3, [pc, #384]	; (8002004 <HAL_ADC_Start_DMA+0x1cc>)
 8001e82:	681b      	ldr	r3, [r3, #0]
 8001e84:	4a60      	ldr	r2, [pc, #384]	; (8002008 <HAL_ADC_Start_DMA+0x1d0>)
 8001e86:	fba2 2303 	umull	r2, r3, r2, r3
 8001e8a:	0c9a      	lsrs	r2, r3, #18
 8001e8c:	4613      	mov	r3, r2
 8001e8e:	005b      	lsls	r3, r3, #1
 8001e90:	4413      	add	r3, r2
 8001e92:	617b      	str	r3, [r7, #20]
 8001e94:	e002      	b.n	8001e9c <HAL_ADC_Start_DMA+0x64>
 8001e96:	697b      	ldr	r3, [r7, #20]
 8001e98:	3b01      	subs	r3, #1
 8001e9a:	617b      	str	r3, [r7, #20]
 8001e9c:	697b      	ldr	r3, [r7, #20]
 8001e9e:	2b00      	cmp	r3, #0
 8001ea0:	d1f9      	bne.n	8001e96 <HAL_ADC_Start_DMA+0x5e>
 8001ea2:	68fb      	ldr	r3, [r7, #12]
 8001ea4:	681b      	ldr	r3, [r3, #0]
 8001ea6:	689b      	ldr	r3, [r3, #8]
 8001ea8:	f403 7380 	and.w	r3, r3, #256	; 0x100
 8001eac:	f5b3 7f80 	cmp.w	r3, #256	; 0x100
 8001eb0:	d107      	bne.n	8001ec2 <HAL_ADC_Start_DMA+0x8a>
 8001eb2:	68fb      	ldr	r3, [r7, #12]
 8001eb4:	681b      	ldr	r3, [r3, #0]
 8001eb6:	689a      	ldr	r2, [r3, #8]
 8001eb8:	68fb      	ldr	r3, [r7, #12]
 8001eba:	681b      	ldr	r3, [r3, #0]
 8001ebc:	f422 7280 	bic.w	r2, r2, #256	; 0x100
 8001ec0:	609a      	str	r2, [r3, #8]
 8001ec2:	68fb      	ldr	r3, [r7, #12]
 8001ec4:	681b      	ldr	r3, [r3, #0]
 8001ec6:	689b      	ldr	r3, [r3, #8]
 8001ec8:	f003 0301 	and.w	r3, r3, #1
 8001ecc:	2b01      	cmp	r3, #1
 8001ece:	f040 8088 	bne.w	8001fe2 <HAL_ADC_Start_DMA+0x1aa>
 8001ed2:	68fb      	ldr	r3, [r7, #12]
 8001ed4:	6c1b      	ldr	r3, [r3, #64]	; 0x40
 8001ed6:	f423 63e0 	bic.w	r3, r3, #1792	; 0x700
 8001eda:	f023 0301 	bic.w	r3, r3, #1
 8001ede:	f443 7280 	orr.w	r2, r3, #256	; 0x100
 8001ee2:	68fb      	ldr	r3, [r7, #12]
 8001ee4:	641a      	str	r2, [r3, #64]	; 0x40
 8001ee6:	68fb      	ldr	r3, [r7, #12]
 8001ee8:	681b      	ldr	r3, [r3, #0]
 8001eea:	685b      	ldr	r3, [r3, #4]
 8001eec:	f403 6380 	and.w	r3, r3, #1024	; 0x400
 8001ef0:	2b00      	cmp	r3, #0
 8001ef2:	d007      	beq.n	8001f04 <HAL_ADC_Start_DMA+0xcc>
 8001ef4:	68fb      	ldr	r3, [r7, #12]
 8001ef6:	6c1b      	ldr	r3, [r3, #64]	; 0x40
 8001ef8:	f423 5340 	bic.w	r3, r3, #12288	; 0x3000
 8001efc:	f443 5280 	orr.w	r2, r3, #4096	; 0x1000
 8001f00:	68fb      	ldr	r3, [r7, #12]
 8001f02:	641a      	str	r2, [r3, #64]	; 0x40
 8001f04:	68fb      	ldr	r3, [r7, #12]
 8001f06:	6c1b      	ldr	r3, [r3, #64]	; 0x40
 8001f08:	f403 5380 	and.w	r3, r3, #4096	; 0x1000
 8001f0c:	f5b3 5f80 	cmp.w	r3, #4096	; 0x1000
 8001f10:	d106      	bne.n	8001f20 <HAL_ADC_Start_DMA+0xe8>
 8001f12:	68fb      	ldr	r3, [r7, #12]
 8001f14:	6c5b      	ldr	r3, [r3, #68]	; 0x44
 8001f16:	f023 0206 	bic.w	r2, r3, #6
 8001f1a:	68fb      	ldr	r3, [r7, #12]
 8001f1c:	645a      	str	r2, [r3, #68]	; 0x44
 8001f1e:	e002      	b.n	8001f26 <HAL_ADC_Start_DMA+0xee>
 8001f20:	68fb      	ldr	r3, [r7, #12]
 8001f22:	2200      	movs	r2, #0
 8001f24:	645a      	str	r2, [r3, #68]	; 0x44
 8001f26:	68fb      	ldr	r3, [r7, #12]
 8001f28:	2200      	movs	r2, #0
 8001f2a:	f883 203c 	strb.w	r2, [r3, #60]	; 0x3c
 8001f2e:	4b37      	ldr	r3, [pc, #220]	; (800200c <HAL_ADC_Start_DMA+0x1d4>)
 8001f30:	61bb      	str	r3, [r7, #24]
 8001f32:	68fb      	ldr	r3, [r7, #12]
 8001f34:	6b9b      	ldr	r3, [r3, #56]	; 0x38
 8001f36:	4a36      	ldr	r2, [pc, #216]	; (8002010 <HAL_ADC_Start_DMA+0x1d8>)
 8001f38:	63da      	str	r2, [r3, #60]	; 0x3c
 8001f3a:	68fb      	ldr	r3, [r7, #12]
 8001f3c:	6b9b      	ldr	r3, [r3, #56]	; 0x38
 8001f3e:	4a35      	ldr	r2, [pc, #212]	; (8002014 <HAL_ADC_Start_DMA+0x1dc>)
 8001f40:	641a      	str	r2, [r3, #64]	; 0x40
 8001f42:	68fb      	ldr	r3, [r7, #12]
 8001f44:	6b9b      	ldr	r3, [r3, #56]	; 0x38
 8001f46:	4a34      	ldr	r2, [pc, #208]	; (8002018 <HAL_ADC_Start_DMA+0x1e0>)
 8001f48:	64da      	str	r2, [r3, #76]	; 0x4c
 8001f4a:	68fb      	ldr	r3, [r7, #12]
 8001f4c:	681b      	ldr	r3, [r3, #0]
 8001f4e:	f06f 0222 	mvn.w	r2, #34	; 0x22
 8001f52:	601a      	str	r2, [r3, #0]
 8001f54:	68fb      	ldr	r3, [r7, #12]
 8001f56:	681b      	ldr	r3, [r3, #0]
 8001f58:	685a      	ldr	r2, [r3, #4]
 8001f5a:	68fb      	ldr	r3, [r7, #12]
 8001f5c:	681b      	ldr	r3, [r3, #0]
 8001f5e:	f042 6280 	orr.w	r2, r2, #67108864	; 0x4000000
 8001f62:	605a      	str	r2, [r3, #4]
 8001f64:	68fb      	ldr	r3, [r7, #12]
 8001f66:	681b      	ldr	r3, [r3, #0]
 8001f68:	689a      	ldr	r2, [r3, #8]
 8001f6a:	68fb      	ldr	r3, [r7, #12]
 8001f6c:	681b      	ldr	r3, [r3, #0]
 8001f6e:	f442 7280 	orr.w	r2, r2, #256	; 0x100
 8001f72:	609a      	str	r2, [r3, #8]
 8001f74:	68fb      	ldr	r3, [r7, #12]
 8001f76:	6b98      	ldr	r0, [r3, #56]	; 0x38
 8001f78:	68fb      	ldr	r3, [r7, #12]
 8001f7a:	681b      	ldr	r3, [r3, #0]
 8001f7c:	334c      	adds	r3, #76	; 0x4c
 8001f7e:	4619      	mov	r1, r3
 8001f80:	68ba      	ldr	r2, [r7, #8]
 8001f82:	687b      	ldr	r3, [r7, #4]
 8001f84:	f000 fcd0 	bl	8002928 <HAL_DMA_Start_IT>
 8001f88:	4603      	mov	r3, r0
 8001f8a:	77fb      	strb	r3, [r7, #31]
 8001f8c:	69bb      	ldr	r3, [r7, #24]
 8001f8e:	685b      	ldr	r3, [r3, #4]
 8001f90:	f003 031f 	and.w	r3, r3, #31
 8001f94:	2b00      	cmp	r3, #0
 8001f96:	d10f      	bne.n	8001fb8 <HAL_ADC_Start_DMA+0x180>
 8001f98:	68fb      	ldr	r3, [r7, #12]
 8001f9a:	681b      	ldr	r3, [r3, #0]
 8001f9c:	689b      	ldr	r3, [r3, #8]
 8001f9e:	f003 5340 	and.w	r3, r3, #805306368	; 0x30000000
 8001fa2:	2b00      	cmp	r3, #0
 8001fa4:	d129      	bne.n	8001ffa <HAL_ADC_Start_DMA+0x1c2>
 8001fa6:	68fb      	ldr	r3, [r7, #12]
 8001fa8:	681b      	ldr	r3, [r3, #0]
 8001faa:	689a      	ldr	r2, [r3, #8]
 8001fac:	68fb      	ldr	r3, [r7, #12]
 8001fae:	681b      	ldr	r3, [r3, #0]
 8001fb0:	f042 4280 	orr.w	r2, r2, #1073741824	; 0x40000000
 8001fb4:	609a      	str	r2, [r3, #8]
 8001fb6:	e020      	b.n	8001ffa <HAL_ADC_Start_DMA+0x1c2>
 8001fb8:	68fb      	ldr	r3, [r7, #12]
 8001fba:	681b      	ldr	r3, [r3, #0]
 8001fbc:	4a17      	ldr	r2, [pc, #92]	; (800201c <HAL_ADC_Start_DMA+0x1e4>)
 8001fbe:	4293      	cmp	r3, r2
 8001fc0:	d11b      	bne.n	8001ffa <HAL_ADC_Start_DMA+0x1c2>
 8001fc2:	68fb      	ldr	r3, [r7, #12]
 8001fc4:	681b      	ldr	r3, [r3, #0]
 8001fc6:	689b      	ldr	r3, [r3, #8]
 8001fc8:	f003 5340 	and.w	r3, r3, #805306368	; 0x30000000
 8001fcc:	2b00      	cmp	r3, #0
 8001fce:	d114      	bne.n	8001ffa <HAL_ADC_Start_DMA+0x1c2>
 8001fd0:	68fb      	ldr	r3, [r7, #12]
 8001fd2:	681b      	ldr	r3, [r3, #0]
 8001fd4:	689a      	ldr	r2, [r3, #8]
 8001fd6:	68fb      	ldr	r3, [r7, #12]
 8001fd8:	681b      	ldr	r3, [r3, #0]
 8001fda:	f042 4280 	orr.w	r2, r2, #1073741824	; 0x40000000
 8001fde:	609a      	str	r2, [r3, #8]
 8001fe0:	e00b      	b.n	8001ffa <HAL_ADC_Start_DMA+0x1c2>
 8001fe2:	68fb      	ldr	r3, [r7, #12]
 8001fe4:	6c1b      	ldr	r3, [r3, #64]	; 0x40
 8001fe6:	f043 0210 	orr.w	r2, r3, #16
 8001fea:	68fb      	ldr	r3, [r7, #12]
 8001fec:	641a      	str	r2, [r3, #64]	; 0x40
 8001fee:	68fb      	ldr	r3, [r7, #12]
 8001ff0:	6c5b      	ldr	r3, [r3, #68]	; 0x44
 8001ff2:	f043 0201 	orr.w	r2, r3, #1
 8001ff6:	68fb      	ldr	r3, [r7, #12]
 8001ff8:	645a      	str	r2, [r3, #68]	; 0x44
 8001ffa:	7ffb      	ldrb	r3, [r7, #31]
 8001ffc:	4618      	mov	r0, r3
 8001ffe:	3720      	adds	r7, #32
 8002000:	46bd      	mov	sp, r7
 8002002:	bd80      	pop	{r7, pc}
 8002004:	20000000 	.word	0x20000000
 8002008:	431bde83 	.word	0x431bde83
 800200c:	40012300 	.word	0x40012300
 8002010:	080024a5 	.word	0x080024a5
 8002014:	0800255f 	.word	0x0800255f
 8002018:	0800257b 	.word	0x0800257b
 800201c:	40012000 	.word	0x40012000

08002020 <HAL_ADC_ConvHalfCpltCallback>:
 8002020:	b480      	push	{r7}
 8002022:	b083      	sub	sp, #12
 8002024:	af00      	add	r7, sp, #0
 8002026:	6078      	str	r0, [r7, #4]
 8002028:	bf00      	nop
 800202a:	370c      	adds	r7, #12
 800202c:	46bd      	mov	sp, r7
 800202e:	f85d 7b04 	ldr.w	r7, [sp], #4
 8002032:	4770      	bx	lr

08002034 <HAL_ADC_ErrorCallback>:
 8002034:	b480      	push	{r7}
 8002036:	b083      	sub	sp, #12
 8002038:	af00      	add	r7, sp, #0
 800203a:	6078      	str	r0, [r7, #4]
 800203c:	bf00      	nop
 800203e:	370c      	adds	r7, #12
 8002040:	46bd      	mov	sp, r7
 8002042:	f85d 7b04 	ldr.w	r7, [sp], #4
 8002046:	4770      	bx	lr

08002048 <HAL_ADC_ConfigChannel>:
 8002048:	b480      	push	{r7}
 800204a:	b085      	sub	sp, #20
 800204c:	af00      	add	r7, sp, #0
 800204e:	6078      	str	r0, [r7, #4]
 8002050:	6039      	str	r1, [r7, #0]
 8002052:	2300      	movs	r3, #0
 8002054:	60bb      	str	r3, [r7, #8]
 8002056:	687b      	ldr	r3, [r7, #4]
 8002058:	f893 303c 	ldrb.w	r3, [r3, #60]	; 0x3c
 800205c:	2b01      	cmp	r3, #1
 800205e:	d101      	bne.n	8002064 <HAL_ADC_ConfigChannel+0x1c>
 8002060:	2302      	movs	r3, #2
 8002062:	e113      	b.n	800228c <HAL_ADC_ConfigChannel+0x244>
 8002064:	687b      	ldr	r3, [r7, #4]
 8002066:	2201      	movs	r2, #1
 8002068:	f883 203c 	strb.w	r2, [r3, #60]	; 0x3c
 800206c:	683b      	ldr	r3, [r7, #0]
 800206e:	681b      	ldr	r3, [r3, #0]
 8002070:	2b09      	cmp	r3, #9
 8002072:	d925      	bls.n	80020c0 <HAL_ADC_ConfigChannel+0x78>
 8002074:	687b      	ldr	r3, [r7, #4]
 8002076:	681b      	ldr	r3, [r3, #0]
 8002078:	68d9      	ldr	r1, [r3, #12]
 800207a:	683b      	ldr	r3, [r7, #0]
 800207c:	681b      	ldr	r3, [r3, #0]
 800207e:	b29b      	uxth	r3, r3
 8002080:	461a      	mov	r2, r3
 8002082:	4613      	mov	r3, r2
 8002084:	005b      	lsls	r3, r3, #1
 8002086:	4413      	add	r3, r2
 8002088:	3b1e      	subs	r3, #30
 800208a:	2207      	movs	r2, #7
 800208c:	fa02 f303 	lsl.w	r3, r2, r3
 8002090:	43da      	mvns	r2, r3
 8002092:	687b      	ldr	r3, [r7, #4]
 8002094:	681b      	ldr	r3, [r3, #0]
 8002096:	400a      	ands	r2, r1
 8002098:	60da      	str	r2, [r3, #12]
 800209a:	687b      	ldr	r3, [r7, #4]
 800209c:	681b      	ldr	r3, [r3, #0]
 800209e:	68d9      	ldr	r1, [r3, #12]
 80020a0:	683b      	ldr	r3, [r7, #0]
 80020a2:	689a      	ldr	r2, [r3, #8]
 80020a4:	683b      	ldr	r3, [r7, #0]
 80020a6:	681b      	ldr	r3, [r3, #0]
 80020a8:	b29b      	uxth	r3, r3
 80020aa:	4618      	mov	r0, r3
 80020ac:	4603      	mov	r3, r0
 80020ae:	005b      	lsls	r3, r3, #1
 80020b0:	4403      	add	r3, r0
 80020b2:	3b1e      	subs	r3, #30
 80020b4:	409a      	lsls	r2, r3
 80020b6:	687b      	ldr	r3, [r7, #4]
 80020b8:	681b      	ldr	r3, [r3, #0]
 80020ba:	430a      	orrs	r2, r1
 80020bc:	60da      	str	r2, [r3, #12]
 80020be:	e022      	b.n	8002106 <HAL_ADC_ConfigChannel+0xbe>
 80020c0:	687b      	ldr	r3, [r7, #4]
 80020c2:	681b      	ldr	r3, [r3, #0]
 80020c4:	6919      	ldr	r1, [r3, #16]
 80020c6:	683b      	ldr	r3, [r7, #0]
 80020c8:	681b      	ldr	r3, [r3, #0]
 80020ca:	b29b      	uxth	r3, r3
 80020cc:	461a      	mov	r2, r3
 80020ce:	4613      	mov	r3, r2
 80020d0:	005b      	lsls	r3, r3, #1
 80020d2:	4413      	add	r3, r2
 80020d4:	2207      	movs	r2, #7
 80020d6:	fa02 f303 	lsl.w	r3, r2, r3
 80020da:	43da      	mvns	r2, r3
 80020dc:	687b      	ldr	r3, [r7, #4]
 80020de:	681b      	ldr	r3, [r3, #0]
 80020e0:	400a      	ands	r2, r1
 80020e2:	611a      	str	r2, [r3, #16]
 80020e4:	687b      	ldr	r3, [r7, #4]
 80020e6:	681b      	ldr	r3, [r3, #0]
 80020e8:	6919      	ldr	r1, [r3, #16]
 80020ea:	683b      	ldr	r3, [r7, #0]
 80020ec:	689a      	ldr	r2, [r3, #8]
 80020ee:	683b      	ldr	r3, [r7, #0]
 80020f0:	681b      	ldr	r3, [r3, #0]
 80020f2:	b29b      	uxth	r3, r3
 80020f4:	4618      	mov	r0, r3
 80020f6:	4603      	mov	r3, r0
 80020f8:	005b      	lsls	r3, r3, #1
 80020fa:	4403      	add	r3, r0
 80020fc:	409a      	lsls	r2, r3
 80020fe:	687b      	ldr	r3, [r7, #4]
 8002100:	681b      	ldr	r3, [r3, #0]
 8002102:	430a      	orrs	r2, r1
 8002104:	611a      	str	r2, [r3, #16]
 8002106:	683b      	ldr	r3, [r7, #0]
 8002108:	685b      	ldr	r3, [r3, #4]
 800210a:	2b06      	cmp	r3, #6
 800210c:	d824      	bhi.n	8002158 <HAL_ADC_ConfigChannel+0x110>
 800210e:	687b      	ldr	r3, [r7, #4]
 8002110:	681b      	ldr	r3, [r3, #0]
 8002112:	6b59      	ldr	r1, [r3, #52]	; 0x34
 8002114:	683b      	ldr	r3, [r7, #0]
 8002116:	685a      	ldr	r2, [r3, #4]
 8002118:	4613      	mov	r3, r2
 800211a:	009b      	lsls	r3, r3, #2
 800211c:	4413      	add	r3, r2
 800211e:	3b05      	subs	r3, #5
 8002120:	221f      	movs	r2, #31
 8002122:	fa02 f303 	lsl.w	r3, r2, r3
 8002126:	43da      	mvns	r2, r3
 8002128:	687b      	ldr	r3, [r7, #4]
 800212a:	681b      	ldr	r3, [r3, #0]
 800212c:	400a      	ands	r2, r1
 800212e:	635a      	str	r2, [r3, #52]	; 0x34
 8002130:	687b      	ldr	r3, [r7, #4]
 8002132:	681b      	ldr	r3, [r3, #0]
 8002134:	6b59      	ldr	r1, [r3, #52]	; 0x34
 8002136:	683b      	ldr	r3, [r7, #0]
 8002138:	681b      	ldr	r3, [r3, #0]
 800213a:	b29b      	uxth	r3, r3
 800213c:	4618      	mov	r0, r3
 800213e:	683b      	ldr	r3, [r7, #0]
 8002140:	685a      	ldr	r2, [r3, #4]
 8002142:	4613      	mov	r3, r2
 8002144:	009b      	lsls	r3, r3, #2
 8002146:	4413      	add	r3, r2
 8002148:	3b05      	subs	r3, #5
 800214a:	fa00 f203 	lsl.w	r2, r0, r3
 800214e:	687b      	ldr	r3, [r7, #4]
 8002150:	681b      	ldr	r3, [r3, #0]
 8002152:	430a      	orrs	r2, r1
 8002154:	635a      	str	r2, [r3, #52]	; 0x34
 8002156:	e04c      	b.n	80021f2 <HAL_ADC_ConfigChannel+0x1aa>
 8002158:	683b      	ldr	r3, [r7, #0]
 800215a:	685b      	ldr	r3, [r3, #4]
 800215c:	2b0c      	cmp	r3, #12
 800215e:	d824      	bhi.n	80021aa <HAL_ADC_ConfigChannel+0x162>
 8002160:	687b      	ldr	r3, [r7, #4]
 8002162:	681b      	ldr	r3, [r3, #0]
 8002164:	6b19      	ldr	r1, [r3, #48]	; 0x30
 8002166:	683b      	ldr	r3, [r7, #0]
 8002168:	685a      	ldr	r2, [r3, #4]
 800216a:	4613      	mov	r3, r2
 800216c:	009b      	lsls	r3, r3, #2
 800216e:	4413      	add	r3, r2
 8002170:	3b23      	subs	r3, #35	; 0x23
 8002172:	221f      	movs	r2, #31
 8002174:	fa02 f303 	lsl.w	r3, r2, r3
 8002178:	43da      	mvns	r2, r3
 800217a:	687b      	ldr	r3, [r7, #4]
 800217c:	681b      	ldr	r3, [r3, #0]
 800217e:	400a      	ands	r2, r1
 8002180:	631a      	str	r2, [r3, #48]	; 0x30
 8002182:	687b      	ldr	r3, [r7, #4]
 8002184:	681b      	ldr	r3, [r3, #0]
 8002186:	6b19      	ldr	r1, [r3, #48]	; 0x30
 8002188:	683b      	ldr	r3, [r7, #0]
 800218a:	681b      	ldr	r3, [r3, #0]
 800218c:	b29b      	uxth	r3, r3
 800218e:	4618      	mov	r0, r3
 8002190:	683b      	ldr	r3, [r7, #0]
 8002192:	685a      	ldr	r2, [r3, #4]
 8002194:	4613      	mov	r3, r2
 8002196:	009b      	lsls	r3, r3, #2
 8002198:	4413      	add	r3, r2
 800219a:	3b23      	subs	r3, #35	; 0x23
 800219c:	fa00 f203 	lsl.w	r2, r0, r3
 80021a0:	687b      	ldr	r3, [r7, #4]
 80021a2:	681b      	ldr	r3, [r3, #0]
 80021a4:	430a      	orrs	r2, r1
 80021a6:	631a      	str	r2, [r3, #48]	; 0x30
 80021a8:	e023      	b.n	80021f2 <HAL_ADC_ConfigChannel+0x1aa>
 80021aa:	687b      	ldr	r3, [r7, #4]
 80021ac:	681b      	ldr	r3, [r3, #0]
 80021ae:	6ad9      	ldr	r1, [r3, #44]	; 0x2c
 80021b0:	683b      	ldr	r3, [r7, #0]
 80021b2:	685a      	ldr	r2, [r3, #4]
 80021b4:	4613      	mov	r3, r2
 80021b6:	009b      	lsls	r3, r3, #2
 80021b8:	4413      	add	r3, r2
 80021ba:	3b41      	subs	r3, #65	; 0x41
 80021bc:	221f      	movs	r2, #31
 80021be:	fa02 f303 	lsl.w	r3, r2, r3
 80021c2:	43da      	mvns	r2, r3
 80021c4:	687b      	ldr	r3, [r7, #4]
 80021c6:	681b      	ldr	r3, [r3, #0]
 80021c8:	400a      	ands	r2, r1
 80021ca:	62da      	str	r2, [r3, #44]	; 0x2c
 80021cc:	687b      	ldr	r3, [r7, #4]
 80021ce:	681b      	ldr	r3, [r3, #0]
 80021d0:	6ad9      	ldr	r1, [r3, #44]	; 0x2c
 80021d2:	683b      	ldr	r3, [r7, #0]
 80021d4:	681b      	ldr	r3, [r3, #0]
 80021d6:	b29b      	uxth	r3, r3
 80021d8:	4618      	mov	r0, r3
 80021da:	683b      	ldr	r3, [r7, #0]
 80021dc:	685a      	ldr	r2, [r3, #4]
 80021de:	4613      	mov	r3, r2
 80021e0:	009b      	lsls	r3, r3, #2
 80021e2:	4413      	add	r3, r2
 80021e4:	3b41      	subs	r3, #65	; 0x41
 80021e6:	fa00 f203 	lsl.w	r2, r0, r3
 80021ea:	687b      	ldr	r3, [r7, #4]
 80021ec:	681b      	ldr	r3, [r3, #0]
 80021ee:	430a      	orrs	r2, r1
 80021f0:	62da      	str	r2, [r3, #44]	; 0x2c
 80021f2:	4b29      	ldr	r3, [pc, #164]	; (8002298 <HAL_ADC_ConfigChannel+0x250>)
 80021f4:	60fb      	str	r3, [r7, #12]
 80021f6:	687b      	ldr	r3, [r7, #4]
 80021f8:	681b      	ldr	r3, [r3, #0]
 80021fa:	4a28      	ldr	r2, [pc, #160]	; (800229c <HAL_ADC_ConfigChannel+0x254>)
 80021fc:	4293      	cmp	r3, r2
 80021fe:	d10f      	bne.n	8002220 <HAL_ADC_ConfigChannel+0x1d8>
 8002200:	683b      	ldr	r3, [r7, #0]
 8002202:	681b      	ldr	r3, [r3, #0]
 8002204:	2b12      	cmp	r3, #18
 8002206:	d10b      	bne.n	8002220 <HAL_ADC_ConfigChannel+0x1d8>
 8002208:	68fb      	ldr	r3, [r7, #12]
 800220a:	685b      	ldr	r3, [r3, #4]
 800220c:	f423 0200 	bic.w	r2, r3, #8388608	; 0x800000
 8002210:	68fb      	ldr	r3, [r7, #12]
 8002212:	605a      	str	r2, [r3, #4]
 8002214:	68fb      	ldr	r3, [r7, #12]
 8002216:	685b      	ldr	r3, [r3, #4]
 8002218:	f443 0280 	orr.w	r2, r3, #4194304	; 0x400000
 800221c:	68fb      	ldr	r3, [r7, #12]
 800221e:	605a      	str	r2, [r3, #4]
 8002220:	687b      	ldr	r3, [r7, #4]
 8002222:	681b      	ldr	r3, [r3, #0]
 8002224:	4a1d      	ldr	r2, [pc, #116]	; (800229c <HAL_ADC_ConfigChannel+0x254>)
 8002226:	4293      	cmp	r3, r2
 8002228:	d12b      	bne.n	8002282 <HAL_ADC_ConfigChannel+0x23a>
 800222a:	683b      	ldr	r3, [r7, #0]
 800222c:	681b      	ldr	r3, [r3, #0]
 800222e:	4a1c      	ldr	r2, [pc, #112]	; (80022a0 <HAL_ADC_ConfigChannel+0x258>)
 8002230:	4293      	cmp	r3, r2
 8002232:	d003      	beq.n	800223c <HAL_ADC_ConfigChannel+0x1f4>
 8002234:	683b      	ldr	r3, [r7, #0]
 8002236:	681b      	ldr	r3, [r3, #0]
 8002238:	2b11      	cmp	r3, #17
 800223a:	d122      	bne.n	8002282 <HAL_ADC_ConfigChannel+0x23a>
 800223c:	68fb      	ldr	r3, [r7, #12]
 800223e:	685b      	ldr	r3, [r3, #4]
 8002240:	f423 0280 	bic.w	r2, r3, #4194304	; 0x400000
 8002244:	68fb      	ldr	r3, [r7, #12]
 8002246:	605a      	str	r2, [r3, #4]
 8002248:	68fb      	ldr	r3, [r7, #12]
 800224a:	685b      	ldr	r3, [r3, #4]
 800224c:	f443 0200 	orr.w	r2, r3, #8388608	; 0x800000
 8002250:	68fb      	ldr	r3, [r7, #12]
 8002252:	605a      	str	r2, [r3, #4]
 8002254:	683b      	ldr	r3, [r7, #0]
 8002256:	681b      	ldr	r3, [r3, #0]
 8002258:	4a11      	ldr	r2, [pc, #68]	; (80022a0 <HAL_ADC_ConfigChannel+0x258>)
 800225a:	4293      	cmp	r3, r2
 800225c:	d111      	bne.n	8002282 <HAL_ADC_ConfigChannel+0x23a>
 800225e:	4b11      	ldr	r3, [pc, #68]	; (80022a4 <HAL_ADC_ConfigChannel+0x25c>)
 8002260:	681b      	ldr	r3, [r3, #0]
 8002262:	4a11      	ldr	r2, [pc, #68]	; (80022a8 <HAL_ADC_ConfigChannel+0x260>)
 8002264:	fba2 2303 	umull	r2, r3, r2, r3
 8002268:	0c9a      	lsrs	r2, r3, #18
 800226a:	4613      	mov	r3, r2
 800226c:	009b      	lsls	r3, r3, #2
 800226e:	4413      	add	r3, r2
 8002270:	005b      	lsls	r3, r3, #1
 8002272:	60bb      	str	r3, [r7, #8]
 8002274:	e002      	b.n	800227c <HAL_ADC_ConfigChannel+0x234>
 8002276:	68bb      	ldr	r3, [r7, #8]
 8002278:	3b01      	subs	r3, #1
 800227a:	60bb      	str	r3, [r7, #8]
 800227c:	68bb      	ldr	r3, [r7, #8]
 800227e:	2b00      	cmp	r3, #0
 8002280:	d1f9      	bne.n	8002276 <HAL_ADC_ConfigChannel+0x22e>
 8002282:	687b      	ldr	r3, [r7, #4]
 8002284:	2200      	movs	r2, #0
 8002286:	f883 203c 	strb.w	r2, [r3, #60]	; 0x3c
 800228a:	2300      	movs	r3, #0
 800228c:	4618      	mov	r0, r3
 800228e:	3714      	adds	r7, #20
 8002290:	46bd      	mov	sp, r7
 8002292:	f85d 7b04 	ldr.w	r7, [sp], #4
 8002296:	4770      	bx	lr
 8002298:	40012300 	.word	0x40012300
 800229c:	40012000 	.word	0x40012000
 80022a0:	10000012 	.word	0x10000012
 80022a4:	20000000 	.word	0x20000000
 80022a8:	431bde83 	.word	0x431bde83

080022ac <ADC_Init>:
 80022ac:	b480      	push	{r7}
 80022ae:	b085      	sub	sp, #20
 80022b0:	af00      	add	r7, sp, #0
 80022b2:	6078      	str	r0, [r7, #4]
 80022b4:	4b79      	ldr	r3, [pc, #484]	; (800249c <ADC_Init+0x1f0>)
 80022b6:	60fb      	str	r3, [r7, #12]
 80022b8:	68fb      	ldr	r3, [r7, #12]
 80022ba:	685b      	ldr	r3, [r3, #4]
 80022bc:	f423 3240 	bic.w	r2, r3, #196608	; 0x30000
 80022c0:	68fb      	ldr	r3, [r7, #12]
 80022c2:	605a      	str	r2, [r3, #4]
 80022c4:	68fb      	ldr	r3, [r7, #12]
 80022c6:	685a      	ldr	r2, [r3, #4]
 80022c8:	687b      	ldr	r3, [r7, #4]
 80022ca:	685b      	ldr	r3, [r3, #4]
 80022cc:	431a      	orrs	r2, r3
 80022ce:	68fb      	ldr	r3, [r7, #12]
 80022d0:	605a      	str	r2, [r3, #4]
 80022d2:	687b      	ldr	r3, [r7, #4]
 80022d4:	681b      	ldr	r3, [r3, #0]
 80022d6:	685a      	ldr	r2, [r3, #4]
 80022d8:	687b      	ldr	r3, [r7, #4]
 80022da:	681b      	ldr	r3, [r3, #0]
 80022dc:	f422 7280 	bic.w	r2, r2, #256	; 0x100
 80022e0:	605a      	str	r2, [r3, #4]
 80022e2:	687b      	ldr	r3, [r7, #4]
 80022e4:	681b      	ldr	r3, [r3, #0]
 80022e6:	6859      	ldr	r1, [r3, #4]
 80022e8:	687b      	ldr	r3, [r7, #4]
 80022ea:	691b      	ldr	r3, [r3, #16]
 80022ec:	021a      	lsls	r2, r3, #8
 80022ee:	687b      	ldr	r3, [r7, #4]
 80022f0:	681b      	ldr	r3, [r3, #0]
 80022f2:	430a      	orrs	r2, r1
 80022f4:	605a      	str	r2, [r3, #4]
 80022f6:	687b      	ldr	r3, [r7, #4]
 80022f8:	681b      	ldr	r3, [r3, #0]
 80022fa:	685a      	ldr	r2, [r3, #4]
 80022fc:	687b      	ldr	r3, [r7, #4]
 80022fe:	681b      	ldr	r3, [r3, #0]
 8002300:	f022 7240 	bic.w	r2, r2, #50331648	; 0x3000000
 8002304:	605a      	str	r2, [r3, #4]
 8002306:	687b      	ldr	r3, [r7, #4]
 8002308:	681b      	ldr	r3, [r3, #0]
 800230a:	6859      	ldr	r1, [r3, #4]
 800230c:	687b      	ldr	r3, [r7, #4]
 800230e:	689a      	ldr	r2, [r3, #8]
 8002310:	687b      	ldr	r3, [r7, #4]
 8002312:	681b      	ldr	r3, [r3, #0]
 8002314:	430a      	orrs	r2, r1
 8002316:	605a      	str	r2, [r3, #4]
 8002318:	687b      	ldr	r3, [r7, #4]
 800231a:	681b      	ldr	r3, [r3, #0]
 800231c:	689a      	ldr	r2, [r3, #8]
 800231e:	687b      	ldr	r3, [r7, #4]
 8002320:	681b      	ldr	r3, [r3, #0]
 8002322:	f422 6200 	bic.w	r2, r2, #2048	; 0x800
 8002326:	609a      	str	r2, [r3, #8]
 8002328:	687b      	ldr	r3, [r7, #4]
 800232a:	681b      	ldr	r3, [r3, #0]
 800232c:	6899      	ldr	r1, [r3, #8]
 800232e:	687b      	ldr	r3, [r7, #4]
 8002330:	68da      	ldr	r2, [r3, #12]
 8002332:	687b      	ldr	r3, [r7, #4]
 8002334:	681b      	ldr	r3, [r3, #0]
 8002336:	430a      	orrs	r2, r1
 8002338:	609a      	str	r2, [r3, #8]
 800233a:	687b      	ldr	r3, [r7, #4]
 800233c:	6a9b      	ldr	r3, [r3, #40]	; 0x28
 800233e:	4a58      	ldr	r2, [pc, #352]	; (80024a0 <ADC_Init+0x1f4>)
 8002340:	4293      	cmp	r3, r2
 8002342:	d022      	beq.n	800238a <ADC_Init+0xde>
 8002344:	687b      	ldr	r3, [r7, #4]
 8002346:	681b      	ldr	r3, [r3, #0]
 8002348:	689a      	ldr	r2, [r3, #8]
 800234a:	687b      	ldr	r3, [r7, #4]
 800234c:	681b      	ldr	r3, [r3, #0]
 800234e:	f022 6270 	bic.w	r2, r2, #251658240	; 0xf000000
 8002352:	609a      	str	r2, [r3, #8]
 8002354:	687b      	ldr	r3, [r7, #4]
 8002356:	681b      	ldr	r3, [r3, #0]
 8002358:	6899      	ldr	r1, [r3, #8]
 800235a:	687b      	ldr	r3, [r7, #4]
 800235c:	6a9a      	ldr	r2, [r3, #40]	; 0x28
 800235e:	687b      	ldr	r3, [r7, #4]
 8002360:	681b      	ldr	r3, [r3, #0]
 8002362:	430a      	orrs	r2, r1
 8002364:	609a      	str	r2, [r3, #8]
 8002366:	687b      	ldr	r3, [r7, #4]
 8002368:	681b      	ldr	r3, [r3, #0]
 800236a:	689a      	ldr	r2, [r3, #8]
 800236c:	687b      	ldr	r3, [r7, #4]
 800236e:	681b      	ldr	r3, [r3, #0]
 8002370:	f022 5240 	bic.w	r2, r2, #805306368	; 0x30000000
 8002374:	609a      	str	r2, [r3, #8]
 8002376:	687b      	ldr	r3, [r7, #4]
 8002378:	681b      	ldr	r3, [r3, #0]
 800237a:	6899      	ldr	r1, [r3, #8]
 800237c:	687b      	ldr	r3, [r7, #4]
 800237e:	6ada      	ldr	r2, [r3, #44]	; 0x2c
 8002380:	687b      	ldr	r3, [r7, #4]
 8002382:	681b      	ldr	r3, [r3, #0]
 8002384:	430a      	orrs	r2, r1
 8002386:	609a      	str	r2, [r3, #8]
 8002388:	e00f      	b.n	80023aa <ADC_Init+0xfe>
 800238a:	687b      	ldr	r3, [r7, #4]
 800238c:	681b      	ldr	r3, [r3, #0]
 800238e:	689a      	ldr	r2, [r3, #8]
 8002390:	687b      	ldr	r3, [r7, #4]
 8002392:	681b      	ldr	r3, [r3, #0]
 8002394:	f022 6270 	bic.w	r2, r2, #251658240	; 0xf000000
 8002398:	609a      	str	r2, [r3, #8]
 800239a:	687b      	ldr	r3, [r7, #4]
 800239c:	681b      	ldr	r3, [r3, #0]
 800239e:	689a      	ldr	r2, [r3, #8]
 80023a0:	687b      	ldr	r3, [r7, #4]
 80023a2:	681b      	ldr	r3, [r3, #0]
 80023a4:	f022 5240 	bic.w	r2, r2, #805306368	; 0x30000000
 80023a8:	609a      	str	r2, [r3, #8]
 80023aa:	687b      	ldr	r3, [r7, #4]
 80023ac:	681b      	ldr	r3, [r3, #0]
 80023ae:	689a      	ldr	r2, [r3, #8]
 80023b0:	687b      	ldr	r3, [r7, #4]
 80023b2:	681b      	ldr	r3, [r3, #0]
 80023b4:	f022 0202 	bic.w	r2, r2, #2
 80023b8:	609a      	str	r2, [r3, #8]
 80023ba:	687b      	ldr	r3, [r7, #4]
 80023bc:	681b      	ldr	r3, [r3, #0]
 80023be:	6899      	ldr	r1, [r3, #8]
 80023c0:	687b      	ldr	r3, [r7, #4]
 80023c2:	7e1b      	ldrb	r3, [r3, #24]
 80023c4:	005a      	lsls	r2, r3, #1
 80023c6:	687b      	ldr	r3, [r7, #4]
 80023c8:	681b      	ldr	r3, [r3, #0]
 80023ca:	430a      	orrs	r2, r1
 80023cc:	609a      	str	r2, [r3, #8]
 80023ce:	687b      	ldr	r3, [r7, #4]
 80023d0:	f893 3020 	ldrb.w	r3, [r3, #32]
 80023d4:	2b00      	cmp	r3, #0
 80023d6:	d01b      	beq.n	8002410 <ADC_Init+0x164>
 80023d8:	687b      	ldr	r3, [r7, #4]
 80023da:	681b      	ldr	r3, [r3, #0]
 80023dc:	685a      	ldr	r2, [r3, #4]
 80023de:	687b      	ldr	r3, [r7, #4]
 80023e0:	681b      	ldr	r3, [r3, #0]
 80023e2:	f442 6200 	orr.w	r2, r2, #2048	; 0x800
 80023e6:	605a      	str	r2, [r3, #4]
 80023e8:	687b      	ldr	r3, [r7, #4]
 80023ea:	681b      	ldr	r3, [r3, #0]
 80023ec:	685a      	ldr	r2, [r3, #4]
 80023ee:	687b      	ldr	r3, [r7, #4]
 80023f0:	681b      	ldr	r3, [r3, #0]
 80023f2:	f422 4260 	bic.w	r2, r2, #57344	; 0xe000
 80023f6:	605a      	str	r2, [r3, #4]
 80023f8:	687b      	ldr	r3, [r7, #4]
 80023fa:	681b      	ldr	r3, [r3, #0]
 80023fc:	6859      	ldr	r1, [r3, #4]
 80023fe:	687b      	ldr	r3, [r7, #4]
 8002400:	6a5b      	ldr	r3, [r3, #36]	; 0x24
 8002402:	3b01      	subs	r3, #1
 8002404:	035a      	lsls	r2, r3, #13
 8002406:	687b      	ldr	r3, [r7, #4]
 8002408:	681b      	ldr	r3, [r3, #0]
 800240a:	430a      	orrs	r2, r1
 800240c:	605a      	str	r2, [r3, #4]
 800240e:	e007      	b.n	8002420 <ADC_Init+0x174>
 8002410:	687b      	ldr	r3, [r7, #4]
 8002412:	681b      	ldr	r3, [r3, #0]
 8002414:	685a      	ldr	r2, [r3, #4]
 8002416:	687b      	ldr	r3, [r7, #4]
 8002418:	681b      	ldr	r3, [r3, #0]
 800241a:	f422 6200 	bic.w	r2, r2, #2048	; 0x800
 800241e:	605a      	str	r2, [r3, #4]
 8002420:	687b      	ldr	r3, [r7, #4]
 8002422:	681b      	ldr	r3, [r3, #0]
 8002424:	6ada      	ldr	r2, [r3, #44]	; 0x2c
 8002426:	687b      	ldr	r3, [r7, #4]
 8002428:	681b      	ldr	r3, [r3, #0]
 800242a:	f422 0270 	bic.w	r2, r2, #15728640	; 0xf00000
 800242e:	62da      	str	r2, [r3, #44]	; 0x2c
 8002430:	687b      	ldr	r3, [r7, #4]
 8002432:	681b      	ldr	r3, [r3, #0]
 8002434:	6ad9      	ldr	r1, [r3, #44]	; 0x2c
 8002436:	687b      	ldr	r3, [r7, #4]
 8002438:	69db      	ldr	r3, [r3, #28]
 800243a:	3b01      	subs	r3, #1
 800243c:	051a      	lsls	r2, r3, #20
 800243e:	687b      	ldr	r3, [r7, #4]
 8002440:	681b      	ldr	r3, [r3, #0]
 8002442:	430a      	orrs	r2, r1
 8002444:	62da      	str	r2, [r3, #44]	; 0x2c
 8002446:	687b      	ldr	r3, [r7, #4]
 8002448:	681b      	ldr	r3, [r3, #0]
 800244a:	689a      	ldr	r2, [r3, #8]
 800244c:	687b      	ldr	r3, [r7, #4]
 800244e:	681b      	ldr	r3, [r3, #0]
 8002450:	f422 7200 	bic.w	r2, r2, #512	; 0x200
 8002454:	609a      	str	r2, [r3, #8]
 8002456:	687b      	ldr	r3, [r7, #4]
 8002458:	681b      	ldr	r3, [r3, #0]
 800245a:	6899      	ldr	r1, [r3, #8]
 800245c:	687b      	ldr	r3, [r7, #4]
 800245e:	f893 3030 	ldrb.w	r3, [r3, #48]	; 0x30
 8002462:	025a      	lsls	r2, r3, #9
 8002464:	687b      	ldr	r3, [r7, #4]
 8002466:	681b      	ldr	r3, [r3, #0]
 8002468:	430a      	orrs	r2, r1
 800246a:	609a      	str	r2, [r3, #8]
 800246c:	687b      	ldr	r3, [r7, #4]
 800246e:	681b      	ldr	r3, [r3, #0]
 8002470:	689a      	ldr	r2, [r3, #8]
 8002472:	687b      	ldr	r3, [r7, #4]
 8002474:	681b      	ldr	r3, [r3, #0]
 8002476:	f422 6280 	bic.w	r2, r2, #1024	; 0x400
 800247a:	609a      	str	r2, [r3, #8]
 800247c:	687b      	ldr	r3, [r7, #4]
 800247e:	681b      	ldr	r3, [r3, #0]
 8002480:	6899      	ldr	r1, [r3, #8]
 8002482:	687b      	ldr	r3, [r7, #4]
 8002484:	695b      	ldr	r3, [r3, #20]
 8002486:	029a      	lsls	r2, r3, #10
 8002488:	687b      	ldr	r3, [r7, #4]
 800248a:	681b      	ldr	r3, [r3, #0]
 800248c:	430a      	orrs	r2, r1
 800248e:	609a      	str	r2, [r3, #8]
 8002490:	bf00      	nop
 8002492:	3714      	adds	r7, #20
 8002494:	46bd      	mov	sp, r7
 8002496:	f85d 7b04 	ldr.w	r7, [sp], #4
 800249a:	4770      	bx	lr
 800249c:	40012300 	.word	0x40012300
 80024a0:	0f000001 	.word	0x0f000001

080024a4 <ADC_DMAConvCplt>:
 80024a4:	b580      	push	{r7, lr}
 80024a6:	b084      	sub	sp, #16
 80024a8:	af00      	add	r7, sp, #0
 80024aa:	6078      	str	r0, [r7, #4]
 80024ac:	687b      	ldr	r3, [r7, #4]
 80024ae:	6b9b      	ldr	r3, [r3, #56]	; 0x38
 80024b0:	60fb      	str	r3, [r7, #12]
 80024b2:	68fb      	ldr	r3, [r7, #12]
 80024b4:	6c1b      	ldr	r3, [r3, #64]	; 0x40
 80024b6:	f003 0350 	and.w	r3, r3, #80	; 0x50
 80024ba:	2b00      	cmp	r3, #0
 80024bc:	d13c      	bne.n	8002538 <ADC_DMAConvCplt+0x94>
 80024be:	68fb      	ldr	r3, [r7, #12]
 80024c0:	6c1b      	ldr	r3, [r3, #64]	; 0x40
 80024c2:	f443 7200 	orr.w	r2, r3, #512	; 0x200
 80024c6:	68fb      	ldr	r3, [r7, #12]
 80024c8:	641a      	str	r2, [r3, #64]	; 0x40
 80024ca:	68fb      	ldr	r3, [r7, #12]
 80024cc:	681b      	ldr	r3, [r3, #0]
 80024ce:	689b      	ldr	r3, [r3, #8]
 80024d0:	f003 5340 	and.w	r3, r3, #805306368	; 0x30000000
 80024d4:	2b00      	cmp	r3, #0
 80024d6:	d12b      	bne.n	8002530 <ADC_DMAConvCplt+0x8c>
 80024d8:	68fb      	ldr	r3, [r7, #12]
 80024da:	7e1b      	ldrb	r3, [r3, #24]
 80024dc:	2b00      	cmp	r3, #0
 80024de:	d127      	bne.n	8002530 <ADC_DMAConvCplt+0x8c>
 80024e0:	68fb      	ldr	r3, [r7, #12]
 80024e2:	681b      	ldr	r3, [r3, #0]
 80024e4:	6adb      	ldr	r3, [r3, #44]	; 0x2c
 80024e6:	f403 0370 	and.w	r3, r3, #15728640	; 0xf00000
 80024ea:	2b00      	cmp	r3, #0
 80024ec:	d006      	beq.n	80024fc <ADC_DMAConvCplt+0x58>
 80024ee:	68fb      	ldr	r3, [r7, #12]
 80024f0:	681b      	ldr	r3, [r3, #0]
 80024f2:	689b      	ldr	r3, [r3, #8]
 80024f4:	f403 6380 	and.w	r3, r3, #1024	; 0x400
 80024f8:	2b00      	cmp	r3, #0
 80024fa:	d119      	bne.n	8002530 <ADC_DMAConvCplt+0x8c>
 80024fc:	68fb      	ldr	r3, [r7, #12]
 80024fe:	681b      	ldr	r3, [r3, #0]
 8002500:	685a      	ldr	r2, [r3, #4]
 8002502:	68fb      	ldr	r3, [r7, #12]
 8002504:	681b      	ldr	r3, [r3, #0]
 8002506:	f022 0220 	bic.w	r2, r2, #32
 800250a:	605a      	str	r2, [r3, #4]
 800250c:	68fb      	ldr	r3, [r7, #12]
 800250e:	6c1b      	ldr	r3, [r3, #64]	; 0x40
 8002510:	f423 7280 	bic.w	r2, r3, #256	; 0x100
 8002514:	68fb      	ldr	r3, [r7, #12]
 8002516:	641a      	str	r2, [r3, #64]	; 0x40
 8002518:	68fb      	ldr	r3, [r7, #12]
 800251a:	6c1b      	ldr	r3, [r3, #64]	; 0x40
 800251c:	f403 5380 	and.w	r3, r3, #4096	; 0x1000
 8002520:	2b00      	cmp	r3, #0
 8002522:	d105      	bne.n	8002530 <ADC_DMAConvCplt+0x8c>
 8002524:	68fb      	ldr	r3, [r7, #12]
 8002526:	6c1b      	ldr	r3, [r3, #64]	; 0x40
 8002528:	f043 0201 	orr.w	r2, r3, #1
 800252c:	68fb      	ldr	r3, [r7, #12]
 800252e:	641a      	str	r2, [r3, #64]	; 0x40
 8002530:	68f8      	ldr	r0, [r7, #12]
 8002532:	f7fe fa31 	bl	8000998 <HAL_ADC_ConvCpltCallback>
 8002536:	e00e      	b.n	8002556 <ADC_DMAConvCplt+0xb2>
 8002538:	68fb      	ldr	r3, [r7, #12]
 800253a:	6c1b      	ldr	r3, [r3, #64]	; 0x40
 800253c:	f003 0310 	and.w	r3, r3, #16
 8002540:	2b00      	cmp	r3, #0
 8002542:	d003      	beq.n	800254c <ADC_DMAConvCplt+0xa8>
 8002544:	68f8      	ldr	r0, [r7, #12]
 8002546:	f7ff fd75 	bl	8002034 <HAL_ADC_ErrorCallback>
 800254a:	e004      	b.n	8002556 <ADC_DMAConvCplt+0xb2>
 800254c:	68fb      	ldr	r3, [r7, #12]
 800254e:	6b9b      	ldr	r3, [r3, #56]	; 0x38
 8002550:	6cdb      	ldr	r3, [r3, #76]	; 0x4c
 8002552:	6878      	ldr	r0, [r7, #4]
 8002554:	4798      	blx	r3
 8002556:	bf00      	nop
 8002558:	3710      	adds	r7, #16
 800255a:	46bd      	mov	sp, r7
 800255c:	bd80      	pop	{r7, pc}

0800255e <ADC_DMAHalfConvCplt>:
 800255e:	b580      	push	{r7, lr}
 8002560:	b084      	sub	sp, #16
 8002562:	af00      	add	r7, sp, #0
 8002564:	6078      	str	r0, [r7, #4]
 8002566:	687b      	ldr	r3, [r7, #4]
 8002568:	6b9b      	ldr	r3, [r3, #56]	; 0x38
 800256a:	60fb      	str	r3, [r7, #12]
 800256c:	68f8      	ldr	r0, [r7, #12]
 800256e:	f7ff fd57 	bl	8002020 <HAL_ADC_ConvHalfCpltCallback>
 8002572:	bf00      	nop
 8002574:	3710      	adds	r7, #16
 8002576:	46bd      	mov	sp, r7
 8002578:	bd80      	pop	{r7, pc}

0800257a <ADC_DMAError>:
 800257a:	b580      	push	{r7, lr}
 800257c:	b084      	sub	sp, #16
 800257e:	af00      	add	r7, sp, #0
 8002580:	6078      	str	r0, [r7, #4]
 8002582:	687b      	ldr	r3, [r7, #4]
 8002584:	6b9b      	ldr	r3, [r3, #56]	; 0x38
 8002586:	60fb      	str	r3, [r7, #12]
 8002588:	68fb      	ldr	r3, [r7, #12]
 800258a:	2240      	movs	r2, #64	; 0x40
 800258c:	641a      	str	r2, [r3, #64]	; 0x40
 800258e:	68fb      	ldr	r3, [r7, #12]
 8002590:	6c5b      	ldr	r3, [r3, #68]	; 0x44
 8002592:	f043 0204 	orr.w	r2, r3, #4
 8002596:	68fb      	ldr	r3, [r7, #12]
 8002598:	645a      	str	r2, [r3, #68]	; 0x44
 800259a:	68f8      	ldr	r0, [r7, #12]
 800259c:	f7ff fd4a 	bl	8002034 <HAL_ADC_ErrorCallback>
 80025a0:	bf00      	nop
 80025a2:	3710      	adds	r7, #16
 80025a4:	46bd      	mov	sp, r7
 80025a6:	bd80      	pop	{r7, pc}

080025a8 <__NVIC_SetPriorityGrouping>:
 80025a8:	b480      	push	{r7}
 80025aa:	b085      	sub	sp, #20
 80025ac:	af00      	add	r7, sp, #0
 80025ae:	6078      	str	r0, [r7, #4]
 80025b0:	687b      	ldr	r3, [r7, #4]
 80025b2:	f003 0307 	and.w	r3, r3, #7
 80025b6:	60fb      	str	r3, [r7, #12]
 80025b8:	4b0c      	ldr	r3, [pc, #48]	; (80025ec <__NVIC_SetPriorityGrouping+0x44>)
 80025ba:	68db      	ldr	r3, [r3, #12]
 80025bc:	60bb      	str	r3, [r7, #8]
 80025be:	68ba      	ldr	r2, [r7, #8]
 80025c0:	f64f 03ff 	movw	r3, #63743	; 0xf8ff
 80025c4:	4013      	ands	r3, r2
 80025c6:	60bb      	str	r3, [r7, #8]
 80025c8:	68fb      	ldr	r3, [r7, #12]
 80025ca:	021a      	lsls	r2, r3, #8
 80025cc:	68bb      	ldr	r3, [r7, #8]
 80025ce:	4313      	orrs	r3, r2
 80025d0:	f043 63bf 	orr.w	r3, r3, #100139008	; 0x5f80000
 80025d4:	f443 3300 	orr.w	r3, r3, #131072	; 0x20000
 80025d8:	60bb      	str	r3, [r7, #8]
 80025da:	4a04      	ldr	r2, [pc, #16]	; (80025ec <__NVIC_SetPriorityGrouping+0x44>)
 80025dc:	68bb      	ldr	r3, [r7, #8]
 80025de:	60d3      	str	r3, [r2, #12]
 80025e0:	bf00      	nop
 80025e2:	3714      	adds	r7, #20
 80025e4:	46bd      	mov	sp, r7
 80025e6:	f85d 7b04 	ldr.w	r7, [sp], #4
 80025ea:	4770      	bx	lr
 80025ec:	e000ed00 	.word	0xe000ed00

080025f0 <__NVIC_GetPriorityGrouping>:
 80025f0:	b480      	push	{r7}
 80025f2:	af00      	add	r7, sp, #0
 80025f4:	4b04      	ldr	r3, [pc, #16]	; (8002608 <__NVIC_GetPriorityGrouping+0x18>)
 80025f6:	68db      	ldr	r3, [r3, #12]
 80025f8:	0a1b      	lsrs	r3, r3, #8
 80025fa:	f003 0307 	and.w	r3, r3, #7
 80025fe:	4618      	mov	r0, r3
 8002600:	46bd      	mov	sp, r7
 8002602:	f85d 7b04 	ldr.w	r7, [sp], #4
 8002606:	4770      	bx	lr
 8002608:	e000ed00 	.word	0xe000ed00

0800260c <__NVIC_EnableIRQ>:
 800260c:	b480      	push	{r7}
 800260e:	b083      	sub	sp, #12
 8002610:	af00      	add	r7, sp, #0
 8002612:	4603      	mov	r3, r0
 8002614:	71fb      	strb	r3, [r7, #7]
 8002616:	f997 3007 	ldrsb.w	r3, [r7, #7]
 800261a:	2b00      	cmp	r3, #0
 800261c:	db0b      	blt.n	8002636 <__NVIC_EnableIRQ+0x2a>
 800261e:	79fb      	ldrb	r3, [r7, #7]
 8002620:	f003 021f 	and.w	r2, r3, #31
 8002624:	4907      	ldr	r1, [pc, #28]	; (8002644 <__NVIC_EnableIRQ+0x38>)
 8002626:	f997 3007 	ldrsb.w	r3, [r7, #7]
 800262a:	095b      	lsrs	r3, r3, #5
 800262c:	2001      	movs	r0, #1
 800262e:	fa00 f202 	lsl.w	r2, r0, r2
 8002632:	f841 2023 	str.w	r2, [r1, r3, lsl #2]
 8002636:	bf00      	nop
 8002638:	370c      	adds	r7, #12
 800263a:	46bd      	mov	sp, r7
 800263c:	f85d 7b04 	ldr.w	r7, [sp], #4
 8002640:	4770      	bx	lr
 8002642:	bf00      	nop
 8002644:	e000e100 	.word	0xe000e100

08002648 <__NVIC_SetPriority>:
 8002648:	b480      	push	{r7}
 800264a:	b083      	sub	sp, #12
 800264c:	af00      	add	r7, sp, #0
 800264e:	4603      	mov	r3, r0
 8002650:	6039      	str	r1, [r7, #0]
 8002652:	71fb      	strb	r3, [r7, #7]
 8002654:	f997 3007 	ldrsb.w	r3, [r7, #7]
 8002658:	2b00      	cmp	r3, #0
 800265a:	db0a      	blt.n	8002672 <__NVIC_SetPriority+0x2a>
 800265c:	683b      	ldr	r3, [r7, #0]
 800265e:	b2da      	uxtb	r2, r3
 8002660:	490c      	ldr	r1, [pc, #48]	; (8002694 <__NVIC_SetPriority+0x4c>)
 8002662:	f997 3007 	ldrsb.w	r3, [r7, #7]
 8002666:	0112      	lsls	r2, r2, #4
 8002668:	b2d2      	uxtb	r2, r2
 800266a:	440b      	add	r3, r1
 800266c:	f883 2300 	strb.w	r2, [r3, #768]	; 0x300
 8002670:	e00a      	b.n	8002688 <__NVIC_SetPriority+0x40>
 8002672:	683b      	ldr	r3, [r7, #0]
 8002674:	b2da      	uxtb	r2, r3
 8002676:	4908      	ldr	r1, [pc, #32]	; (8002698 <__NVIC_SetPriority+0x50>)
 8002678:	79fb      	ldrb	r3, [r7, #7]
 800267a:	f003 030f 	and.w	r3, r3, #15
 800267e:	3b04      	subs	r3, #4
 8002680:	0112      	lsls	r2, r2, #4
 8002682:	b2d2      	uxtb	r2, r2
 8002684:	440b      	add	r3, r1
 8002686:	761a      	strb	r2, [r3, #24]
 8002688:	bf00      	nop
 800268a:	370c      	adds	r7, #12
 800268c:	46bd      	mov	sp, r7
 800268e:	f85d 7b04 	ldr.w	r7, [sp], #4
 8002692:	4770      	bx	lr
 8002694:	e000e100 	.word	0xe000e100
 8002698:	e000ed00 	.word	0xe000ed00

0800269c <NVIC_EncodePriority>:
 800269c:	b480      	push	{r7}
 800269e:	b089      	sub	sp, #36	; 0x24
 80026a0:	af00      	add	r7, sp, #0
 80026a2:	60f8      	str	r0, [r7, #12]
 80026a4:	60b9      	str	r1, [r7, #8]
 80026a6:	607a      	str	r2, [r7, #4]
 80026a8:	68fb      	ldr	r3, [r7, #12]
 80026aa:	f003 0307 	and.w	r3, r3, #7
 80026ae:	61fb      	str	r3, [r7, #28]
 80026b0:	69fb      	ldr	r3, [r7, #28]
 80026b2:	f1c3 0307 	rsb	r3, r3, #7
 80026b6:	2b04      	cmp	r3, #4
 80026b8:	bf28      	it	cs
 80026ba:	2304      	movcs	r3, #4
 80026bc:	61bb      	str	r3, [r7, #24]
 80026be:	69fb      	ldr	r3, [r7, #28]
 80026c0:	3304      	adds	r3, #4
 80026c2:	2b06      	cmp	r3, #6
 80026c4:	d902      	bls.n	80026cc <NVIC_EncodePriority+0x30>
 80026c6:	69fb      	ldr	r3, [r7, #28]
 80026c8:	3b03      	subs	r3, #3
 80026ca:	e000      	b.n	80026ce <NVIC_EncodePriority+0x32>
 80026cc:	2300      	movs	r3, #0
 80026ce:	617b      	str	r3, [r7, #20]
 80026d0:	f04f 32ff 	mov.w	r2, #4294967295
 80026d4:	69bb      	ldr	r3, [r7, #24]
 80026d6:	fa02 f303 	lsl.w	r3, r2, r3
 80026da:	43da      	mvns	r2, r3
 80026dc:	68bb      	ldr	r3, [r7, #8]
 80026de:	401a      	ands	r2, r3
 80026e0:	697b      	ldr	r3, [r7, #20]
 80026e2:	409a      	lsls	r2, r3
 80026e4:	f04f 31ff 	mov.w	r1, #4294967295
 80026e8:	697b      	ldr	r3, [r7, #20]
 80026ea:	fa01 f303 	lsl.w	r3, r1, r3
 80026ee:	43d9      	mvns	r1, r3
 80026f0:	687b      	ldr	r3, [r7, #4]
 80026f2:	400b      	ands	r3, r1
 80026f4:	4313      	orrs	r3, r2
 80026f6:	4618      	mov	r0, r3
 80026f8:	3724      	adds	r7, #36	; 0x24
 80026fa:	46bd      	mov	sp, r7
 80026fc:	f85d 7b04 	ldr.w	r7, [sp], #4
 8002700:	4770      	bx	lr
	...

08002704 <SysTick_Config>:
 8002704:	b580      	push	{r7, lr}
 8002706:	b082      	sub	sp, #8
 8002708:	af00      	add	r7, sp, #0
 800270a:	6078      	str	r0, [r7, #4]
 800270c:	687b      	ldr	r3, [r7, #4]
 800270e:	3b01      	subs	r3, #1
 8002710:	f1b3 7f80 	cmp.w	r3, #16777216	; 0x1000000
 8002714:	d301      	bcc.n	800271a <SysTick_Config+0x16>
 8002716:	2301      	movs	r3, #1
 8002718:	e00f      	b.n	800273a <SysTick_Config+0x36>
 800271a:	4a0a      	ldr	r2, [pc, #40]	; (8002744 <SysTick_Config+0x40>)
 800271c:	687b      	ldr	r3, [r7, #4]
 800271e:	3b01      	subs	r3, #1
 8002720:	6053      	str	r3, [r2, #4]
 8002722:	210f      	movs	r1, #15
 8002724:	f04f 30ff 	mov.w	r0, #4294967295
 8002728:	f7ff ff8e 	bl	8002648 <__NVIC_SetPriority>
 800272c:	4b05      	ldr	r3, [pc, #20]	; (8002744 <SysTick_Config+0x40>)
 800272e:	2200      	movs	r2, #0
 8002730:	609a      	str	r2, [r3, #8]
 8002732:	4b04      	ldr	r3, [pc, #16]	; (8002744 <SysTick_Config+0x40>)
 8002734:	2207      	movs	r2, #7
 8002736:	601a      	str	r2, [r3, #0]
 8002738:	2300      	movs	r3, #0
 800273a:	4618      	mov	r0, r3
 800273c:	3708      	adds	r7, #8
 800273e:	46bd      	mov	sp, r7
 8002740:	bd80      	pop	{r7, pc}
 8002742:	bf00      	nop
 8002744:	e000e010 	.word	0xe000e010

08002748 <HAL_NVIC_SetPriorityGrouping>:
 8002748:	b580      	push	{r7, lr}
 800274a:	b082      	sub	sp, #8
 800274c:	af00      	add	r7, sp, #0
 800274e:	6078      	str	r0, [r7, #4]
 8002750:	6878      	ldr	r0, [r7, #4]
 8002752:	f7ff ff29 	bl	80025a8 <__NVIC_SetPriorityGrouping>
 8002756:	bf00      	nop
 8002758:	3708      	adds	r7, #8
 800275a:	46bd      	mov	sp, r7
 800275c:	bd80      	pop	{r7, pc}

0800275e <HAL_NVIC_SetPriority>:
 800275e:	b580      	push	{r7, lr}
 8002760:	b086      	sub	sp, #24
 8002762:	af00      	add	r7, sp, #0
 8002764:	4603      	mov	r3, r0
 8002766:	60b9      	str	r1, [r7, #8]
 8002768:	607a      	str	r2, [r7, #4]
 800276a:	73fb      	strb	r3, [r7, #15]
 800276c:	2300      	movs	r3, #0
 800276e:	617b      	str	r3, [r7, #20]
 8002770:	f7ff ff3e 	bl	80025f0 <__NVIC_GetPriorityGrouping>
 8002774:	6178      	str	r0, [r7, #20]
 8002776:	687a      	ldr	r2, [r7, #4]
 8002778:	68b9      	ldr	r1, [r7, #8]
 800277a:	6978      	ldr	r0, [r7, #20]
 800277c:	f7ff ff8e 	bl	800269c <NVIC_EncodePriority>
 8002780:	4602      	mov	r2, r0
 8002782:	f997 300f 	ldrsb.w	r3, [r7, #15]
 8002786:	4611      	mov	r1, r2
 8002788:	4618      	mov	r0, r3
 800278a:	f7ff ff5d 	bl	8002648 <__NVIC_SetPriority>
 800278e:	bf00      	nop
 8002790:	3718      	adds	r7, #24
 8002792:	46bd      	mov	sp, r7
 8002794:	bd80      	pop	{r7, pc}

08002796 <HAL_NVIC_EnableIRQ>:
 8002796:	b580      	push	{r7, lr}
 8002798:	b082      	sub	sp, #8
 800279a:	af00      	add	r7, sp, #0
 800279c:	4603      	mov	r3, r0
 800279e:	71fb      	strb	r3, [r7, #7]
 80027a0:	f997 3007 	ldrsb.w	r3, [r7, #7]
 80027a4:	4618      	mov	r0, r3
 80027a6:	f7ff ff31 	bl	800260c <__NVIC_EnableIRQ>
 80027aa:	bf00      	nop
 80027ac:	3708      	adds	r7, #8
 80027ae:	46bd      	mov	sp, r7
 80027b0:	bd80      	pop	{r7, pc}

080027b2 <HAL_SYSTICK_Config>:
 80027b2:	b580      	push	{r7, lr}
 80027b4:	b082      	sub	sp, #8
 80027b6:	af00      	add	r7, sp, #0
 80027b8:	6078      	str	r0, [r7, #4]
 80027ba:	6878      	ldr	r0, [r7, #4]
 80027bc:	f7ff ffa2 	bl	8002704 <SysTick_Config>
 80027c0:	4603      	mov	r3, r0
 80027c2:	4618      	mov	r0, r3
 80027c4:	3708      	adds	r7, #8
 80027c6:	46bd      	mov	sp, r7
 80027c8:	bd80      	pop	{r7, pc}
	...

080027cc <HAL_DMA_Init>:
 80027cc:	b580      	push	{r7, lr}
 80027ce:	b086      	sub	sp, #24
 80027d0:	af00      	add	r7, sp, #0
 80027d2:	6078      	str	r0, [r7, #4]
 80027d4:	2300      	movs	r3, #0
 80027d6:	617b      	str	r3, [r7, #20]
 80027d8:	f7ff faba 	bl	8001d50 <HAL_GetTick>
 80027dc:	6138      	str	r0, [r7, #16]
 80027de:	687b      	ldr	r3, [r7, #4]
 80027e0:	2b00      	cmp	r3, #0
 80027e2:	d101      	bne.n	80027e8 <HAL_DMA_Init+0x1c>
 80027e4:	2301      	movs	r3, #1
 80027e6:	e099      	b.n	800291c <HAL_DMA_Init+0x150>
 80027e8:	687b      	ldr	r3, [r7, #4]
 80027ea:	2202      	movs	r2, #2
 80027ec:	f883 2035 	strb.w	r2, [r3, #53]	; 0x35
 80027f0:	687b      	ldr	r3, [r7, #4]
 80027f2:	2200      	movs	r2, #0
 80027f4:	f883 2034 	strb.w	r2, [r3, #52]	; 0x34
 80027f8:	687b      	ldr	r3, [r7, #4]
 80027fa:	681b      	ldr	r3, [r3, #0]
 80027fc:	681a      	ldr	r2, [r3, #0]
 80027fe:	687b      	ldr	r3, [r7, #4]
 8002800:	681b      	ldr	r3, [r3, #0]
 8002802:	f022 0201 	bic.w	r2, r2, #1
 8002806:	601a      	str	r2, [r3, #0]
 8002808:	e00f      	b.n	800282a <HAL_DMA_Init+0x5e>
 800280a:	f7ff faa1 	bl	8001d50 <HAL_GetTick>
 800280e:	4602      	mov	r2, r0
 8002810:	693b      	ldr	r3, [r7, #16]
 8002812:	1ad3      	subs	r3, r2, r3
 8002814:	2b05      	cmp	r3, #5
 8002816:	d908      	bls.n	800282a <HAL_DMA_Init+0x5e>
 8002818:	687b      	ldr	r3, [r7, #4]
 800281a:	2220      	movs	r2, #32
 800281c:	655a      	str	r2, [r3, #84]	; 0x54
 800281e:	687b      	ldr	r3, [r7, #4]
 8002820:	2203      	movs	r2, #3
 8002822:	f883 2035 	strb.w	r2, [r3, #53]	; 0x35
 8002826:	2303      	movs	r3, #3
 8002828:	e078      	b.n	800291c <HAL_DMA_Init+0x150>
 800282a:	687b      	ldr	r3, [r7, #4]
 800282c:	681b      	ldr	r3, [r3, #0]
 800282e:	681b      	ldr	r3, [r3, #0]
 8002830:	f003 0301 	and.w	r3, r3, #1
 8002834:	2b00      	cmp	r3, #0
 8002836:	d1e8      	bne.n	800280a <HAL_DMA_Init+0x3e>
 8002838:	687b      	ldr	r3, [r7, #4]
 800283a:	681b      	ldr	r3, [r3, #0]
 800283c:	681b      	ldr	r3, [r3, #0]
 800283e:	617b      	str	r3, [r7, #20]
 8002840:	697a      	ldr	r2, [r7, #20]
 8002842:	4b38      	ldr	r3, [pc, #224]	; (8002924 <HAL_DMA_Init+0x158>)
 8002844:	4013      	ands	r3, r2
 8002846:	617b      	str	r3, [r7, #20]
 8002848:	687b      	ldr	r3, [r7, #4]
 800284a:	685a      	ldr	r2, [r3, #4]
 800284c:	687b      	ldr	r3, [r7, #4]
 800284e:	689b      	ldr	r3, [r3, #8]
 8002850:	431a      	orrs	r2, r3
 8002852:	687b      	ldr	r3, [r7, #4]
 8002854:	68db      	ldr	r3, [r3, #12]
 8002856:	431a      	orrs	r2, r3
 8002858:	687b      	ldr	r3, [r7, #4]
 800285a:	691b      	ldr	r3, [r3, #16]
 800285c:	431a      	orrs	r2, r3
 800285e:	687b      	ldr	r3, [r7, #4]
 8002860:	695b      	ldr	r3, [r3, #20]
 8002862:	431a      	orrs	r2, r3
 8002864:	687b      	ldr	r3, [r7, #4]
 8002866:	699b      	ldr	r3, [r3, #24]
 8002868:	431a      	orrs	r2, r3
 800286a:	687b      	ldr	r3, [r7, #4]
 800286c:	69db      	ldr	r3, [r3, #28]
 800286e:	431a      	orrs	r2, r3
 8002870:	687b      	ldr	r3, [r7, #4]
 8002872:	6a1b      	ldr	r3, [r3, #32]
 8002874:	4313      	orrs	r3, r2
 8002876:	697a      	ldr	r2, [r7, #20]
 8002878:	4313      	orrs	r3, r2
 800287a:	617b      	str	r3, [r7, #20]
 800287c:	687b      	ldr	r3, [r7, #4]
 800287e:	6a5b      	ldr	r3, [r3, #36]	; 0x24
 8002880:	2b04      	cmp	r3, #4
 8002882:	d107      	bne.n	8002894 <HAL_DMA_Init+0xc8>
 8002884:	687b      	ldr	r3, [r7, #4]
 8002886:	6ada      	ldr	r2, [r3, #44]	; 0x2c
 8002888:	687b      	ldr	r3, [r7, #4]
 800288a:	6b1b      	ldr	r3, [r3, #48]	; 0x30
 800288c:	4313      	orrs	r3, r2
 800288e:	697a      	ldr	r2, [r7, #20]
 8002890:	4313      	orrs	r3, r2
 8002892:	617b      	str	r3, [r7, #20]
 8002894:	687b      	ldr	r3, [r7, #4]
 8002896:	681b      	ldr	r3, [r3, #0]
 8002898:	697a      	ldr	r2, [r7, #20]
 800289a:	601a      	str	r2, [r3, #0]
 800289c:	687b      	ldr	r3, [r7, #4]
 800289e:	681b      	ldr	r3, [r3, #0]
 80028a0:	695b      	ldr	r3, [r3, #20]
 80028a2:	617b      	str	r3, [r7, #20]
 80028a4:	697b      	ldr	r3, [r7, #20]
 80028a6:	f023 0307 	bic.w	r3, r3, #7
 80028aa:	617b      	str	r3, [r7, #20]
 80028ac:	687b      	ldr	r3, [r7, #4]
 80028ae:	6a5b      	ldr	r3, [r3, #36]	; 0x24
 80028b0:	697a      	ldr	r2, [r7, #20]
 80028b2:	4313      	orrs	r3, r2
 80028b4:	617b      	str	r3, [r7, #20]
 80028b6:	687b      	ldr	r3, [r7, #4]
 80028b8:	6a5b      	ldr	r3, [r3, #36]	; 0x24
 80028ba:	2b04      	cmp	r3, #4
 80028bc:	d117      	bne.n	80028ee <HAL_DMA_Init+0x122>
 80028be:	687b      	ldr	r3, [r7, #4]
 80028c0:	6a9b      	ldr	r3, [r3, #40]	; 0x28
 80028c2:	697a      	ldr	r2, [r7, #20]
 80028c4:	4313      	orrs	r3, r2
 80028c6:	617b      	str	r3, [r7, #20]
 80028c8:	687b      	ldr	r3, [r7, #4]
 80028ca:	6adb      	ldr	r3, [r3, #44]	; 0x2c
 80028cc:	2b00      	cmp	r3, #0
 80028ce:	d00e      	beq.n	80028ee <HAL_DMA_Init+0x122>
 80028d0:	6878      	ldr	r0, [r7, #4]
 80028d2:	f000 fa9d 	bl	8002e10 <DMA_CheckFifoParam>
 80028d6:	4603      	mov	r3, r0
 80028d8:	2b00      	cmp	r3, #0
 80028da:	d008      	beq.n	80028ee <HAL_DMA_Init+0x122>
 80028dc:	687b      	ldr	r3, [r7, #4]
 80028de:	2240      	movs	r2, #64	; 0x40
 80028e0:	655a      	str	r2, [r3, #84]	; 0x54
 80028e2:	687b      	ldr	r3, [r7, #4]
 80028e4:	2201      	movs	r2, #1
 80028e6:	f883 2035 	strb.w	r2, [r3, #53]	; 0x35
 80028ea:	2301      	movs	r3, #1
 80028ec:	e016      	b.n	800291c <HAL_DMA_Init+0x150>
 80028ee:	687b      	ldr	r3, [r7, #4]
 80028f0:	681b      	ldr	r3, [r3, #0]
 80028f2:	697a      	ldr	r2, [r7, #20]
 80028f4:	615a      	str	r2, [r3, #20]
 80028f6:	6878      	ldr	r0, [r7, #4]
 80028f8:	f000 fa54 	bl	8002da4 <DMA_CalcBaseAndBitshift>
 80028fc:	4603      	mov	r3, r0
 80028fe:	60fb      	str	r3, [r7, #12]
 8002900:	687b      	ldr	r3, [r7, #4]
 8002902:	6ddb      	ldr	r3, [r3, #92]	; 0x5c
 8002904:	223f      	movs	r2, #63	; 0x3f
 8002906:	409a      	lsls	r2, r3
 8002908:	68fb      	ldr	r3, [r7, #12]
 800290a:	609a      	str	r2, [r3, #8]
 800290c:	687b      	ldr	r3, [r7, #4]
 800290e:	2200      	movs	r2, #0
 8002910:	655a      	str	r2, [r3, #84]	; 0x54
 8002912:	687b      	ldr	r3, [r7, #4]
 8002914:	2201      	movs	r2, #1
 8002916:	f883 2035 	strb.w	r2, [r3, #53]	; 0x35
 800291a:	2300      	movs	r3, #0
 800291c:	4618      	mov	r0, r3
 800291e:	3718      	adds	r7, #24
 8002920:	46bd      	mov	sp, r7
 8002922:	bd80      	pop	{r7, pc}
 8002924:	f010803f 	.word	0xf010803f

08002928 <HAL_DMA_Start_IT>:
 8002928:	b580      	push	{r7, lr}
 800292a:	b086      	sub	sp, #24
 800292c:	af00      	add	r7, sp, #0
 800292e:	60f8      	str	r0, [r7, #12]
 8002930:	60b9      	str	r1, [r7, #8]
 8002932:	607a      	str	r2, [r7, #4]
 8002934:	603b      	str	r3, [r7, #0]
 8002936:	2300      	movs	r3, #0
 8002938:	75fb      	strb	r3, [r7, #23]
 800293a:	68fb      	ldr	r3, [r7, #12]
 800293c:	6d9b      	ldr	r3, [r3, #88]	; 0x58
 800293e:	613b      	str	r3, [r7, #16]
 8002940:	68fb      	ldr	r3, [r7, #12]
 8002942:	f893 3034 	ldrb.w	r3, [r3, #52]	; 0x34
 8002946:	2b01      	cmp	r3, #1
 8002948:	d101      	bne.n	800294e <HAL_DMA_Start_IT+0x26>
 800294a:	2302      	movs	r3, #2
 800294c:	e040      	b.n	80029d0 <HAL_DMA_Start_IT+0xa8>
 800294e:	68fb      	ldr	r3, [r7, #12]
 8002950:	2201      	movs	r2, #1
 8002952:	f883 2034 	strb.w	r2, [r3, #52]	; 0x34
 8002956:	68fb      	ldr	r3, [r7, #12]
 8002958:	f893 3035 	ldrb.w	r3, [r3, #53]	; 0x35
 800295c:	b2db      	uxtb	r3, r3
 800295e:	2b01      	cmp	r3, #1
 8002960:	d12f      	bne.n	80029c2 <HAL_DMA_Start_IT+0x9a>
 8002962:	68fb      	ldr	r3, [r7, #12]
 8002964:	2202      	movs	r2, #2
 8002966:	f883 2035 	strb.w	r2, [r3, #53]	; 0x35
 800296a:	68fb      	ldr	r3, [r7, #12]
 800296c:	2200      	movs	r2, #0
 800296e:	655a      	str	r2, [r3, #84]	; 0x54
 8002970:	683b      	ldr	r3, [r7, #0]
 8002972:	687a      	ldr	r2, [r7, #4]
 8002974:	68b9      	ldr	r1, [r7, #8]
 8002976:	68f8      	ldr	r0, [r7, #12]
 8002978:	f000 f9e6 	bl	8002d48 <DMA_SetConfig>
 800297c:	68fb      	ldr	r3, [r7, #12]
 800297e:	6ddb      	ldr	r3, [r3, #92]	; 0x5c
 8002980:	223f      	movs	r2, #63	; 0x3f
 8002982:	409a      	lsls	r2, r3
 8002984:	693b      	ldr	r3, [r7, #16]
 8002986:	609a      	str	r2, [r3, #8]
 8002988:	68fb      	ldr	r3, [r7, #12]
 800298a:	681b      	ldr	r3, [r3, #0]
 800298c:	681a      	ldr	r2, [r3, #0]
 800298e:	68fb      	ldr	r3, [r7, #12]
 8002990:	681b      	ldr	r3, [r3, #0]
 8002992:	f042 0216 	orr.w	r2, r2, #22
 8002996:	601a      	str	r2, [r3, #0]
 8002998:	68fb      	ldr	r3, [r7, #12]
 800299a:	6c1b      	ldr	r3, [r3, #64]	; 0x40
 800299c:	2b00      	cmp	r3, #0
 800299e:	d007      	beq.n	80029b0 <HAL_DMA_Start_IT+0x88>
 80029a0:	68fb      	ldr	r3, [r7, #12]
 80029a2:	681b      	ldr	r3, [r3, #0]
 80029a4:	681a      	ldr	r2, [r3, #0]
 80029a6:	68fb      	ldr	r3, [r7, #12]
 80029a8:	681b      	ldr	r3, [r3, #0]
 80029aa:	f042 0208 	orr.w	r2, r2, #8
 80029ae:	601a      	str	r2, [r3, #0]
 80029b0:	68fb      	ldr	r3, [r7, #12]
 80029b2:	681b      	ldr	r3, [r3, #0]
 80029b4:	681a      	ldr	r2, [r3, #0]
 80029b6:	68fb      	ldr	r3, [r7, #12]
 80029b8:	681b      	ldr	r3, [r3, #0]
 80029ba:	f042 0201 	orr.w	r2, r2, #1
 80029be:	601a      	str	r2, [r3, #0]
 80029c0:	e005      	b.n	80029ce <HAL_DMA_Start_IT+0xa6>
 80029c2:	68fb      	ldr	r3, [r7, #12]
 80029c4:	2200      	movs	r2, #0
 80029c6:	f883 2034 	strb.w	r2, [r3, #52]	; 0x34
 80029ca:	2302      	movs	r3, #2
 80029cc:	75fb      	strb	r3, [r7, #23]
 80029ce:	7dfb      	ldrb	r3, [r7, #23]
 80029d0:	4618      	mov	r0, r3
 80029d2:	3718      	adds	r7, #24
 80029d4:	46bd      	mov	sp, r7
 80029d6:	bd80      	pop	{r7, pc}

080029d8 <HAL_DMA_Abort_IT>:
 80029d8:	b480      	push	{r7}
 80029da:	b083      	sub	sp, #12
 80029dc:	af00      	add	r7, sp, #0
 80029de:	6078      	str	r0, [r7, #4]
 80029e0:	687b      	ldr	r3, [r7, #4]
 80029e2:	f893 3035 	ldrb.w	r3, [r3, #53]	; 0x35
 80029e6:	b2db      	uxtb	r3, r3
 80029e8:	2b02      	cmp	r3, #2
 80029ea:	d004      	beq.n	80029f6 <HAL_DMA_Abort_IT+0x1e>
 80029ec:	687b      	ldr	r3, [r7, #4]
 80029ee:	2280      	movs	r2, #128	; 0x80
 80029f0:	655a      	str	r2, [r3, #84]	; 0x54
 80029f2:	2301      	movs	r3, #1
 80029f4:	e00c      	b.n	8002a10 <HAL_DMA_Abort_IT+0x38>
 80029f6:	687b      	ldr	r3, [r7, #4]
 80029f8:	2205      	movs	r2, #5
 80029fa:	f883 2035 	strb.w	r2, [r3, #53]	; 0x35
 80029fe:	687b      	ldr	r3, [r7, #4]
 8002a00:	681b      	ldr	r3, [r3, #0]
 8002a02:	681a      	ldr	r2, [r3, #0]
 8002a04:	687b      	ldr	r3, [r7, #4]
 8002a06:	681b      	ldr	r3, [r3, #0]
 8002a08:	f022 0201 	bic.w	r2, r2, #1
 8002a0c:	601a      	str	r2, [r3, #0]
 8002a0e:	2300      	movs	r3, #0
 8002a10:	4618      	mov	r0, r3
 8002a12:	370c      	adds	r7, #12
 8002a14:	46bd      	mov	sp, r7
 8002a16:	f85d 7b04 	ldr.w	r7, [sp], #4
 8002a1a:	4770      	bx	lr

08002a1c <HAL_DMA_IRQHandler>:
 8002a1c:	b580      	push	{r7, lr}
 8002a1e:	b086      	sub	sp, #24
 8002a20:	af00      	add	r7, sp, #0
 8002a22:	6078      	str	r0, [r7, #4]
 8002a24:	2300      	movs	r3, #0
 8002a26:	60bb      	str	r3, [r7, #8]
 8002a28:	4b8e      	ldr	r3, [pc, #568]	; (8002c64 <HAL_DMA_IRQHandler+0x248>)
 8002a2a:	681b      	ldr	r3, [r3, #0]
 8002a2c:	4a8e      	ldr	r2, [pc, #568]	; (8002c68 <HAL_DMA_IRQHandler+0x24c>)
 8002a2e:	fba2 2303 	umull	r2, r3, r2, r3
 8002a32:	0a9b      	lsrs	r3, r3, #10
 8002a34:	617b      	str	r3, [r7, #20]
 8002a36:	687b      	ldr	r3, [r7, #4]
 8002a38:	6d9b      	ldr	r3, [r3, #88]	; 0x58
 8002a3a:	613b      	str	r3, [r7, #16]
 8002a3c:	693b      	ldr	r3, [r7, #16]
 8002a3e:	681b      	ldr	r3, [r3, #0]
 8002a40:	60fb      	str	r3, [r7, #12]
 8002a42:	687b      	ldr	r3, [r7, #4]
 8002a44:	6ddb      	ldr	r3, [r3, #92]	; 0x5c
 8002a46:	2208      	movs	r2, #8
 8002a48:	409a      	lsls	r2, r3
 8002a4a:	68fb      	ldr	r3, [r7, #12]
 8002a4c:	4013      	ands	r3, r2
 8002a4e:	2b00      	cmp	r3, #0
 8002a50:	d01a      	beq.n	8002a88 <HAL_DMA_IRQHandler+0x6c>
 8002a52:	687b      	ldr	r3, [r7, #4]
 8002a54:	681b      	ldr	r3, [r3, #0]
 8002a56:	681b      	ldr	r3, [r3, #0]
 8002a58:	f003 0304 	and.w	r3, r3, #4
 8002a5c:	2b00      	cmp	r3, #0
 8002a5e:	d013      	beq.n	8002a88 <HAL_DMA_IRQHandler+0x6c>
 8002a60:	687b      	ldr	r3, [r7, #4]
 8002a62:	681b      	ldr	r3, [r3, #0]
 8002a64:	681a      	ldr	r2, [r3, #0]
 8002a66:	687b      	ldr	r3, [r7, #4]
 8002a68:	681b      	ldr	r3, [r3, #0]
 8002a6a:	f022 0204 	bic.w	r2, r2, #4
 8002a6e:	601a      	str	r2, [r3, #0]
 8002a70:	687b      	ldr	r3, [r7, #4]
 8002a72:	6ddb      	ldr	r3, [r3, #92]	; 0x5c
 8002a74:	2208      	movs	r2, #8
 8002a76:	409a      	lsls	r2, r3
 8002a78:	693b      	ldr	r3, [r7, #16]
 8002a7a:	609a      	str	r2, [r3, #8]
 8002a7c:	687b      	ldr	r3, [r7, #4]
 8002a7e:	6d5b      	ldr	r3, [r3, #84]	; 0x54
 8002a80:	f043 0201 	orr.w	r2, r3, #1
 8002a84:	687b      	ldr	r3, [r7, #4]
 8002a86:	655a      	str	r2, [r3, #84]	; 0x54
 8002a88:	687b      	ldr	r3, [r7, #4]
 8002a8a:	6ddb      	ldr	r3, [r3, #92]	; 0x5c
 8002a8c:	2201      	movs	r2, #1
 8002a8e:	409a      	lsls	r2, r3
 8002a90:	68fb      	ldr	r3, [r7, #12]
 8002a92:	4013      	ands	r3, r2
 8002a94:	2b00      	cmp	r3, #0
 8002a96:	d012      	beq.n	8002abe <HAL_DMA_IRQHandler+0xa2>
 8002a98:	687b      	ldr	r3, [r7, #4]
 8002a9a:	681b      	ldr	r3, [r3, #0]
 8002a9c:	695b      	ldr	r3, [r3, #20]
 8002a9e:	f003 0380 	and.w	r3, r3, #128	; 0x80
 8002aa2:	2b00      	cmp	r3, #0
 8002aa4:	d00b      	beq.n	8002abe <HAL_DMA_IRQHandler+0xa2>
 8002aa6:	687b      	ldr	r3, [r7, #4]
 8002aa8:	6ddb      	ldr	r3, [r3, #92]	; 0x5c
 8002aaa:	2201      	movs	r2, #1
 8002aac:	409a      	lsls	r2, r3
 8002aae:	693b      	ldr	r3, [r7, #16]
 8002ab0:	609a      	str	r2, [r3, #8]
 8002ab2:	687b      	ldr	r3, [r7, #4]
 8002ab4:	6d5b      	ldr	r3, [r3, #84]	; 0x54
 8002ab6:	f043 0202 	orr.w	r2, r3, #2
 8002aba:	687b      	ldr	r3, [r7, #4]
 8002abc:	655a      	str	r2, [r3, #84]	; 0x54
 8002abe:	687b      	ldr	r3, [r7, #4]
 8002ac0:	6ddb      	ldr	r3, [r3, #92]	; 0x5c
 8002ac2:	2204      	movs	r2, #4
 8002ac4:	409a      	lsls	r2, r3
 8002ac6:	68fb      	ldr	r3, [r7, #12]
 8002ac8:	4013      	ands	r3, r2
 8002aca:	2b00      	cmp	r3, #0
 8002acc:	d012      	beq.n	8002af4 <HAL_DMA_IRQHandler+0xd8>
 8002ace:	687b      	ldr	r3, [r7, #4]
 8002ad0:	681b      	ldr	r3, [r3, #0]
 8002ad2:	681b      	ldr	r3, [r3, #0]
 8002ad4:	f003 0302 	and.w	r3, r3, #2
 8002ad8:	2b00      	cmp	r3, #0
 8002ada:	d00b      	beq.n	8002af4 <HAL_DMA_IRQHandler+0xd8>
 8002adc:	687b      	ldr	r3, [r7, #4]
 8002ade:	6ddb      	ldr	r3, [r3, #92]	; 0x5c
 8002ae0:	2204      	movs	r2, #4
 8002ae2:	409a      	lsls	r2, r3
 8002ae4:	693b      	ldr	r3, [r7, #16]
 8002ae6:	609a      	str	r2, [r3, #8]
 8002ae8:	687b      	ldr	r3, [r7, #4]
 8002aea:	6d5b      	ldr	r3, [r3, #84]	; 0x54
 8002aec:	f043 0204 	orr.w	r2, r3, #4
 8002af0:	687b      	ldr	r3, [r7, #4]
 8002af2:	655a      	str	r2, [r3, #84]	; 0x54
 8002af4:	687b      	ldr	r3, [r7, #4]
 8002af6:	6ddb      	ldr	r3, [r3, #92]	; 0x5c
 8002af8:	2210      	movs	r2, #16
 8002afa:	409a      	lsls	r2, r3
 8002afc:	68fb      	ldr	r3, [r7, #12]
 8002afe:	4013      	ands	r3, r2
 8002b00:	2b00      	cmp	r3, #0
 8002b02:	d043      	beq.n	8002b8c <HAL_DMA_IRQHandler+0x170>
 8002b04:	687b      	ldr	r3, [r7, #4]
 8002b06:	681b      	ldr	r3, [r3, #0]
 8002b08:	681b      	ldr	r3, [r3, #0]
 8002b0a:	f003 0308 	and.w	r3, r3, #8
 8002b0e:	2b00      	cmp	r3, #0
 8002b10:	d03c      	beq.n	8002b8c <HAL_DMA_IRQHandler+0x170>
 8002b12:	687b      	ldr	r3, [r7, #4]
 8002b14:	6ddb      	ldr	r3, [r3, #92]	; 0x5c
 8002b16:	2210      	movs	r2, #16
 8002b18:	409a      	lsls	r2, r3
 8002b1a:	693b      	ldr	r3, [r7, #16]
 8002b1c:	609a      	str	r2, [r3, #8]
 8002b1e:	687b      	ldr	r3, [r7, #4]
 8002b20:	681b      	ldr	r3, [r3, #0]
 8002b22:	681b      	ldr	r3, [r3, #0]
 8002b24:	f403 2380 	and.w	r3, r3, #262144	; 0x40000
 8002b28:	2b00      	cmp	r3, #0
 8002b2a:	d018      	beq.n	8002b5e <HAL_DMA_IRQHandler+0x142>
 8002b2c:	687b      	ldr	r3, [r7, #4]
 8002b2e:	681b      	ldr	r3, [r3, #0]
 8002b30:	681b      	ldr	r3, [r3, #0]
 8002b32:	f403 2300 	and.w	r3, r3, #524288	; 0x80000
 8002b36:	2b00      	cmp	r3, #0
 8002b38:	d108      	bne.n	8002b4c <HAL_DMA_IRQHandler+0x130>
 8002b3a:	687b      	ldr	r3, [r7, #4]
 8002b3c:	6c1b      	ldr	r3, [r3, #64]	; 0x40
 8002b3e:	2b00      	cmp	r3, #0
 8002b40:	d024      	beq.n	8002b8c <HAL_DMA_IRQHandler+0x170>
 8002b42:	687b      	ldr	r3, [r7, #4]
 8002b44:	6c1b      	ldr	r3, [r3, #64]	; 0x40
 8002b46:	6878      	ldr	r0, [r7, #4]
 8002b48:	4798      	blx	r3
 8002b4a:	e01f      	b.n	8002b8c <HAL_DMA_IRQHandler+0x170>
 8002b4c:	687b      	ldr	r3, [r7, #4]
 8002b4e:	6c9b      	ldr	r3, [r3, #72]	; 0x48
 8002b50:	2b00      	cmp	r3, #0
 8002b52:	d01b      	beq.n	8002b8c <HAL_DMA_IRQHandler+0x170>
 8002b54:	687b      	ldr	r3, [r7, #4]
 8002b56:	6c9b      	ldr	r3, [r3, #72]	; 0x48
 8002b58:	6878      	ldr	r0, [r7, #4]
 8002b5a:	4798      	blx	r3
 8002b5c:	e016      	b.n	8002b8c <HAL_DMA_IRQHandler+0x170>
 8002b5e:	687b      	ldr	r3, [r7, #4]
 8002b60:	681b      	ldr	r3, [r3, #0]
 8002b62:	681b      	ldr	r3, [r3, #0]
 8002b64:	f403 7380 	and.w	r3, r3, #256	; 0x100
 8002b68:	2b00      	cmp	r3, #0
 8002b6a:	d107      	bne.n	8002b7c <HAL_DMA_IRQHandler+0x160>
 8002b6c:	687b      	ldr	r3, [r7, #4]
 8002b6e:	681b      	ldr	r3, [r3, #0]
 8002b70:	681a      	ldr	r2, [r3, #0]
 8002b72:	687b      	ldr	r3, [r7, #4]
 8002b74:	681b      	ldr	r3, [r3, #0]
 8002b76:	f022 0208 	bic.w	r2, r2, #8
 8002b7a:	601a      	str	r2, [r3, #0]
 8002b7c:	687b      	ldr	r3, [r7, #4]
 8002b7e:	6c1b      	ldr	r3, [r3, #64]	; 0x40
 8002b80:	2b00      	cmp	r3, #0
 8002b82:	d003      	beq.n	8002b8c <HAL_DMA_IRQHandler+0x170>
 8002b84:	687b      	ldr	r3, [r7, #4]
 8002b86:	6c1b      	ldr	r3, [r3, #64]	; 0x40
 8002b88:	6878      	ldr	r0, [r7, #4]
 8002b8a:	4798      	blx	r3
 8002b8c:	687b      	ldr	r3, [r7, #4]
 8002b8e:	6ddb      	ldr	r3, [r3, #92]	; 0x5c
 8002b90:	2220      	movs	r2, #32
 8002b92:	409a      	lsls	r2, r3
 8002b94:	68fb      	ldr	r3, [r7, #12]
 8002b96:	4013      	ands	r3, r2
 8002b98:	2b00      	cmp	r3, #0
 8002b9a:	f000 808f 	beq.w	8002cbc <HAL_DMA_IRQHandler+0x2a0>
 8002b9e:	687b      	ldr	r3, [r7, #4]
 8002ba0:	681b      	ldr	r3, [r3, #0]
 8002ba2:	681b      	ldr	r3, [r3, #0]
 8002ba4:	f003 0310 	and.w	r3, r3, #16
 8002ba8:	2b00      	cmp	r3, #0
 8002baa:	f000 8087 	beq.w	8002cbc <HAL_DMA_IRQHandler+0x2a0>
 8002bae:	687b      	ldr	r3, [r7, #4]
 8002bb0:	6ddb      	ldr	r3, [r3, #92]	; 0x5c
 8002bb2:	2220      	movs	r2, #32
 8002bb4:	409a      	lsls	r2, r3
 8002bb6:	693b      	ldr	r3, [r7, #16]
 8002bb8:	609a      	str	r2, [r3, #8]
 8002bba:	687b      	ldr	r3, [r7, #4]
 8002bbc:	f893 3035 	ldrb.w	r3, [r3, #53]	; 0x35
 8002bc0:	b2db      	uxtb	r3, r3
 8002bc2:	2b05      	cmp	r3, #5
 8002bc4:	d136      	bne.n	8002c34 <HAL_DMA_IRQHandler+0x218>
 8002bc6:	687b      	ldr	r3, [r7, #4]
 8002bc8:	681b      	ldr	r3, [r3, #0]
 8002bca:	681a      	ldr	r2, [r3, #0]
 8002bcc:	687b      	ldr	r3, [r7, #4]
 8002bce:	681b      	ldr	r3, [r3, #0]
 8002bd0:	f022 0216 	bic.w	r2, r2, #22
 8002bd4:	601a      	str	r2, [r3, #0]
 8002bd6:	687b      	ldr	r3, [r7, #4]
 8002bd8:	681b      	ldr	r3, [r3, #0]
 8002bda:	695a      	ldr	r2, [r3, #20]
 8002bdc:	687b      	ldr	r3, [r7, #4]
 8002bde:	681b      	ldr	r3, [r3, #0]
 8002be0:	f022 0280 	bic.w	r2, r2, #128	; 0x80
 8002be4:	615a      	str	r2, [r3, #20]
 8002be6:	687b      	ldr	r3, [r7, #4]
 8002be8:	6c1b      	ldr	r3, [r3, #64]	; 0x40
 8002bea:	2b00      	cmp	r3, #0
 8002bec:	d103      	bne.n	8002bf6 <HAL_DMA_IRQHandler+0x1da>
 8002bee:	687b      	ldr	r3, [r7, #4]
 8002bf0:	6c9b      	ldr	r3, [r3, #72]	; 0x48
 8002bf2:	2b00      	cmp	r3, #0
 8002bf4:	d007      	beq.n	8002c06 <HAL_DMA_IRQHandler+0x1ea>
 8002bf6:	687b      	ldr	r3, [r7, #4]
 8002bf8:	681b      	ldr	r3, [r3, #0]
 8002bfa:	681a      	ldr	r2, [r3, #0]
 8002bfc:	687b      	ldr	r3, [r7, #4]
 8002bfe:	681b      	ldr	r3, [r3, #0]
 8002c00:	f022 0208 	bic.w	r2, r2, #8
 8002c04:	601a      	str	r2, [r3, #0]
 8002c06:	687b      	ldr	r3, [r7, #4]
 8002c08:	6ddb      	ldr	r3, [r3, #92]	; 0x5c
 8002c0a:	223f      	movs	r2, #63	; 0x3f
 8002c0c:	409a      	lsls	r2, r3
 8002c0e:	693b      	ldr	r3, [r7, #16]
 8002c10:	609a      	str	r2, [r3, #8]
 8002c12:	687b      	ldr	r3, [r7, #4]
 8002c14:	2201      	movs	r2, #1
 8002c16:	f883 2035 	strb.w	r2, [r3, #53]	; 0x35
 8002c1a:	687b      	ldr	r3, [r7, #4]
 8002c1c:	2200      	movs	r2, #0
 8002c1e:	f883 2034 	strb.w	r2, [r3, #52]	; 0x34
 8002c22:	687b      	ldr	r3, [r7, #4]
 8002c24:	6d1b      	ldr	r3, [r3, #80]	; 0x50
 8002c26:	2b00      	cmp	r3, #0
 8002c28:	d07e      	beq.n	8002d28 <HAL_DMA_IRQHandler+0x30c>
 8002c2a:	687b      	ldr	r3, [r7, #4]
 8002c2c:	6d1b      	ldr	r3, [r3, #80]	; 0x50
 8002c2e:	6878      	ldr	r0, [r7, #4]
 8002c30:	4798      	blx	r3
 8002c32:	e079      	b.n	8002d28 <HAL_DMA_IRQHandler+0x30c>
 8002c34:	687b      	ldr	r3, [r7, #4]
 8002c36:	681b      	ldr	r3, [r3, #0]
 8002c38:	681b      	ldr	r3, [r3, #0]
 8002c3a:	f403 2380 	and.w	r3, r3, #262144	; 0x40000
 8002c3e:	2b00      	cmp	r3, #0
 8002c40:	d01d      	beq.n	8002c7e <HAL_DMA_IRQHandler+0x262>
 8002c42:	687b      	ldr	r3, [r7, #4]
 8002c44:	681b      	ldr	r3, [r3, #0]
 8002c46:	681b      	ldr	r3, [r3, #0]
 8002c48:	f403 2300 	and.w	r3, r3, #524288	; 0x80000
 8002c4c:	2b00      	cmp	r3, #0
 8002c4e:	d10d      	bne.n	8002c6c <HAL_DMA_IRQHandler+0x250>
 8002c50:	687b      	ldr	r3, [r7, #4]
 8002c52:	6c5b      	ldr	r3, [r3, #68]	; 0x44
 8002c54:	2b00      	cmp	r3, #0
 8002c56:	d031      	beq.n	8002cbc <HAL_DMA_IRQHandler+0x2a0>
 8002c58:	687b      	ldr	r3, [r7, #4]
 8002c5a:	6c5b      	ldr	r3, [r3, #68]	; 0x44
 8002c5c:	6878      	ldr	r0, [r7, #4]
 8002c5e:	4798      	blx	r3
 8002c60:	e02c      	b.n	8002cbc <HAL_DMA_IRQHandler+0x2a0>
 8002c62:	bf00      	nop
 8002c64:	20000000 	.word	0x20000000
 8002c68:	1b4e81b5 	.word	0x1b4e81b5
 8002c6c:	687b      	ldr	r3, [r7, #4]
 8002c6e:	6bdb      	ldr	r3, [r3, #60]	; 0x3c
 8002c70:	2b00      	cmp	r3, #0
 8002c72:	d023      	beq.n	8002cbc <HAL_DMA_IRQHandler+0x2a0>
 8002c74:	687b      	ldr	r3, [r7, #4]
 8002c76:	6bdb      	ldr	r3, [r3, #60]	; 0x3c
 8002c78:	6878      	ldr	r0, [r7, #4]
 8002c7a:	4798      	blx	r3
 8002c7c:	e01e      	b.n	8002cbc <HAL_DMA_IRQHandler+0x2a0>
 8002c7e:	687b      	ldr	r3, [r7, #4]
 8002c80:	681b      	ldr	r3, [r3, #0]
 8002c82:	681b      	ldr	r3, [r3, #0]
 8002c84:	f403 7380 	and.w	r3, r3, #256	; 0x100
 8002c88:	2b00      	cmp	r3, #0
 8002c8a:	d10f      	bne.n	8002cac <HAL_DMA_IRQHandler+0x290>
 8002c8c:	687b      	ldr	r3, [r7, #4]
 8002c8e:	681b      	ldr	r3, [r3, #0]
 8002c90:	681a      	ldr	r2, [r3, #0]
 8002c92:	687b      	ldr	r3, [r7, #4]
 8002c94:	681b      	ldr	r3, [r3, #0]
 8002c96:	f022 0210 	bic.w	r2, r2, #16
 8002c9a:	601a      	str	r2, [r3, #0]
 8002c9c:	687b      	ldr	r3, [r7, #4]
 8002c9e:	2201      	movs	r2, #1
 8002ca0:	f883 2035 	strb.w	r2, [r3, #53]	; 0x35
 8002ca4:	687b      	ldr	r3, [r7, #4]
 8002ca6:	2200      	movs	r2, #0
 8002ca8:	f883 2034 	strb.w	r2, [r3, #52]	; 0x34
 8002cac:	687b      	ldr	r3, [r7, #4]
 8002cae:	6bdb      	ldr	r3, [r3, #60]	; 0x3c
 8002cb0:	2b00      	cmp	r3, #0
 8002cb2:	d003      	beq.n	8002cbc <HAL_DMA_IRQHandler+0x2a0>
 8002cb4:	687b      	ldr	r3, [r7, #4]
 8002cb6:	6bdb      	ldr	r3, [r3, #60]	; 0x3c
 8002cb8:	6878      	ldr	r0, [r7, #4]
 8002cba:	4798      	blx	r3
 8002cbc:	687b      	ldr	r3, [r7, #4]
 8002cbe:	6d5b      	ldr	r3, [r3, #84]	; 0x54
 8002cc0:	2b00      	cmp	r3, #0
 8002cc2:	d032      	beq.n	8002d2a <HAL_DMA_IRQHandler+0x30e>
 8002cc4:	687b      	ldr	r3, [r7, #4]
 8002cc6:	6d5b      	ldr	r3, [r3, #84]	; 0x54
 8002cc8:	f003 0301 	and.w	r3, r3, #1
 8002ccc:	2b00      	cmp	r3, #0
 8002cce:	d022      	beq.n	8002d16 <HAL_DMA_IRQHandler+0x2fa>
 8002cd0:	687b      	ldr	r3, [r7, #4]
 8002cd2:	2205      	movs	r2, #5
 8002cd4:	f883 2035 	strb.w	r2, [r3, #53]	; 0x35
 8002cd8:	687b      	ldr	r3, [r7, #4]
 8002cda:	681b      	ldr	r3, [r3, #0]
 8002cdc:	681a      	ldr	r2, [r3, #0]
 8002cde:	687b      	ldr	r3, [r7, #4]
 8002ce0:	681b      	ldr	r3, [r3, #0]
 8002ce2:	f022 0201 	bic.w	r2, r2, #1
 8002ce6:	601a      	str	r2, [r3, #0]
 8002ce8:	68bb      	ldr	r3, [r7, #8]
 8002cea:	3301      	adds	r3, #1
 8002cec:	60bb      	str	r3, [r7, #8]
 8002cee:	697a      	ldr	r2, [r7, #20]
 8002cf0:	429a      	cmp	r2, r3
 8002cf2:	d307      	bcc.n	8002d04 <HAL_DMA_IRQHandler+0x2e8>
 8002cf4:	687b      	ldr	r3, [r7, #4]
 8002cf6:	681b      	ldr	r3, [r3, #0]
 8002cf8:	681b      	ldr	r3, [r3, #0]
 8002cfa:	f003 0301 	and.w	r3, r3, #1
 8002cfe:	2b00      	cmp	r3, #0
 8002d00:	d1f2      	bne.n	8002ce8 <HAL_DMA_IRQHandler+0x2cc>
 8002d02:	e000      	b.n	8002d06 <HAL_DMA_IRQHandler+0x2ea>
 8002d04:	bf00      	nop
 8002d06:	687b      	ldr	r3, [r7, #4]
 8002d08:	2201      	movs	r2, #1
 8002d0a:	f883 2035 	strb.w	r2, [r3, #53]	; 0x35
 8002d0e:	687b      	ldr	r3, [r7, #4]
 8002d10:	2200      	movs	r2, #0
 8002d12:	f883 2034 	strb.w	r2, [r3, #52]	; 0x34
 8002d16:	687b      	ldr	r3, [r7, #4]
 8002d18:	6cdb      	ldr	r3, [r3, #76]	; 0x4c
 8002d1a:	2b00      	cmp	r3, #0
 8002d1c:	d005      	beq.n	8002d2a <HAL_DMA_IRQHandler+0x30e>
 8002d1e:	687b      	ldr	r3, [r7, #4]
 8002d20:	6cdb      	ldr	r3, [r3, #76]	; 0x4c
 8002d22:	6878      	ldr	r0, [r7, #4]
 8002d24:	4798      	blx	r3
 8002d26:	e000      	b.n	8002d2a <HAL_DMA_IRQHandler+0x30e>
 8002d28:	bf00      	nop
 8002d2a:	3718      	adds	r7, #24
 8002d2c:	46bd      	mov	sp, r7
 8002d2e:	bd80      	pop	{r7, pc}

08002d30 <HAL_DMA_GetError>:
 8002d30:	b480      	push	{r7}
 8002d32:	b083      	sub	sp, #12
 8002d34:	af00      	add	r7, sp, #0
 8002d36:	6078      	str	r0, [r7, #4]
 8002d38:	687b      	ldr	r3, [r7, #4]
 8002d3a:	6d5b      	ldr	r3, [r3, #84]	; 0x54
 8002d3c:	4618      	mov	r0, r3
 8002d3e:	370c      	adds	r7, #12
 8002d40:	46bd      	mov	sp, r7
 8002d42:	f85d 7b04 	ldr.w	r7, [sp], #4
 8002d46:	4770      	bx	lr

08002d48 <DMA_SetConfig>:
 8002d48:	b480      	push	{r7}
 8002d4a:	b085      	sub	sp, #20
 8002d4c:	af00      	add	r7, sp, #0
 8002d4e:	60f8      	str	r0, [r7, #12]
 8002d50:	60b9      	str	r1, [r7, #8]
 8002d52:	607a      	str	r2, [r7, #4]
 8002d54:	603b      	str	r3, [r7, #0]
 8002d56:	68fb      	ldr	r3, [r7, #12]
 8002d58:	681b      	ldr	r3, [r3, #0]
 8002d5a:	681a      	ldr	r2, [r3, #0]
 8002d5c:	68fb      	ldr	r3, [r7, #12]
 8002d5e:	681b      	ldr	r3, [r3, #0]
 8002d60:	f422 2280 	bic.w	r2, r2, #262144	; 0x40000
 8002d64:	601a      	str	r2, [r3, #0]
 8002d66:	68fb      	ldr	r3, [r7, #12]
 8002d68:	681b      	ldr	r3, [r3, #0]
 8002d6a:	683a      	ldr	r2, [r7, #0]
 8002d6c:	605a      	str	r2, [r3, #4]
 8002d6e:	68fb      	ldr	r3, [r7, #12]
 8002d70:	689b      	ldr	r3, [r3, #8]
 8002d72:	2b40      	cmp	r3, #64	; 0x40
 8002d74:	d108      	bne.n	8002d88 <DMA_SetConfig+0x40>
 8002d76:	68fb      	ldr	r3, [r7, #12]
 8002d78:	681b      	ldr	r3, [r3, #0]
 8002d7a:	687a      	ldr	r2, [r7, #4]
 8002d7c:	609a      	str	r2, [r3, #8]
 8002d7e:	68fb      	ldr	r3, [r7, #12]
 8002d80:	681b      	ldr	r3, [r3, #0]
 8002d82:	68ba      	ldr	r2, [r7, #8]
 8002d84:	60da      	str	r2, [r3, #12]
 8002d86:	e007      	b.n	8002d98 <DMA_SetConfig+0x50>
 8002d88:	68fb      	ldr	r3, [r7, #12]
 8002d8a:	681b      	ldr	r3, [r3, #0]
 8002d8c:	68ba      	ldr	r2, [r7, #8]
 8002d8e:	609a      	str	r2, [r3, #8]
 8002d90:	68fb      	ldr	r3, [r7, #12]
 8002d92:	681b      	ldr	r3, [r3, #0]
 8002d94:	687a      	ldr	r2, [r7, #4]
 8002d96:	60da      	str	r2, [r3, #12]
 8002d98:	bf00      	nop
 8002d9a:	3714      	adds	r7, #20
 8002d9c:	46bd      	mov	sp, r7
 8002d9e:	f85d 7b04 	ldr.w	r7, [sp], #4
 8002da2:	4770      	bx	lr

08002da4 <DMA_CalcBaseAndBitshift>:
 8002da4:	b480      	push	{r7}
 8002da6:	b085      	sub	sp, #20
 8002da8:	af00      	add	r7, sp, #0
 8002daa:	6078      	str	r0, [r7, #4]
 8002dac:	687b      	ldr	r3, [r7, #4]
 8002dae:	681b      	ldr	r3, [r3, #0]
 8002db0:	b2db      	uxtb	r3, r3
 8002db2:	3b10      	subs	r3, #16
 8002db4:	4a14      	ldr	r2, [pc, #80]	; (8002e08 <DMA_CalcBaseAndBitshift+0x64>)
 8002db6:	fba2 2303 	umull	r2, r3, r2, r3
 8002dba:	091b      	lsrs	r3, r3, #4
 8002dbc:	60fb      	str	r3, [r7, #12]
 8002dbe:	4a13      	ldr	r2, [pc, #76]	; (8002e0c <DMA_CalcBaseAndBitshift+0x68>)
 8002dc0:	68fb      	ldr	r3, [r7, #12]
 8002dc2:	4413      	add	r3, r2
 8002dc4:	781b      	ldrb	r3, [r3, #0]
 8002dc6:	461a      	mov	r2, r3
 8002dc8:	687b      	ldr	r3, [r7, #4]
 8002dca:	65da      	str	r2, [r3, #92]	; 0x5c
 8002dcc:	68fb      	ldr	r3, [r7, #12]
 8002dce:	2b03      	cmp	r3, #3
 8002dd0:	d909      	bls.n	8002de6 <DMA_CalcBaseAndBitshift+0x42>
 8002dd2:	687b      	ldr	r3, [r7, #4]
 8002dd4:	681b      	ldr	r3, [r3, #0]
 8002dd6:	f423 737f 	bic.w	r3, r3, #1020	; 0x3fc
 8002dda:	f023 0303 	bic.w	r3, r3, #3
 8002dde:	1d1a      	adds	r2, r3, #4
 8002de0:	687b      	ldr	r3, [r7, #4]
 8002de2:	659a      	str	r2, [r3, #88]	; 0x58
 8002de4:	e007      	b.n	8002df6 <DMA_CalcBaseAndBitshift+0x52>
 8002de6:	687b      	ldr	r3, [r7, #4]
 8002de8:	681b      	ldr	r3, [r3, #0]
 8002dea:	f423 737f 	bic.w	r3, r3, #1020	; 0x3fc
 8002dee:	f023 0303 	bic.w	r3, r3, #3
 8002df2:	687a      	ldr	r2, [r7, #4]
 8002df4:	6593      	str	r3, [r2, #88]	; 0x58
 8002df6:	687b      	ldr	r3, [r7, #4]
 8002df8:	6d9b      	ldr	r3, [r3, #88]	; 0x58
 8002dfa:	4618      	mov	r0, r3
 8002dfc:	3714      	adds	r7, #20
 8002dfe:	46bd      	mov	sp, r7
 8002e00:	f85d 7b04 	ldr.w	r7, [sp], #4
 8002e04:	4770      	bx	lr
 8002e06:	bf00      	nop
 8002e08:	aaaaaaab 	.word	0xaaaaaaab
 8002e0c:	0800ae78 	.word	0x0800ae78

08002e10 <DMA_CheckFifoParam>:
 8002e10:	b480      	push	{r7}
 8002e12:	b085      	sub	sp, #20
 8002e14:	af00      	add	r7, sp, #0
 8002e16:	6078      	str	r0, [r7, #4]
 8002e18:	2300      	movs	r3, #0
 8002e1a:	73fb      	strb	r3, [r7, #15]
 8002e1c:	687b      	ldr	r3, [r7, #4]
 8002e1e:	6a9b      	ldr	r3, [r3, #40]	; 0x28
 8002e20:	60bb      	str	r3, [r7, #8]
 8002e22:	687b      	ldr	r3, [r7, #4]
 8002e24:	699b      	ldr	r3, [r3, #24]
 8002e26:	2b00      	cmp	r3, #0
 8002e28:	d11f      	bne.n	8002e6a <DMA_CheckFifoParam+0x5a>
 8002e2a:	68bb      	ldr	r3, [r7, #8]
 8002e2c:	2b03      	cmp	r3, #3
 8002e2e:	d856      	bhi.n	8002ede <DMA_CheckFifoParam+0xce>
 8002e30:	a201      	add	r2, pc, #4	; (adr r2, 8002e38 <DMA_CheckFifoParam+0x28>)
 8002e32:	f852 f023 	ldr.w	pc, [r2, r3, lsl #2]
 8002e36:	bf00      	nop
 8002e38:	08002e49 	.word	0x08002e49
 8002e3c:	08002e5b 	.word	0x08002e5b
 8002e40:	08002e49 	.word	0x08002e49
 8002e44:	08002edf 	.word	0x08002edf
 8002e48:	687b      	ldr	r3, [r7, #4]
 8002e4a:	6adb      	ldr	r3, [r3, #44]	; 0x2c
 8002e4c:	f003 7380 	and.w	r3, r3, #16777216	; 0x1000000
 8002e50:	2b00      	cmp	r3, #0
 8002e52:	d046      	beq.n	8002ee2 <DMA_CheckFifoParam+0xd2>
 8002e54:	2301      	movs	r3, #1
 8002e56:	73fb      	strb	r3, [r7, #15]
 8002e58:	e043      	b.n	8002ee2 <DMA_CheckFifoParam+0xd2>
 8002e5a:	687b      	ldr	r3, [r7, #4]
 8002e5c:	6adb      	ldr	r3, [r3, #44]	; 0x2c
 8002e5e:	f1b3 7fc0 	cmp.w	r3, #25165824	; 0x1800000
 8002e62:	d140      	bne.n	8002ee6 <DMA_CheckFifoParam+0xd6>
 8002e64:	2301      	movs	r3, #1
 8002e66:	73fb      	strb	r3, [r7, #15]
 8002e68:	e03d      	b.n	8002ee6 <DMA_CheckFifoParam+0xd6>
 8002e6a:	687b      	ldr	r3, [r7, #4]
 8002e6c:	699b      	ldr	r3, [r3, #24]
 8002e6e:	f5b3 5f00 	cmp.w	r3, #8192	; 0x2000
 8002e72:	d121      	bne.n	8002eb8 <DMA_CheckFifoParam+0xa8>
 8002e74:	68bb      	ldr	r3, [r7, #8]
 8002e76:	2b03      	cmp	r3, #3
 8002e78:	d837      	bhi.n	8002eea <DMA_CheckFifoParam+0xda>
 8002e7a:	a201      	add	r2, pc, #4	; (adr r2, 8002e80 <DMA_CheckFifoParam+0x70>)
 8002e7c:	f852 f023 	ldr.w	pc, [r2, r3, lsl #2]
 8002e80:	08002e91 	.word	0x08002e91
 8002e84:	08002e97 	.word	0x08002e97
 8002e88:	08002e91 	.word	0x08002e91
 8002e8c:	08002ea9 	.word	0x08002ea9
 8002e90:	2301      	movs	r3, #1
 8002e92:	73fb      	strb	r3, [r7, #15]
 8002e94:	e030      	b.n	8002ef8 <DMA_CheckFifoParam+0xe8>
 8002e96:	687b      	ldr	r3, [r7, #4]
 8002e98:	6adb      	ldr	r3, [r3, #44]	; 0x2c
 8002e9a:	f003 7380 	and.w	r3, r3, #16777216	; 0x1000000
 8002e9e:	2b00      	cmp	r3, #0
 8002ea0:	d025      	beq.n	8002eee <DMA_CheckFifoParam+0xde>
 8002ea2:	2301      	movs	r3, #1
 8002ea4:	73fb      	strb	r3, [r7, #15]
 8002ea6:	e022      	b.n	8002eee <DMA_CheckFifoParam+0xde>
 8002ea8:	687b      	ldr	r3, [r7, #4]
 8002eaa:	6adb      	ldr	r3, [r3, #44]	; 0x2c
 8002eac:	f1b3 7fc0 	cmp.w	r3, #25165824	; 0x1800000
 8002eb0:	d11f      	bne.n	8002ef2 <DMA_CheckFifoParam+0xe2>
 8002eb2:	2301      	movs	r3, #1
 8002eb4:	73fb      	strb	r3, [r7, #15]
 8002eb6:	e01c      	b.n	8002ef2 <DMA_CheckFifoParam+0xe2>
 8002eb8:	68bb      	ldr	r3, [r7, #8]
 8002eba:	2b02      	cmp	r3, #2
 8002ebc:	d903      	bls.n	8002ec6 <DMA_CheckFifoParam+0xb6>
 8002ebe:	68bb      	ldr	r3, [r7, #8]
 8002ec0:	2b03      	cmp	r3, #3
 8002ec2:	d003      	beq.n	8002ecc <DMA_CheckFifoParam+0xbc>
 8002ec4:	e018      	b.n	8002ef8 <DMA_CheckFifoParam+0xe8>
 8002ec6:	2301      	movs	r3, #1
 8002ec8:	73fb      	strb	r3, [r7, #15]
 8002eca:	e015      	b.n	8002ef8 <DMA_CheckFifoParam+0xe8>
 8002ecc:	687b      	ldr	r3, [r7, #4]
 8002ece:	6adb      	ldr	r3, [r3, #44]	; 0x2c
 8002ed0:	f003 7380 	and.w	r3, r3, #16777216	; 0x1000000
 8002ed4:	2b00      	cmp	r3, #0
 8002ed6:	d00e      	beq.n	8002ef6 <DMA_CheckFifoParam+0xe6>
 8002ed8:	2301      	movs	r3, #1
 8002eda:	73fb      	strb	r3, [r7, #15]
 8002edc:	e00b      	b.n	8002ef6 <DMA_CheckFifoParam+0xe6>
 8002ede:	bf00      	nop
 8002ee0:	e00a      	b.n	8002ef8 <DMA_CheckFifoParam+0xe8>
 8002ee2:	bf00      	nop
 8002ee4:	e008      	b.n	8002ef8 <DMA_CheckFifoParam+0xe8>
 8002ee6:	bf00      	nop
 8002ee8:	e006      	b.n	8002ef8 <DMA_CheckFifoParam+0xe8>
 8002eea:	bf00      	nop
 8002eec:	e004      	b.n	8002ef8 <DMA_CheckFifoParam+0xe8>
 8002eee:	bf00      	nop
 8002ef0:	e002      	b.n	8002ef8 <DMA_CheckFifoParam+0xe8>
 8002ef2:	bf00      	nop
 8002ef4:	e000      	b.n	8002ef8 <DMA_CheckFifoParam+0xe8>
 8002ef6:	bf00      	nop
 8002ef8:	7bfb      	ldrb	r3, [r7, #15]
 8002efa:	4618      	mov	r0, r3
 8002efc:	3714      	adds	r7, #20
 8002efe:	46bd      	mov	sp, r7
 8002f00:	f85d 7b04 	ldr.w	r7, [sp], #4
 8002f04:	4770      	bx	lr
 8002f06:	bf00      	nop

08002f08 <HAL_GPIO_Init>:
 8002f08:	b480      	push	{r7}
 8002f0a:	b089      	sub	sp, #36	; 0x24
 8002f0c:	af00      	add	r7, sp, #0
 8002f0e:	6078      	str	r0, [r7, #4]
 8002f10:	6039      	str	r1, [r7, #0]
 8002f12:	2300      	movs	r3, #0
 8002f14:	617b      	str	r3, [r7, #20]
 8002f16:	2300      	movs	r3, #0
 8002f18:	613b      	str	r3, [r7, #16]
 8002f1a:	2300      	movs	r3, #0
 8002f1c:	61bb      	str	r3, [r7, #24]
 8002f1e:	2300      	movs	r3, #0
 8002f20:	61fb      	str	r3, [r7, #28]
 8002f22:	e159      	b.n	80031d8 <HAL_GPIO_Init+0x2d0>
 8002f24:	2201      	movs	r2, #1
 8002f26:	69fb      	ldr	r3, [r7, #28]
 8002f28:	fa02 f303 	lsl.w	r3, r2, r3
 8002f2c:	617b      	str	r3, [r7, #20]
 8002f2e:	683b      	ldr	r3, [r7, #0]
 8002f30:	681b      	ldr	r3, [r3, #0]
 8002f32:	697a      	ldr	r2, [r7, #20]
 8002f34:	4013      	ands	r3, r2
 8002f36:	613b      	str	r3, [r7, #16]
 8002f38:	693a      	ldr	r2, [r7, #16]
 8002f3a:	697b      	ldr	r3, [r7, #20]
 8002f3c:	429a      	cmp	r2, r3
 8002f3e:	f040 8148 	bne.w	80031d2 <HAL_GPIO_Init+0x2ca>
 8002f42:	683b      	ldr	r3, [r7, #0]
 8002f44:	685b      	ldr	r3, [r3, #4]
 8002f46:	f003 0303 	and.w	r3, r3, #3
 8002f4a:	2b01      	cmp	r3, #1
 8002f4c:	d005      	beq.n	8002f5a <HAL_GPIO_Init+0x52>
 8002f4e:	683b      	ldr	r3, [r7, #0]
 8002f50:	685b      	ldr	r3, [r3, #4]
 8002f52:	f003 0303 	and.w	r3, r3, #3
 8002f56:	2b02      	cmp	r3, #2
 8002f58:	d130      	bne.n	8002fbc <HAL_GPIO_Init+0xb4>
 8002f5a:	687b      	ldr	r3, [r7, #4]
 8002f5c:	689b      	ldr	r3, [r3, #8]
 8002f5e:	61bb      	str	r3, [r7, #24]
 8002f60:	69fb      	ldr	r3, [r7, #28]
 8002f62:	005b      	lsls	r3, r3, #1
 8002f64:	2203      	movs	r2, #3
 8002f66:	fa02 f303 	lsl.w	r3, r2, r3
 8002f6a:	43db      	mvns	r3, r3
 8002f6c:	69ba      	ldr	r2, [r7, #24]
 8002f6e:	4013      	ands	r3, r2
 8002f70:	61bb      	str	r3, [r7, #24]
 8002f72:	683b      	ldr	r3, [r7, #0]
 8002f74:	68da      	ldr	r2, [r3, #12]
 8002f76:	69fb      	ldr	r3, [r7, #28]
 8002f78:	005b      	lsls	r3, r3, #1
 8002f7a:	fa02 f303 	lsl.w	r3, r2, r3
 8002f7e:	69ba      	ldr	r2, [r7, #24]
 8002f80:	4313      	orrs	r3, r2
 8002f82:	61bb      	str	r3, [r7, #24]
 8002f84:	687b      	ldr	r3, [r7, #4]
 8002f86:	69ba      	ldr	r2, [r7, #24]
 8002f88:	609a      	str	r2, [r3, #8]
 8002f8a:	687b      	ldr	r3, [r7, #4]
 8002f8c:	685b      	ldr	r3, [r3, #4]
 8002f8e:	61bb      	str	r3, [r7, #24]
 8002f90:	2201      	movs	r2, #1
 8002f92:	69fb      	ldr	r3, [r7, #28]
 8002f94:	fa02 f303 	lsl.w	r3, r2, r3
 8002f98:	43db      	mvns	r3, r3
 8002f9a:	69ba      	ldr	r2, [r7, #24]
 8002f9c:	4013      	ands	r3, r2
 8002f9e:	61bb      	str	r3, [r7, #24]
 8002fa0:	683b      	ldr	r3, [r7, #0]
 8002fa2:	685b      	ldr	r3, [r3, #4]
 8002fa4:	091b      	lsrs	r3, r3, #4
 8002fa6:	f003 0201 	and.w	r2, r3, #1
 8002faa:	69fb      	ldr	r3, [r7, #28]
 8002fac:	fa02 f303 	lsl.w	r3, r2, r3
 8002fb0:	69ba      	ldr	r2, [r7, #24]
 8002fb2:	4313      	orrs	r3, r2
 8002fb4:	61bb      	str	r3, [r7, #24]
 8002fb6:	687b      	ldr	r3, [r7, #4]
 8002fb8:	69ba      	ldr	r2, [r7, #24]
 8002fba:	605a      	str	r2, [r3, #4]
 8002fbc:	683b      	ldr	r3, [r7, #0]
 8002fbe:	685b      	ldr	r3, [r3, #4]
 8002fc0:	f003 0303 	and.w	r3, r3, #3
 8002fc4:	2b03      	cmp	r3, #3
 8002fc6:	d017      	beq.n	8002ff8 <HAL_GPIO_Init+0xf0>
 8002fc8:	687b      	ldr	r3, [r7, #4]
 8002fca:	68db      	ldr	r3, [r3, #12]
 8002fcc:	61bb      	str	r3, [r7, #24]
 8002fce:	69fb      	ldr	r3, [r7, #28]
 8002fd0:	005b      	lsls	r3, r3, #1
 8002fd2:	2203      	movs	r2, #3
 8002fd4:	fa02 f303 	lsl.w	r3, r2, r3
 8002fd8:	43db      	mvns	r3, r3
 8002fda:	69ba      	ldr	r2, [r7, #24]
 8002fdc:	4013      	ands	r3, r2
 8002fde:	61bb      	str	r3, [r7, #24]
 8002fe0:	683b      	ldr	r3, [r7, #0]
 8002fe2:	689a      	ldr	r2, [r3, #8]
 8002fe4:	69fb      	ldr	r3, [r7, #28]
 8002fe6:	005b      	lsls	r3, r3, #1
 8002fe8:	fa02 f303 	lsl.w	r3, r2, r3
 8002fec:	69ba      	ldr	r2, [r7, #24]
 8002fee:	4313      	orrs	r3, r2
 8002ff0:	61bb      	str	r3, [r7, #24]
 8002ff2:	687b      	ldr	r3, [r7, #4]
 8002ff4:	69ba      	ldr	r2, [r7, #24]
 8002ff6:	60da      	str	r2, [r3, #12]
 8002ff8:	683b      	ldr	r3, [r7, #0]
 8002ffa:	685b      	ldr	r3, [r3, #4]
 8002ffc:	f003 0303 	and.w	r3, r3, #3
 8003000:	2b02      	cmp	r3, #2
 8003002:	d123      	bne.n	800304c <HAL_GPIO_Init+0x144>
 8003004:	69fb      	ldr	r3, [r7, #28]
 8003006:	08da      	lsrs	r2, r3, #3
 8003008:	687b      	ldr	r3, [r7, #4]
 800300a:	3208      	adds	r2, #8
 800300c:	f853 3022 	ldr.w	r3, [r3, r2, lsl #2]
 8003010:	61bb      	str	r3, [r7, #24]
 8003012:	69fb      	ldr	r3, [r7, #28]
 8003014:	f003 0307 	and.w	r3, r3, #7
 8003018:	009b      	lsls	r3, r3, #2
 800301a:	220f      	movs	r2, #15
 800301c:	fa02 f303 	lsl.w	r3, r2, r3
 8003020:	43db      	mvns	r3, r3
 8003022:	69ba      	ldr	r2, [r7, #24]
 8003024:	4013      	ands	r3, r2
 8003026:	61bb      	str	r3, [r7, #24]
 8003028:	683b      	ldr	r3, [r7, #0]
 800302a:	691a      	ldr	r2, [r3, #16]
 800302c:	69fb      	ldr	r3, [r7, #28]
 800302e:	f003 0307 	and.w	r3, r3, #7
 8003032:	009b      	lsls	r3, r3, #2
 8003034:	fa02 f303 	lsl.w	r3, r2, r3
 8003038:	69ba      	ldr	r2, [r7, #24]
 800303a:	4313      	orrs	r3, r2
 800303c:	61bb      	str	r3, [r7, #24]
 800303e:	69fb      	ldr	r3, [r7, #28]
 8003040:	08da      	lsrs	r2, r3, #3
 8003042:	687b      	ldr	r3, [r7, #4]
 8003044:	3208      	adds	r2, #8
 8003046:	69b9      	ldr	r1, [r7, #24]
 8003048:	f843 1022 	str.w	r1, [r3, r2, lsl #2]
 800304c:	687b      	ldr	r3, [r7, #4]
 800304e:	681b      	ldr	r3, [r3, #0]
 8003050:	61bb      	str	r3, [r7, #24]
 8003052:	69fb      	ldr	r3, [r7, #28]
 8003054:	005b      	lsls	r3, r3, #1
 8003056:	2203      	movs	r2, #3
 8003058:	fa02 f303 	lsl.w	r3, r2, r3
 800305c:	43db      	mvns	r3, r3
 800305e:	69ba      	ldr	r2, [r7, #24]
 8003060:	4013      	ands	r3, r2
 8003062:	61bb      	str	r3, [r7, #24]
 8003064:	683b      	ldr	r3, [r7, #0]
 8003066:	685b      	ldr	r3, [r3, #4]
 8003068:	f003 0203 	and.w	r2, r3, #3
 800306c:	69fb      	ldr	r3, [r7, #28]
 800306e:	005b      	lsls	r3, r3, #1
 8003070:	fa02 f303 	lsl.w	r3, r2, r3
 8003074:	69ba      	ldr	r2, [r7, #24]
 8003076:	4313      	orrs	r3, r2
 8003078:	61bb      	str	r3, [r7, #24]
 800307a:	687b      	ldr	r3, [r7, #4]
 800307c:	69ba      	ldr	r2, [r7, #24]
 800307e:	601a      	str	r2, [r3, #0]
 8003080:	683b      	ldr	r3, [r7, #0]
 8003082:	685b      	ldr	r3, [r3, #4]
 8003084:	f403 3340 	and.w	r3, r3, #196608	; 0x30000
 8003088:	2b00      	cmp	r3, #0
 800308a:	f000 80a2 	beq.w	80031d2 <HAL_GPIO_Init+0x2ca>
 800308e:	2300      	movs	r3, #0
 8003090:	60fb      	str	r3, [r7, #12]
 8003092:	4b57      	ldr	r3, [pc, #348]	; (80031f0 <HAL_GPIO_Init+0x2e8>)
 8003094:	6c5b      	ldr	r3, [r3, #68]	; 0x44
 8003096:	4a56      	ldr	r2, [pc, #344]	; (80031f0 <HAL_GPIO_Init+0x2e8>)
 8003098:	f443 4380 	orr.w	r3, r3, #16384	; 0x4000
 800309c:	6453      	str	r3, [r2, #68]	; 0x44
 800309e:	4b54      	ldr	r3, [pc, #336]	; (80031f0 <HAL_GPIO_Init+0x2e8>)
 80030a0:	6c5b      	ldr	r3, [r3, #68]	; 0x44
 80030a2:	f403 4380 	and.w	r3, r3, #16384	; 0x4000
 80030a6:	60fb      	str	r3, [r7, #12]
 80030a8:	68fb      	ldr	r3, [r7, #12]
 80030aa:	4a52      	ldr	r2, [pc, #328]	; (80031f4 <HAL_GPIO_Init+0x2ec>)
 80030ac:	69fb      	ldr	r3, [r7, #28]
 80030ae:	089b      	lsrs	r3, r3, #2
 80030b0:	3302      	adds	r3, #2
 80030b2:	f852 3023 	ldr.w	r3, [r2, r3, lsl #2]
 80030b6:	61bb      	str	r3, [r7, #24]
 80030b8:	69fb      	ldr	r3, [r7, #28]
 80030ba:	f003 0303 	and.w	r3, r3, #3
 80030be:	009b      	lsls	r3, r3, #2
 80030c0:	220f      	movs	r2, #15
 80030c2:	fa02 f303 	lsl.w	r3, r2, r3
 80030c6:	43db      	mvns	r3, r3
 80030c8:	69ba      	ldr	r2, [r7, #24]
 80030ca:	4013      	ands	r3, r2
 80030cc:	61bb      	str	r3, [r7, #24]
 80030ce:	687b      	ldr	r3, [r7, #4]
 80030d0:	4a49      	ldr	r2, [pc, #292]	; (80031f8 <HAL_GPIO_Init+0x2f0>)
 80030d2:	4293      	cmp	r3, r2
 80030d4:	d019      	beq.n	800310a <HAL_GPIO_Init+0x202>
 80030d6:	687b      	ldr	r3, [r7, #4]
 80030d8:	4a48      	ldr	r2, [pc, #288]	; (80031fc <HAL_GPIO_Init+0x2f4>)
 80030da:	4293      	cmp	r3, r2
 80030dc:	d013      	beq.n	8003106 <HAL_GPIO_Init+0x1fe>
 80030de:	687b      	ldr	r3, [r7, #4]
 80030e0:	4a47      	ldr	r2, [pc, #284]	; (8003200 <HAL_GPIO_Init+0x2f8>)
 80030e2:	4293      	cmp	r3, r2
 80030e4:	d00d      	beq.n	8003102 <HAL_GPIO_Init+0x1fa>
 80030e6:	687b      	ldr	r3, [r7, #4]
 80030e8:	4a46      	ldr	r2, [pc, #280]	; (8003204 <HAL_GPIO_Init+0x2fc>)
 80030ea:	4293      	cmp	r3, r2
 80030ec:	d007      	beq.n	80030fe <HAL_GPIO_Init+0x1f6>
 80030ee:	687b      	ldr	r3, [r7, #4]
 80030f0:	4a45      	ldr	r2, [pc, #276]	; (8003208 <HAL_GPIO_Init+0x300>)
 80030f2:	4293      	cmp	r3, r2
 80030f4:	d101      	bne.n	80030fa <HAL_GPIO_Init+0x1f2>
 80030f6:	2304      	movs	r3, #4
 80030f8:	e008      	b.n	800310c <HAL_GPIO_Init+0x204>
 80030fa:	2307      	movs	r3, #7
 80030fc:	e006      	b.n	800310c <HAL_GPIO_Init+0x204>
 80030fe:	2303      	movs	r3, #3
 8003100:	e004      	b.n	800310c <HAL_GPIO_Init+0x204>
 8003102:	2302      	movs	r3, #2
 8003104:	e002      	b.n	800310c <HAL_GPIO_Init+0x204>
 8003106:	2301      	movs	r3, #1
 8003108:	e000      	b.n	800310c <HAL_GPIO_Init+0x204>
 800310a:	2300      	movs	r3, #0
 800310c:	69fa      	ldr	r2, [r7, #28]
 800310e:	f002 0203 	and.w	r2, r2, #3
 8003112:	0092      	lsls	r2, r2, #2
 8003114:	4093      	lsls	r3, r2
 8003116:	69ba      	ldr	r2, [r7, #24]
 8003118:	4313      	orrs	r3, r2
 800311a:	61bb      	str	r3, [r7, #24]
 800311c:	4935      	ldr	r1, [pc, #212]	; (80031f4 <HAL_GPIO_Init+0x2ec>)
 800311e:	69fb      	ldr	r3, [r7, #28]
 8003120:	089b      	lsrs	r3, r3, #2
 8003122:	3302      	adds	r3, #2
 8003124:	69ba      	ldr	r2, [r7, #24]
 8003126:	f841 2023 	str.w	r2, [r1, r3, lsl #2]
 800312a:	4b38      	ldr	r3, [pc, #224]	; (800320c <HAL_GPIO_Init+0x304>)
 800312c:	689b      	ldr	r3, [r3, #8]
 800312e:	61bb      	str	r3, [r7, #24]
 8003130:	693b      	ldr	r3, [r7, #16]
 8003132:	43db      	mvns	r3, r3
 8003134:	69ba      	ldr	r2, [r7, #24]
 8003136:	4013      	ands	r3, r2
 8003138:	61bb      	str	r3, [r7, #24]
 800313a:	683b      	ldr	r3, [r7, #0]
 800313c:	685b      	ldr	r3, [r3, #4]
 800313e:	f403 1380 	and.w	r3, r3, #1048576	; 0x100000
 8003142:	2b00      	cmp	r3, #0
 8003144:	d003      	beq.n	800314e <HAL_GPIO_Init+0x246>
 8003146:	69ba      	ldr	r2, [r7, #24]
 8003148:	693b      	ldr	r3, [r7, #16]
 800314a:	4313      	orrs	r3, r2
 800314c:	61bb      	str	r3, [r7, #24]
 800314e:	4a2f      	ldr	r2, [pc, #188]	; (800320c <HAL_GPIO_Init+0x304>)
 8003150:	69bb      	ldr	r3, [r7, #24]
 8003152:	6093      	str	r3, [r2, #8]
 8003154:	4b2d      	ldr	r3, [pc, #180]	; (800320c <HAL_GPIO_Init+0x304>)
 8003156:	68db      	ldr	r3, [r3, #12]
 8003158:	61bb      	str	r3, [r7, #24]
 800315a:	693b      	ldr	r3, [r7, #16]
 800315c:	43db      	mvns	r3, r3
 800315e:	69ba      	ldr	r2, [r7, #24]
 8003160:	4013      	ands	r3, r2
 8003162:	61bb      	str	r3, [r7, #24]
 8003164:	683b      	ldr	r3, [r7, #0]
 8003166:	685b      	ldr	r3, [r3, #4]
 8003168:	f403 1300 	and.w	r3, r3, #2097152	; 0x200000
 800316c:	2b00      	cmp	r3, #0
 800316e:	d003      	beq.n	8003178 <HAL_GPIO_Init+0x270>
 8003170:	69ba      	ldr	r2, [r7, #24]
 8003172:	693b      	ldr	r3, [r7, #16]
 8003174:	4313      	orrs	r3, r2
 8003176:	61bb      	str	r3, [r7, #24]
 8003178:	4a24      	ldr	r2, [pc, #144]	; (800320c <HAL_GPIO_Init+0x304>)
 800317a:	69bb      	ldr	r3, [r7, #24]
 800317c:	60d3      	str	r3, [r2, #12]
 800317e:	4b23      	ldr	r3, [pc, #140]	; (800320c <HAL_GPIO_Init+0x304>)
 8003180:	685b      	ldr	r3, [r3, #4]
 8003182:	61bb      	str	r3, [r7, #24]
 8003184:	693b      	ldr	r3, [r7, #16]
 8003186:	43db      	mvns	r3, r3
 8003188:	69ba      	ldr	r2, [r7, #24]
 800318a:	4013      	ands	r3, r2
 800318c:	61bb      	str	r3, [r7, #24]
 800318e:	683b      	ldr	r3, [r7, #0]
 8003190:	685b      	ldr	r3, [r3, #4]
 8003192:	f403 3300 	and.w	r3, r3, #131072	; 0x20000
 8003196:	2b00      	cmp	r3, #0
 8003198:	d003      	beq.n	80031a2 <HAL_GPIO_Init+0x29a>
 800319a:	69ba      	ldr	r2, [r7, #24]
 800319c:	693b      	ldr	r3, [r7, #16]
 800319e:	4313      	orrs	r3, r2
 80031a0:	61bb      	str	r3, [r7, #24]
 80031a2:	4a1a      	ldr	r2, [pc, #104]	; (800320c <HAL_GPIO_Init+0x304>)
 80031a4:	69bb      	ldr	r3, [r7, #24]
 80031a6:	6053      	str	r3, [r2, #4]
 80031a8:	4b18      	ldr	r3, [pc, #96]	; (800320c <HAL_GPIO_Init+0x304>)
 80031aa:	681b      	ldr	r3, [r3, #0]
 80031ac:	61bb      	str	r3, [r7, #24]
 80031ae:	693b      	ldr	r3, [r7, #16]
 80031b0:	43db      	mvns	r3, r3
 80031b2:	69ba      	ldr	r2, [r7, #24]
 80031b4:	4013      	ands	r3, r2
 80031b6:	61bb      	str	r3, [r7, #24]
 80031b8:	683b      	ldr	r3, [r7, #0]
 80031ba:	685b      	ldr	r3, [r3, #4]
 80031bc:	f403 3380 	and.w	r3, r3, #65536	; 0x10000
 80031c0:	2b00      	cmp	r3, #0
 80031c2:	d003      	beq.n	80031cc <HAL_GPIO_Init+0x2c4>
 80031c4:	69ba      	ldr	r2, [r7, #24]
 80031c6:	693b      	ldr	r3, [r7, #16]
 80031c8:	4313      	orrs	r3, r2
 80031ca:	61bb      	str	r3, [r7, #24]
 80031cc:	4a0f      	ldr	r2, [pc, #60]	; (800320c <HAL_GPIO_Init+0x304>)
 80031ce:	69bb      	ldr	r3, [r7, #24]
 80031d0:	6013      	str	r3, [r2, #0]
 80031d2:	69fb      	ldr	r3, [r7, #28]
 80031d4:	3301      	adds	r3, #1
 80031d6:	61fb      	str	r3, [r7, #28]
 80031d8:	69fb      	ldr	r3, [r7, #28]
 80031da:	2b0f      	cmp	r3, #15
 80031dc:	f67f aea2 	bls.w	8002f24 <HAL_GPIO_Init+0x1c>
 80031e0:	bf00      	nop
 80031e2:	bf00      	nop
 80031e4:	3724      	adds	r7, #36	; 0x24
 80031e6:	46bd      	mov	sp, r7
 80031e8:	f85d 7b04 	ldr.w	r7, [sp], #4
 80031ec:	4770      	bx	lr
 80031ee:	bf00      	nop
 80031f0:	40023800 	.word	0x40023800
 80031f4:	40013800 	.word	0x40013800
 80031f8:	40020000 	.word	0x40020000
 80031fc:	40020400 	.word	0x40020400
 8003200:	40020800 	.word	0x40020800
 8003204:	40020c00 	.word	0x40020c00
 8003208:	40021000 	.word	0x40021000
 800320c:	40013c00 	.word	0x40013c00

08003210 <HAL_GPIO_WritePin>:
 8003210:	b480      	push	{r7}
 8003212:	b083      	sub	sp, #12
 8003214:	af00      	add	r7, sp, #0
 8003216:	6078      	str	r0, [r7, #4]
 8003218:	460b      	mov	r3, r1
 800321a:	807b      	strh	r3, [r7, #2]
 800321c:	4613      	mov	r3, r2
 800321e:	707b      	strb	r3, [r7, #1]
 8003220:	787b      	ldrb	r3, [r7, #1]
 8003222:	2b00      	cmp	r3, #0
 8003224:	d003      	beq.n	800322e <HAL_GPIO_WritePin+0x1e>
 8003226:	887a      	ldrh	r2, [r7, #2]
 8003228:	687b      	ldr	r3, [r7, #4]
 800322a:	619a      	str	r2, [r3, #24]
 800322c:	e003      	b.n	8003236 <HAL_GPIO_WritePin+0x26>
 800322e:	887b      	ldrh	r3, [r7, #2]
 8003230:	041a      	lsls	r2, r3, #16
 8003232:	687b      	ldr	r3, [r7, #4]
 8003234:	619a      	str	r2, [r3, #24]
 8003236:	bf00      	nop
 8003238:	370c      	adds	r7, #12
 800323a:	46bd      	mov	sp, r7
 800323c:	f85d 7b04 	ldr.w	r7, [sp], #4
 8003240:	4770      	bx	lr

08003242 <HAL_GPIO_TogglePin>:
 8003242:	b480      	push	{r7}
 8003244:	b085      	sub	sp, #20
 8003246:	af00      	add	r7, sp, #0
 8003248:	6078      	str	r0, [r7, #4]
 800324a:	460b      	mov	r3, r1
 800324c:	807b      	strh	r3, [r7, #2]
 800324e:	687b      	ldr	r3, [r7, #4]
 8003250:	695b      	ldr	r3, [r3, #20]
 8003252:	60fb      	str	r3, [r7, #12]
 8003254:	887a      	ldrh	r2, [r7, #2]
 8003256:	68fb      	ldr	r3, [r7, #12]
 8003258:	4013      	ands	r3, r2
 800325a:	041a      	lsls	r2, r3, #16
 800325c:	68fb      	ldr	r3, [r7, #12]
 800325e:	43d9      	mvns	r1, r3
 8003260:	887b      	ldrh	r3, [r7, #2]
 8003262:	400b      	ands	r3, r1
 8003264:	431a      	orrs	r2, r3
 8003266:	687b      	ldr	r3, [r7, #4]
 8003268:	619a      	str	r2, [r3, #24]
 800326a:	bf00      	nop
 800326c:	3714      	adds	r7, #20
 800326e:	46bd      	mov	sp, r7
 8003270:	f85d 7b04 	ldr.w	r7, [sp], #4
 8003274:	4770      	bx	lr
	...

08003278 <HAL_I2C_Init>:
 8003278:	b580      	push	{r7, lr}
 800327a:	b084      	sub	sp, #16
 800327c:	af00      	add	r7, sp, #0
 800327e:	6078      	str	r0, [r7, #4]
 8003280:	687b      	ldr	r3, [r7, #4]
 8003282:	2b00      	cmp	r3, #0
 8003284:	d101      	bne.n	800328a <HAL_I2C_Init+0x12>
 8003286:	2301      	movs	r3, #1
 8003288:	e12b      	b.n	80034e2 <HAL_I2C_Init+0x26a>
 800328a:	687b      	ldr	r3, [r7, #4]
 800328c:	f893 303d 	ldrb.w	r3, [r3, #61]	; 0x3d
 8003290:	b2db      	uxtb	r3, r3
 8003292:	2b00      	cmp	r3, #0
 8003294:	d106      	bne.n	80032a4 <HAL_I2C_Init+0x2c>
 8003296:	687b      	ldr	r3, [r7, #4]
 8003298:	2200      	movs	r2, #0
 800329a:	f883 203c 	strb.w	r2, [r3, #60]	; 0x3c
 800329e:	6878      	ldr	r0, [r7, #4]
 80032a0:	f7fe fb22 	bl	80018e8 <HAL_I2C_MspInit>
 80032a4:	687b      	ldr	r3, [r7, #4]
 80032a6:	2224      	movs	r2, #36	; 0x24
 80032a8:	f883 203d 	strb.w	r2, [r3, #61]	; 0x3d
 80032ac:	687b      	ldr	r3, [r7, #4]
 80032ae:	681b      	ldr	r3, [r3, #0]
 80032b0:	681a      	ldr	r2, [r3, #0]
 80032b2:	687b      	ldr	r3, [r7, #4]
 80032b4:	681b      	ldr	r3, [r3, #0]
 80032b6:	f022 0201 	bic.w	r2, r2, #1
 80032ba:	601a      	str	r2, [r3, #0]
 80032bc:	687b      	ldr	r3, [r7, #4]
 80032be:	681b      	ldr	r3, [r3, #0]
 80032c0:	681a      	ldr	r2, [r3, #0]
 80032c2:	687b      	ldr	r3, [r7, #4]
 80032c4:	681b      	ldr	r3, [r3, #0]
 80032c6:	f442 4200 	orr.w	r2, r2, #32768	; 0x8000
 80032ca:	601a      	str	r2, [r3, #0]
 80032cc:	687b      	ldr	r3, [r7, #4]
 80032ce:	681b      	ldr	r3, [r3, #0]
 80032d0:	681a      	ldr	r2, [r3, #0]
 80032d2:	687b      	ldr	r3, [r7, #4]
 80032d4:	681b      	ldr	r3, [r3, #0]
 80032d6:	f422 4200 	bic.w	r2, r2, #32768	; 0x8000
 80032da:	601a      	str	r2, [r3, #0]
 80032dc:	f002 fce0 	bl	8005ca0 <HAL_RCC_GetPCLK1Freq>
 80032e0:	60f8      	str	r0, [r7, #12]
 80032e2:	687b      	ldr	r3, [r7, #4]
 80032e4:	685b      	ldr	r3, [r3, #4]
 80032e6:	4a81      	ldr	r2, [pc, #516]	; (80034ec <HAL_I2C_Init+0x274>)
 80032e8:	4293      	cmp	r3, r2
 80032ea:	d807      	bhi.n	80032fc <HAL_I2C_Init+0x84>
 80032ec:	68fb      	ldr	r3, [r7, #12]
 80032ee:	4a80      	ldr	r2, [pc, #512]	; (80034f0 <HAL_I2C_Init+0x278>)
 80032f0:	4293      	cmp	r3, r2
 80032f2:	bf94      	ite	ls
 80032f4:	2301      	movls	r3, #1
 80032f6:	2300      	movhi	r3, #0
 80032f8:	b2db      	uxtb	r3, r3
 80032fa:	e006      	b.n	800330a <HAL_I2C_Init+0x92>
 80032fc:	68fb      	ldr	r3, [r7, #12]
 80032fe:	4a7d      	ldr	r2, [pc, #500]	; (80034f4 <HAL_I2C_Init+0x27c>)
 8003300:	4293      	cmp	r3, r2
 8003302:	bf94      	ite	ls
 8003304:	2301      	movls	r3, #1
 8003306:	2300      	movhi	r3, #0
 8003308:	b2db      	uxtb	r3, r3
 800330a:	2b00      	cmp	r3, #0
 800330c:	d001      	beq.n	8003312 <HAL_I2C_Init+0x9a>
 800330e:	2301      	movs	r3, #1
 8003310:	e0e7      	b.n	80034e2 <HAL_I2C_Init+0x26a>
 8003312:	68fb      	ldr	r3, [r7, #12]
 8003314:	4a78      	ldr	r2, [pc, #480]	; (80034f8 <HAL_I2C_Init+0x280>)
 8003316:	fba2 2303 	umull	r2, r3, r2, r3
 800331a:	0c9b      	lsrs	r3, r3, #18
 800331c:	60bb      	str	r3, [r7, #8]
 800331e:	687b      	ldr	r3, [r7, #4]
 8003320:	681b      	ldr	r3, [r3, #0]
 8003322:	685b      	ldr	r3, [r3, #4]
 8003324:	f023 013f 	bic.w	r1, r3, #63	; 0x3f
 8003328:	687b      	ldr	r3, [r7, #4]
 800332a:	681b      	ldr	r3, [r3, #0]
 800332c:	68ba      	ldr	r2, [r7, #8]
 800332e:	430a      	orrs	r2, r1
 8003330:	605a      	str	r2, [r3, #4]
 8003332:	687b      	ldr	r3, [r7, #4]
 8003334:	681b      	ldr	r3, [r3, #0]
 8003336:	6a1b      	ldr	r3, [r3, #32]
 8003338:	f023 013f 	bic.w	r1, r3, #63	; 0x3f
 800333c:	687b      	ldr	r3, [r7, #4]
 800333e:	685b      	ldr	r3, [r3, #4]
 8003340:	4a6a      	ldr	r2, [pc, #424]	; (80034ec <HAL_I2C_Init+0x274>)
 8003342:	4293      	cmp	r3, r2
 8003344:	d802      	bhi.n	800334c <HAL_I2C_Init+0xd4>
 8003346:	68bb      	ldr	r3, [r7, #8]
 8003348:	3301      	adds	r3, #1
 800334a:	e009      	b.n	8003360 <HAL_I2C_Init+0xe8>
 800334c:	68bb      	ldr	r3, [r7, #8]
 800334e:	f44f 7296 	mov.w	r2, #300	; 0x12c
 8003352:	fb02 f303 	mul.w	r3, r2, r3
 8003356:	4a69      	ldr	r2, [pc, #420]	; (80034fc <HAL_I2C_Init+0x284>)
 8003358:	fba2 2303 	umull	r2, r3, r2, r3
 800335c:	099b      	lsrs	r3, r3, #6
 800335e:	3301      	adds	r3, #1
 8003360:	687a      	ldr	r2, [r7, #4]
 8003362:	6812      	ldr	r2, [r2, #0]
 8003364:	430b      	orrs	r3, r1
 8003366:	6213      	str	r3, [r2, #32]
 8003368:	687b      	ldr	r3, [r7, #4]
 800336a:	681b      	ldr	r3, [r3, #0]
 800336c:	69db      	ldr	r3, [r3, #28]
 800336e:	f423 424f 	bic.w	r2, r3, #52992	; 0xcf00
 8003372:	f022 02ff 	bic.w	r2, r2, #255	; 0xff
 8003376:	687b      	ldr	r3, [r7, #4]
 8003378:	685b      	ldr	r3, [r3, #4]
 800337a:	495c      	ldr	r1, [pc, #368]	; (80034ec <HAL_I2C_Init+0x274>)
 800337c:	428b      	cmp	r3, r1
 800337e:	d819      	bhi.n	80033b4 <HAL_I2C_Init+0x13c>
 8003380:	68fb      	ldr	r3, [r7, #12]
 8003382:	1e59      	subs	r1, r3, #1
 8003384:	687b      	ldr	r3, [r7, #4]
 8003386:	685b      	ldr	r3, [r3, #4]
 8003388:	005b      	lsls	r3, r3, #1
 800338a:	fbb1 f3f3 	udiv	r3, r1, r3
 800338e:	1c59      	adds	r1, r3, #1
 8003390:	f640 73fc 	movw	r3, #4092	; 0xffc
 8003394:	400b      	ands	r3, r1
 8003396:	2b00      	cmp	r3, #0
 8003398:	d00a      	beq.n	80033b0 <HAL_I2C_Init+0x138>
 800339a:	68fb      	ldr	r3, [r7, #12]
 800339c:	1e59      	subs	r1, r3, #1
 800339e:	687b      	ldr	r3, [r7, #4]
 80033a0:	685b      	ldr	r3, [r3, #4]
 80033a2:	005b      	lsls	r3, r3, #1
 80033a4:	fbb1 f3f3 	udiv	r3, r1, r3
 80033a8:	3301      	adds	r3, #1
 80033aa:	f3c3 030b 	ubfx	r3, r3, #0, #12
 80033ae:	e051      	b.n	8003454 <HAL_I2C_Init+0x1dc>
 80033b0:	2304      	movs	r3, #4
 80033b2:	e04f      	b.n	8003454 <HAL_I2C_Init+0x1dc>
 80033b4:	687b      	ldr	r3, [r7, #4]
 80033b6:	689b      	ldr	r3, [r3, #8]
 80033b8:	2b00      	cmp	r3, #0
 80033ba:	d111      	bne.n	80033e0 <HAL_I2C_Init+0x168>
 80033bc:	68fb      	ldr	r3, [r7, #12]
 80033be:	1e58      	subs	r0, r3, #1
 80033c0:	687b      	ldr	r3, [r7, #4]
 80033c2:	6859      	ldr	r1, [r3, #4]
 80033c4:	460b      	mov	r3, r1
 80033c6:	005b      	lsls	r3, r3, #1
 80033c8:	440b      	add	r3, r1
 80033ca:	fbb0 f3f3 	udiv	r3, r0, r3
 80033ce:	3301      	adds	r3, #1
 80033d0:	f3c3 030b 	ubfx	r3, r3, #0, #12
 80033d4:	2b00      	cmp	r3, #0
 80033d6:	bf0c      	ite	eq
 80033d8:	2301      	moveq	r3, #1
 80033da:	2300      	movne	r3, #0
 80033dc:	b2db      	uxtb	r3, r3
 80033de:	e012      	b.n	8003406 <HAL_I2C_Init+0x18e>
 80033e0:	68fb      	ldr	r3, [r7, #12]
 80033e2:	1e58      	subs	r0, r3, #1
 80033e4:	687b      	ldr	r3, [r7, #4]
 80033e6:	6859      	ldr	r1, [r3, #4]
 80033e8:	460b      	mov	r3, r1
 80033ea:	009b      	lsls	r3, r3, #2
 80033ec:	440b      	add	r3, r1
 80033ee:	0099      	lsls	r1, r3, #2
 80033f0:	440b      	add	r3, r1
 80033f2:	fbb0 f3f3 	udiv	r3, r0, r3
 80033f6:	3301      	adds	r3, #1
 80033f8:	f3c3 030b 	ubfx	r3, r3, #0, #12
 80033fc:	2b00      	cmp	r3, #0
 80033fe:	bf0c      	ite	eq
 8003400:	2301      	moveq	r3, #1
 8003402:	2300      	movne	r3, #0
 8003404:	b2db      	uxtb	r3, r3
 8003406:	2b00      	cmp	r3, #0
 8003408:	d001      	beq.n	800340e <HAL_I2C_Init+0x196>
 800340a:	2301      	movs	r3, #1
 800340c:	e022      	b.n	8003454 <HAL_I2C_Init+0x1dc>
 800340e:	687b      	ldr	r3, [r7, #4]
 8003410:	689b      	ldr	r3, [r3, #8]
 8003412:	2b00      	cmp	r3, #0
 8003414:	d10e      	bne.n	8003434 <HAL_I2C_Init+0x1bc>
 8003416:	68fb      	ldr	r3, [r7, #12]
 8003418:	1e58      	subs	r0, r3, #1
 800341a:	687b      	ldr	r3, [r7, #4]
 800341c:	6859      	ldr	r1, [r3, #4]
 800341e:	460b      	mov	r3, r1
 8003420:	005b      	lsls	r3, r3, #1
 8003422:	440b      	add	r3, r1
 8003424:	fbb0 f3f3 	udiv	r3, r0, r3
 8003428:	3301      	adds	r3, #1
 800342a:	f3c3 030b 	ubfx	r3, r3, #0, #12
 800342e:	f443 4300 	orr.w	r3, r3, #32768	; 0x8000
 8003432:	e00f      	b.n	8003454 <HAL_I2C_Init+0x1dc>
 8003434:	68fb      	ldr	r3, [r7, #12]
 8003436:	1e58      	subs	r0, r3, #1
 8003438:	687b      	ldr	r3, [r7, #4]
 800343a:	6859      	ldr	r1, [r3, #4]
 800343c:	460b      	mov	r3, r1
 800343e:	009b      	lsls	r3, r3, #2
 8003440:	440b      	add	r3, r1
 8003442:	0099      	lsls	r1, r3, #2
 8003444:	440b      	add	r3, r1
 8003446:	fbb0 f3f3 	udiv	r3, r0, r3
 800344a:	3301      	adds	r3, #1
 800344c:	f3c3 030b 	ubfx	r3, r3, #0, #12
 8003450:	f443 4340 	orr.w	r3, r3, #49152	; 0xc000
 8003454:	6879      	ldr	r1, [r7, #4]
 8003456:	6809      	ldr	r1, [r1, #0]
 8003458:	4313      	orrs	r3, r2
 800345a:	61cb      	str	r3, [r1, #28]
 800345c:	687b      	ldr	r3, [r7, #4]
 800345e:	681b      	ldr	r3, [r3, #0]
 8003460:	681b      	ldr	r3, [r3, #0]
 8003462:	f023 01c0 	bic.w	r1, r3, #192	; 0xc0
 8003466:	687b      	ldr	r3, [r7, #4]
 8003468:	69da      	ldr	r2, [r3, #28]
 800346a:	687b      	ldr	r3, [r7, #4]
 800346c:	6a1b      	ldr	r3, [r3, #32]
 800346e:	431a      	orrs	r2, r3
 8003470:	687b      	ldr	r3, [r7, #4]
 8003472:	681b      	ldr	r3, [r3, #0]
 8003474:	430a      	orrs	r2, r1
 8003476:	601a      	str	r2, [r3, #0]
 8003478:	687b      	ldr	r3, [r7, #4]
 800347a:	681b      	ldr	r3, [r3, #0]
 800347c:	689b      	ldr	r3, [r3, #8]
 800347e:	f423 4303 	bic.w	r3, r3, #33536	; 0x8300
 8003482:	f023 03ff 	bic.w	r3, r3, #255	; 0xff
 8003486:	687a      	ldr	r2, [r7, #4]
 8003488:	6911      	ldr	r1, [r2, #16]
 800348a:	687a      	ldr	r2, [r7, #4]
 800348c:	68d2      	ldr	r2, [r2, #12]
 800348e:	4311      	orrs	r1, r2
 8003490:	687a      	ldr	r2, [r7, #4]
 8003492:	6812      	ldr	r2, [r2, #0]
 8003494:	430b      	orrs	r3, r1
 8003496:	6093      	str	r3, [r2, #8]
 8003498:	687b      	ldr	r3, [r7, #4]
 800349a:	681b      	ldr	r3, [r3, #0]
 800349c:	68db      	ldr	r3, [r3, #12]
 800349e:	f023 01ff 	bic.w	r1, r3, #255	; 0xff
 80034a2:	687b      	ldr	r3, [r7, #4]
 80034a4:	695a      	ldr	r2, [r3, #20]
 80034a6:	687b      	ldr	r3, [r7, #4]
 80034a8:	699b      	ldr	r3, [r3, #24]
 80034aa:	431a      	orrs	r2, r3
 80034ac:	687b      	ldr	r3, [r7, #4]
 80034ae:	681b      	ldr	r3, [r3, #0]
 80034b0:	430a      	orrs	r2, r1
 80034b2:	60da      	str	r2, [r3, #12]
 80034b4:	687b      	ldr	r3, [r7, #4]
 80034b6:	681b      	ldr	r3, [r3, #0]
 80034b8:	681a      	ldr	r2, [r3, #0]
 80034ba:	687b      	ldr	r3, [r7, #4]
 80034bc:	681b      	ldr	r3, [r3, #0]
 80034be:	f042 0201 	orr.w	r2, r2, #1
 80034c2:	601a      	str	r2, [r3, #0]
 80034c4:	687b      	ldr	r3, [r7, #4]
 80034c6:	2200      	movs	r2, #0
 80034c8:	641a      	str	r2, [r3, #64]	; 0x40
 80034ca:	687b      	ldr	r3, [r7, #4]
 80034cc:	2220      	movs	r2, #32
 80034ce:	f883 203d 	strb.w	r2, [r3, #61]	; 0x3d
 80034d2:	687b      	ldr	r3, [r7, #4]
 80034d4:	2200      	movs	r2, #0
 80034d6:	631a      	str	r2, [r3, #48]	; 0x30
 80034d8:	687b      	ldr	r3, [r7, #4]
 80034da:	2200      	movs	r2, #0
 80034dc:	f883 203e 	strb.w	r2, [r3, #62]	; 0x3e
 80034e0:	2300      	movs	r3, #0
 80034e2:	4618      	mov	r0, r3
 80034e4:	3710      	adds	r7, #16
 80034e6:	46bd      	mov	sp, r7
 80034e8:	bd80      	pop	{r7, pc}
 80034ea:	bf00      	nop
 80034ec:	000186a0 	.word	0x000186a0
 80034f0:	001e847f 	.word	0x001e847f
 80034f4:	003d08ff 	.word	0x003d08ff
 80034f8:	431bde83 	.word	0x431bde83
 80034fc:	10624dd3 	.word	0x10624dd3

08003500 <HAL_I2C_Mem_Read_DMA>:
 8003500:	b580      	push	{r7, lr}
 8003502:	b08c      	sub	sp, #48	; 0x30
 8003504:	af02      	add	r7, sp, #8
 8003506:	60f8      	str	r0, [r7, #12]
 8003508:	4608      	mov	r0, r1
 800350a:	4611      	mov	r1, r2
 800350c:	461a      	mov	r2, r3
 800350e:	4603      	mov	r3, r0
 8003510:	817b      	strh	r3, [r7, #10]
 8003512:	460b      	mov	r3, r1
 8003514:	813b      	strh	r3, [r7, #8]
 8003516:	4613      	mov	r3, r2
 8003518:	80fb      	strh	r3, [r7, #6]
 800351a:	f7fe fc19 	bl	8001d50 <HAL_GetTick>
 800351e:	6278      	str	r0, [r7, #36]	; 0x24
 8003520:	2300      	movs	r3, #0
 8003522:	61fb      	str	r3, [r7, #28]
 8003524:	68fb      	ldr	r3, [r7, #12]
 8003526:	f893 303d 	ldrb.w	r3, [r3, #61]	; 0x3d
 800352a:	b2db      	uxtb	r3, r3
 800352c:	2b20      	cmp	r3, #32
 800352e:	f040 8172 	bne.w	8003816 <HAL_I2C_Mem_Read_DMA+0x316>
 8003532:	4b93      	ldr	r3, [pc, #588]	; (8003780 <HAL_I2C_Mem_Read_DMA+0x280>)
 8003534:	681b      	ldr	r3, [r3, #0]
 8003536:	08db      	lsrs	r3, r3, #3
 8003538:	4a92      	ldr	r2, [pc, #584]	; (8003784 <HAL_I2C_Mem_Read_DMA+0x284>)
 800353a:	fba2 2303 	umull	r2, r3, r2, r3
 800353e:	0a1a      	lsrs	r2, r3, #8
 8003540:	4613      	mov	r3, r2
 8003542:	009b      	lsls	r3, r3, #2
 8003544:	4413      	add	r3, r2
 8003546:	009a      	lsls	r2, r3, #2
 8003548:	4413      	add	r3, r2
 800354a:	61fb      	str	r3, [r7, #28]
 800354c:	69fb      	ldr	r3, [r7, #28]
 800354e:	3b01      	subs	r3, #1
 8003550:	61fb      	str	r3, [r7, #28]
 8003552:	69fb      	ldr	r3, [r7, #28]
 8003554:	2b00      	cmp	r3, #0
 8003556:	d112      	bne.n	800357e <HAL_I2C_Mem_Read_DMA+0x7e>
 8003558:	68fb      	ldr	r3, [r7, #12]
 800355a:	2200      	movs	r2, #0
 800355c:	631a      	str	r2, [r3, #48]	; 0x30
 800355e:	68fb      	ldr	r3, [r7, #12]
 8003560:	2220      	movs	r2, #32
 8003562:	f883 203d 	strb.w	r2, [r3, #61]	; 0x3d
 8003566:	68fb      	ldr	r3, [r7, #12]
 8003568:	2200      	movs	r2, #0
 800356a:	f883 203e 	strb.w	r2, [r3, #62]	; 0x3e
 800356e:	68fb      	ldr	r3, [r7, #12]
 8003570:	6c1b      	ldr	r3, [r3, #64]	; 0x40
 8003572:	f043 0220 	orr.w	r2, r3, #32
 8003576:	68fb      	ldr	r3, [r7, #12]
 8003578:	641a      	str	r2, [r3, #64]	; 0x40
 800357a:	2302      	movs	r3, #2
 800357c:	e14c      	b.n	8003818 <HAL_I2C_Mem_Read_DMA+0x318>
 800357e:	68fb      	ldr	r3, [r7, #12]
 8003580:	681b      	ldr	r3, [r3, #0]
 8003582:	699b      	ldr	r3, [r3, #24]
 8003584:	f003 0302 	and.w	r3, r3, #2
 8003588:	2b02      	cmp	r3, #2
 800358a:	d0df      	beq.n	800354c <HAL_I2C_Mem_Read_DMA+0x4c>
 800358c:	68fb      	ldr	r3, [r7, #12]
 800358e:	f893 303c 	ldrb.w	r3, [r3, #60]	; 0x3c
 8003592:	2b01      	cmp	r3, #1
 8003594:	d101      	bne.n	800359a <HAL_I2C_Mem_Read_DMA+0x9a>
 8003596:	2302      	movs	r3, #2
 8003598:	e13e      	b.n	8003818 <HAL_I2C_Mem_Read_DMA+0x318>
 800359a:	68fb      	ldr	r3, [r7, #12]
 800359c:	2201      	movs	r2, #1
 800359e:	f883 203c 	strb.w	r2, [r3, #60]	; 0x3c
 80035a2:	68fb      	ldr	r3, [r7, #12]
 80035a4:	681b      	ldr	r3, [r3, #0]
 80035a6:	681b      	ldr	r3, [r3, #0]
 80035a8:	f003 0301 	and.w	r3, r3, #1
 80035ac:	2b01      	cmp	r3, #1
 80035ae:	d007      	beq.n	80035c0 <HAL_I2C_Mem_Read_DMA+0xc0>
 80035b0:	68fb      	ldr	r3, [r7, #12]
 80035b2:	681b      	ldr	r3, [r3, #0]
 80035b4:	681a      	ldr	r2, [r3, #0]
 80035b6:	68fb      	ldr	r3, [r7, #12]
 80035b8:	681b      	ldr	r3, [r3, #0]
 80035ba:	f042 0201 	orr.w	r2, r2, #1
 80035be:	601a      	str	r2, [r3, #0]
 80035c0:	68fb      	ldr	r3, [r7, #12]
 80035c2:	681b      	ldr	r3, [r3, #0]
 80035c4:	681a      	ldr	r2, [r3, #0]
 80035c6:	68fb      	ldr	r3, [r7, #12]
 80035c8:	681b      	ldr	r3, [r3, #0]
 80035ca:	f422 6200 	bic.w	r2, r2, #2048	; 0x800
 80035ce:	601a      	str	r2, [r3, #0]
 80035d0:	68fb      	ldr	r3, [r7, #12]
 80035d2:	2222      	movs	r2, #34	; 0x22
 80035d4:	f883 203d 	strb.w	r2, [r3, #61]	; 0x3d
 80035d8:	68fb      	ldr	r3, [r7, #12]
 80035da:	2240      	movs	r2, #64	; 0x40
 80035dc:	f883 203e 	strb.w	r2, [r3, #62]	; 0x3e
 80035e0:	68fb      	ldr	r3, [r7, #12]
 80035e2:	2200      	movs	r2, #0
 80035e4:	641a      	str	r2, [r3, #64]	; 0x40
 80035e6:	68fb      	ldr	r3, [r7, #12]
 80035e8:	6b3a      	ldr	r2, [r7, #48]	; 0x30
 80035ea:	625a      	str	r2, [r3, #36]	; 0x24
 80035ec:	68fb      	ldr	r3, [r7, #12]
 80035ee:	8eba      	ldrh	r2, [r7, #52]	; 0x34
 80035f0:	855a      	strh	r2, [r3, #42]	; 0x2a
 80035f2:	68fb      	ldr	r3, [r7, #12]
 80035f4:	8d5b      	ldrh	r3, [r3, #42]	; 0x2a
 80035f6:	b29a      	uxth	r2, r3
 80035f8:	68fb      	ldr	r3, [r7, #12]
 80035fa:	851a      	strh	r2, [r3, #40]	; 0x28
 80035fc:	68fb      	ldr	r3, [r7, #12]
 80035fe:	4a62      	ldr	r2, [pc, #392]	; (8003788 <HAL_I2C_Mem_Read_DMA+0x288>)
 8003600:	62da      	str	r2, [r3, #44]	; 0x2c
 8003602:	897a      	ldrh	r2, [r7, #10]
 8003604:	68fb      	ldr	r3, [r7, #12]
 8003606:	645a      	str	r2, [r3, #68]	; 0x44
 8003608:	893a      	ldrh	r2, [r7, #8]
 800360a:	68fb      	ldr	r3, [r7, #12]
 800360c:	649a      	str	r2, [r3, #72]	; 0x48
 800360e:	88fa      	ldrh	r2, [r7, #6]
 8003610:	68fb      	ldr	r3, [r7, #12]
 8003612:	64da      	str	r2, [r3, #76]	; 0x4c
 8003614:	68fb      	ldr	r3, [r7, #12]
 8003616:	2200      	movs	r2, #0
 8003618:	651a      	str	r2, [r3, #80]	; 0x50
 800361a:	68fb      	ldr	r3, [r7, #12]
 800361c:	8d1b      	ldrh	r3, [r3, #40]	; 0x28
 800361e:	2b00      	cmp	r3, #0
 8003620:	f000 80cc 	beq.w	80037bc <HAL_I2C_Mem_Read_DMA+0x2bc>
 8003624:	68fb      	ldr	r3, [r7, #12]
 8003626:	6b9b      	ldr	r3, [r3, #56]	; 0x38
 8003628:	2b00      	cmp	r3, #0
 800362a:	d02d      	beq.n	8003688 <HAL_I2C_Mem_Read_DMA+0x188>
 800362c:	68fb      	ldr	r3, [r7, #12]
 800362e:	6b9b      	ldr	r3, [r3, #56]	; 0x38
 8003630:	4a56      	ldr	r2, [pc, #344]	; (800378c <HAL_I2C_Mem_Read_DMA+0x28c>)
 8003632:	63da      	str	r2, [r3, #60]	; 0x3c
 8003634:	68fb      	ldr	r3, [r7, #12]
 8003636:	6b9b      	ldr	r3, [r3, #56]	; 0x38
 8003638:	4a55      	ldr	r2, [pc, #340]	; (8003790 <HAL_I2C_Mem_Read_DMA+0x290>)
 800363a:	64da      	str	r2, [r3, #76]	; 0x4c
 800363c:	68fb      	ldr	r3, [r7, #12]
 800363e:	6b9b      	ldr	r3, [r3, #56]	; 0x38
 8003640:	2200      	movs	r2, #0
 8003642:	641a      	str	r2, [r3, #64]	; 0x40
 8003644:	68fb      	ldr	r3, [r7, #12]
 8003646:	6b9b      	ldr	r3, [r3, #56]	; 0x38
 8003648:	2200      	movs	r2, #0
 800364a:	645a      	str	r2, [r3, #68]	; 0x44
 800364c:	68fb      	ldr	r3, [r7, #12]
 800364e:	6b9b      	ldr	r3, [r3, #56]	; 0x38
 8003650:	2200      	movs	r2, #0
 8003652:	649a      	str	r2, [r3, #72]	; 0x48
 8003654:	68fb      	ldr	r3, [r7, #12]
 8003656:	6b9b      	ldr	r3, [r3, #56]	; 0x38
 8003658:	2200      	movs	r2, #0
 800365a:	651a      	str	r2, [r3, #80]	; 0x50
 800365c:	68fb      	ldr	r3, [r7, #12]
 800365e:	6b98      	ldr	r0, [r3, #56]	; 0x38
 8003660:	68fb      	ldr	r3, [r7, #12]
 8003662:	681b      	ldr	r3, [r3, #0]
 8003664:	3310      	adds	r3, #16
 8003666:	4619      	mov	r1, r3
 8003668:	68fb      	ldr	r3, [r7, #12]
 800366a:	6a5b      	ldr	r3, [r3, #36]	; 0x24
 800366c:	461a      	mov	r2, r3
 800366e:	68fb      	ldr	r3, [r7, #12]
 8003670:	8d1b      	ldrh	r3, [r3, #40]	; 0x28
 8003672:	f7ff f959 	bl	8002928 <HAL_DMA_Start_IT>
 8003676:	4603      	mov	r3, r0
 8003678:	f887 3023 	strb.w	r3, [r7, #35]	; 0x23
 800367c:	f897 3023 	ldrb.w	r3, [r7, #35]	; 0x23
 8003680:	2b00      	cmp	r3, #0
 8003682:	f040 8087 	bne.w	8003794 <HAL_I2C_Mem_Read_DMA+0x294>
 8003686:	e013      	b.n	80036b0 <HAL_I2C_Mem_Read_DMA+0x1b0>
 8003688:	68fb      	ldr	r3, [r7, #12]
 800368a:	2220      	movs	r2, #32
 800368c:	f883 203d 	strb.w	r2, [r3, #61]	; 0x3d
 8003690:	68fb      	ldr	r3, [r7, #12]
 8003692:	2200      	movs	r2, #0
 8003694:	f883 203e 	strb.w	r2, [r3, #62]	; 0x3e
 8003698:	68fb      	ldr	r3, [r7, #12]
 800369a:	6c1b      	ldr	r3, [r3, #64]	; 0x40
 800369c:	f043 0280 	orr.w	r2, r3, #128	; 0x80
 80036a0:	68fb      	ldr	r3, [r7, #12]
 80036a2:	641a      	str	r2, [r3, #64]	; 0x40
 80036a4:	68fb      	ldr	r3, [r7, #12]
 80036a6:	2200      	movs	r2, #0
 80036a8:	f883 203c 	strb.w	r2, [r3, #60]	; 0x3c
 80036ac:	2301      	movs	r3, #1
 80036ae:	e0b3      	b.n	8003818 <HAL_I2C_Mem_Read_DMA+0x318>
 80036b0:	88f8      	ldrh	r0, [r7, #6]
 80036b2:	893a      	ldrh	r2, [r7, #8]
 80036b4:	8979      	ldrh	r1, [r7, #10]
 80036b6:	6a7b      	ldr	r3, [r7, #36]	; 0x24
 80036b8:	9301      	str	r3, [sp, #4]
 80036ba:	2323      	movs	r3, #35	; 0x23
 80036bc:	9300      	str	r3, [sp, #0]
 80036be:	4603      	mov	r3, r0
 80036c0:	68f8      	ldr	r0, [r7, #12]
 80036c2:	f000 f8d5 	bl	8003870 <I2C_RequestMemoryRead>
 80036c6:	4603      	mov	r3, r0
 80036c8:	2b00      	cmp	r3, #0
 80036ca:	d023      	beq.n	8003714 <HAL_I2C_Mem_Read_DMA+0x214>
 80036cc:	68fb      	ldr	r3, [r7, #12]
 80036ce:	6b9b      	ldr	r3, [r3, #56]	; 0x38
 80036d0:	4618      	mov	r0, r3
 80036d2:	f7ff f981 	bl	80029d8 <HAL_DMA_Abort_IT>
 80036d6:	4603      	mov	r3, r0
 80036d8:	f887 3023 	strb.w	r3, [r7, #35]	; 0x23
 80036dc:	68fb      	ldr	r3, [r7, #12]
 80036de:	6b9b      	ldr	r3, [r3, #56]	; 0x38
 80036e0:	2200      	movs	r2, #0
 80036e2:	63da      	str	r2, [r3, #60]	; 0x3c
 80036e4:	68fb      	ldr	r3, [r7, #12]
 80036e6:	681b      	ldr	r3, [r3, #0]
 80036e8:	681a      	ldr	r2, [r3, #0]
 80036ea:	68fb      	ldr	r3, [r7, #12]
 80036ec:	681b      	ldr	r3, [r3, #0]
 80036ee:	f422 6280 	bic.w	r2, r2, #1024	; 0x400
 80036f2:	601a      	str	r2, [r3, #0]
 80036f4:	68fb      	ldr	r3, [r7, #12]
 80036f6:	2200      	movs	r2, #0
 80036f8:	851a      	strh	r2, [r3, #40]	; 0x28
 80036fa:	68fb      	ldr	r3, [r7, #12]
 80036fc:	2200      	movs	r2, #0
 80036fe:	855a      	strh	r2, [r3, #42]	; 0x2a
 8003700:	68fb      	ldr	r3, [r7, #12]
 8003702:	681b      	ldr	r3, [r3, #0]
 8003704:	681a      	ldr	r2, [r3, #0]
 8003706:	68fb      	ldr	r3, [r7, #12]
 8003708:	681b      	ldr	r3, [r3, #0]
 800370a:	f022 0201 	bic.w	r2, r2, #1
 800370e:	601a      	str	r2, [r3, #0]
 8003710:	2301      	movs	r3, #1
 8003712:	e081      	b.n	8003818 <HAL_I2C_Mem_Read_DMA+0x318>
 8003714:	68fb      	ldr	r3, [r7, #12]
 8003716:	8d1b      	ldrh	r3, [r3, #40]	; 0x28
 8003718:	2b01      	cmp	r3, #1
 800371a:	d108      	bne.n	800372e <HAL_I2C_Mem_Read_DMA+0x22e>
 800371c:	68fb      	ldr	r3, [r7, #12]
 800371e:	681b      	ldr	r3, [r3, #0]
 8003720:	681a      	ldr	r2, [r3, #0]
 8003722:	68fb      	ldr	r3, [r7, #12]
 8003724:	681b      	ldr	r3, [r3, #0]
 8003726:	f422 6280 	bic.w	r2, r2, #1024	; 0x400
 800372a:	601a      	str	r2, [r3, #0]
 800372c:	e007      	b.n	800373e <HAL_I2C_Mem_Read_DMA+0x23e>
 800372e:	68fb      	ldr	r3, [r7, #12]
 8003730:	681b      	ldr	r3, [r3, #0]
 8003732:	685a      	ldr	r2, [r3, #4]
 8003734:	68fb      	ldr	r3, [r7, #12]
 8003736:	681b      	ldr	r3, [r3, #0]
 8003738:	f442 5280 	orr.w	r2, r2, #4096	; 0x1000
 800373c:	605a      	str	r2, [r3, #4]
 800373e:	2300      	movs	r3, #0
 8003740:	61bb      	str	r3, [r7, #24]
 8003742:	68fb      	ldr	r3, [r7, #12]
 8003744:	681b      	ldr	r3, [r3, #0]
 8003746:	695b      	ldr	r3, [r3, #20]
 8003748:	61bb      	str	r3, [r7, #24]
 800374a:	68fb      	ldr	r3, [r7, #12]
 800374c:	681b      	ldr	r3, [r3, #0]
 800374e:	699b      	ldr	r3, [r3, #24]
 8003750:	61bb      	str	r3, [r7, #24]
 8003752:	69bb      	ldr	r3, [r7, #24]
 8003754:	68fb      	ldr	r3, [r7, #12]
 8003756:	2200      	movs	r2, #0
 8003758:	f883 203c 	strb.w	r2, [r3, #60]	; 0x3c
 800375c:	68fb      	ldr	r3, [r7, #12]
 800375e:	681b      	ldr	r3, [r3, #0]
 8003760:	685a      	ldr	r2, [r3, #4]
 8003762:	68fb      	ldr	r3, [r7, #12]
 8003764:	681b      	ldr	r3, [r3, #0]
 8003766:	f442 7280 	orr.w	r2, r2, #256	; 0x100
 800376a:	605a      	str	r2, [r3, #4]
 800376c:	68fb      	ldr	r3, [r7, #12]
 800376e:	681b      	ldr	r3, [r3, #0]
 8003770:	685a      	ldr	r2, [r3, #4]
 8003772:	68fb      	ldr	r3, [r7, #12]
 8003774:	681b      	ldr	r3, [r3, #0]
 8003776:	f442 6200 	orr.w	r2, r2, #2048	; 0x800
 800377a:	605a      	str	r2, [r3, #4]
 800377c:	e049      	b.n	8003812 <HAL_I2C_Mem_Read_DMA+0x312>
 800377e:	bf00      	nop
 8003780:	20000000 	.word	0x20000000
 8003784:	14f8b589 	.word	0x14f8b589
 8003788:	ffff0000 	.word	0xffff0000
 800378c:	08003a41 	.word	0x08003a41
 8003790:	08003bff 	.word	0x08003bff
 8003794:	68fb      	ldr	r3, [r7, #12]
 8003796:	2220      	movs	r2, #32
 8003798:	f883 203d 	strb.w	r2, [r3, #61]	; 0x3d
 800379c:	68fb      	ldr	r3, [r7, #12]
 800379e:	2200      	movs	r2, #0
 80037a0:	f883 203e 	strb.w	r2, [r3, #62]	; 0x3e
 80037a4:	68fb      	ldr	r3, [r7, #12]
 80037a6:	6c1b      	ldr	r3, [r3, #64]	; 0x40
 80037a8:	f043 0210 	orr.w	r2, r3, #16
 80037ac:	68fb      	ldr	r3, [r7, #12]
 80037ae:	641a      	str	r2, [r3, #64]	; 0x40
 80037b0:	68fb      	ldr	r3, [r7, #12]
 80037b2:	2200      	movs	r2, #0
 80037b4:	f883 203c 	strb.w	r2, [r3, #60]	; 0x3c
 80037b8:	2301      	movs	r3, #1
 80037ba:	e02d      	b.n	8003818 <HAL_I2C_Mem_Read_DMA+0x318>
 80037bc:	88f8      	ldrh	r0, [r7, #6]
 80037be:	893a      	ldrh	r2, [r7, #8]
 80037c0:	8979      	ldrh	r1, [r7, #10]
 80037c2:	6a7b      	ldr	r3, [r7, #36]	; 0x24
 80037c4:	9301      	str	r3, [sp, #4]
 80037c6:	2323      	movs	r3, #35	; 0x23
 80037c8:	9300      	str	r3, [sp, #0]
 80037ca:	4603      	mov	r3, r0
 80037cc:	68f8      	ldr	r0, [r7, #12]
 80037ce:	f000 f84f 	bl	8003870 <I2C_RequestMemoryRead>
 80037d2:	4603      	mov	r3, r0
 80037d4:	2b00      	cmp	r3, #0
 80037d6:	d001      	beq.n	80037dc <HAL_I2C_Mem_Read_DMA+0x2dc>
 80037d8:	2301      	movs	r3, #1
 80037da:	e01d      	b.n	8003818 <HAL_I2C_Mem_Read_DMA+0x318>
 80037dc:	2300      	movs	r3, #0
 80037de:	617b      	str	r3, [r7, #20]
 80037e0:	68fb      	ldr	r3, [r7, #12]
 80037e2:	681b      	ldr	r3, [r3, #0]
 80037e4:	695b      	ldr	r3, [r3, #20]
 80037e6:	617b      	str	r3, [r7, #20]
 80037e8:	68fb      	ldr	r3, [r7, #12]
 80037ea:	681b      	ldr	r3, [r3, #0]
 80037ec:	699b      	ldr	r3, [r3, #24]
 80037ee:	617b      	str	r3, [r7, #20]
 80037f0:	697b      	ldr	r3, [r7, #20]
 80037f2:	68fb      	ldr	r3, [r7, #12]
 80037f4:	681b      	ldr	r3, [r3, #0]
 80037f6:	681a      	ldr	r2, [r3, #0]
 80037f8:	68fb      	ldr	r3, [r7, #12]
 80037fa:	681b      	ldr	r3, [r3, #0]
 80037fc:	f442 7200 	orr.w	r2, r2, #512	; 0x200
 8003800:	601a      	str	r2, [r3, #0]
 8003802:	68fb      	ldr	r3, [r7, #12]
 8003804:	2220      	movs	r2, #32
 8003806:	f883 203d 	strb.w	r2, [r3, #61]	; 0x3d
 800380a:	68fb      	ldr	r3, [r7, #12]
 800380c:	2200      	movs	r2, #0
 800380e:	f883 203c 	strb.w	r2, [r3, #60]	; 0x3c
 8003812:	2300      	movs	r3, #0
 8003814:	e000      	b.n	8003818 <HAL_I2C_Mem_Read_DMA+0x318>
 8003816:	2302      	movs	r3, #2
 8003818:	4618      	mov	r0, r3
 800381a:	3728      	adds	r7, #40	; 0x28
 800381c:	46bd      	mov	sp, r7
 800381e:	bd80      	pop	{r7, pc}

08003820 <HAL_I2C_MasterRxCpltCallback>:
 8003820:	b480      	push	{r7}
 8003822:	b083      	sub	sp, #12
 8003824:	af00      	add	r7, sp, #0
 8003826:	6078      	str	r0, [r7, #4]
 8003828:	bf00      	nop
 800382a:	370c      	adds	r7, #12
 800382c:	46bd      	mov	sp, r7
 800382e:	f85d 7b04 	ldr.w	r7, [sp], #4
 8003832:	4770      	bx	lr

08003834 <HAL_I2C_SlaveTxCpltCallback>:
 8003834:	b480      	push	{r7}
 8003836:	b083      	sub	sp, #12
 8003838:	af00      	add	r7, sp, #0
 800383a:	6078      	str	r0, [r7, #4]
 800383c:	bf00      	nop
 800383e:	370c      	adds	r7, #12
 8003840:	46bd      	mov	sp, r7
 8003842:	f85d 7b04 	ldr.w	r7, [sp], #4
 8003846:	4770      	bx	lr

08003848 <HAL_I2C_SlaveRxCpltCallback>:
 8003848:	b480      	push	{r7}
 800384a:	b083      	sub	sp, #12
 800384c:	af00      	add	r7, sp, #0
 800384e:	6078      	str	r0, [r7, #4]
 8003850:	bf00      	nop
 8003852:	370c      	adds	r7, #12
 8003854:	46bd      	mov	sp, r7
 8003856:	f85d 7b04 	ldr.w	r7, [sp], #4
 800385a:	4770      	bx	lr

0800385c <HAL_I2C_ErrorCallback>:
 800385c:	b480      	push	{r7}
 800385e:	b083      	sub	sp, #12
 8003860:	af00      	add	r7, sp, #0
 8003862:	6078      	str	r0, [r7, #4]
 8003864:	bf00      	nop
 8003866:	370c      	adds	r7, #12
 8003868:	46bd      	mov	sp, r7
 800386a:	f85d 7b04 	ldr.w	r7, [sp], #4
 800386e:	4770      	bx	lr

08003870 <I2C_RequestMemoryRead>:
 8003870:	b580      	push	{r7, lr}
 8003872:	b088      	sub	sp, #32
 8003874:	af02      	add	r7, sp, #8
 8003876:	60f8      	str	r0, [r7, #12]
 8003878:	4608      	mov	r0, r1
 800387a:	4611      	mov	r1, r2
 800387c:	461a      	mov	r2, r3
 800387e:	4603      	mov	r3, r0
 8003880:	817b      	strh	r3, [r7, #10]
 8003882:	460b      	mov	r3, r1
 8003884:	813b      	strh	r3, [r7, #8]
 8003886:	4613      	mov	r3, r2
 8003888:	80fb      	strh	r3, [r7, #6]
 800388a:	68fb      	ldr	r3, [r7, #12]
 800388c:	681b      	ldr	r3, [r3, #0]
 800388e:	681a      	ldr	r2, [r3, #0]
 8003890:	68fb      	ldr	r3, [r7, #12]
 8003892:	681b      	ldr	r3, [r3, #0]
 8003894:	f442 6280 	orr.w	r2, r2, #1024	; 0x400
 8003898:	601a      	str	r2, [r3, #0]
 800389a:	68fb      	ldr	r3, [r7, #12]
 800389c:	681b      	ldr	r3, [r3, #0]
 800389e:	681a      	ldr	r2, [r3, #0]
 80038a0:	68fb      	ldr	r3, [r7, #12]
 80038a2:	681b      	ldr	r3, [r3, #0]
 80038a4:	f442 7280 	orr.w	r2, r2, #256	; 0x100
 80038a8:	601a      	str	r2, [r3, #0]
 80038aa:	6a7b      	ldr	r3, [r7, #36]	; 0x24
 80038ac:	9300      	str	r3, [sp, #0]
 80038ae:	6a3b      	ldr	r3, [r7, #32]
 80038b0:	2200      	movs	r2, #0
 80038b2:	f04f 1101 	mov.w	r1, #65537	; 0x10001
 80038b6:	68f8      	ldr	r0, [r7, #12]
 80038b8:	f000 f9de 	bl	8003c78 <I2C_WaitOnFlagUntilTimeout>
 80038bc:	4603      	mov	r3, r0
 80038be:	2b00      	cmp	r3, #0
 80038c0:	d00d      	beq.n	80038de <I2C_RequestMemoryRead+0x6e>
 80038c2:	68fb      	ldr	r3, [r7, #12]
 80038c4:	681b      	ldr	r3, [r3, #0]
 80038c6:	681b      	ldr	r3, [r3, #0]
 80038c8:	f403 7380 	and.w	r3, r3, #256	; 0x100
 80038cc:	f5b3 7f80 	cmp.w	r3, #256	; 0x100
 80038d0:	d103      	bne.n	80038da <I2C_RequestMemoryRead+0x6a>
 80038d2:	68fb      	ldr	r3, [r7, #12]
 80038d4:	f44f 7200 	mov.w	r2, #512	; 0x200
 80038d8:	641a      	str	r2, [r3, #64]	; 0x40
 80038da:	2303      	movs	r3, #3
 80038dc:	e0aa      	b.n	8003a34 <I2C_RequestMemoryRead+0x1c4>
 80038de:	897b      	ldrh	r3, [r7, #10]
 80038e0:	b2db      	uxtb	r3, r3
 80038e2:	461a      	mov	r2, r3
 80038e4:	68fb      	ldr	r3, [r7, #12]
 80038e6:	681b      	ldr	r3, [r3, #0]
 80038e8:	f002 02fe 	and.w	r2, r2, #254	; 0xfe
 80038ec:	611a      	str	r2, [r3, #16]
 80038ee:	6a7b      	ldr	r3, [r7, #36]	; 0x24
 80038f0:	6a3a      	ldr	r2, [r7, #32]
 80038f2:	4952      	ldr	r1, [pc, #328]	; (8003a3c <I2C_RequestMemoryRead+0x1cc>)
 80038f4:	68f8      	ldr	r0, [r7, #12]
 80038f6:	f000 fa39 	bl	8003d6c <I2C_WaitOnMasterAddressFlagUntilTimeout>
 80038fa:	4603      	mov	r3, r0
 80038fc:	2b00      	cmp	r3, #0
 80038fe:	d001      	beq.n	8003904 <I2C_RequestMemoryRead+0x94>
 8003900:	2301      	movs	r3, #1
 8003902:	e097      	b.n	8003a34 <I2C_RequestMemoryRead+0x1c4>
 8003904:	2300      	movs	r3, #0
 8003906:	617b      	str	r3, [r7, #20]
 8003908:	68fb      	ldr	r3, [r7, #12]
 800390a:	681b      	ldr	r3, [r3, #0]
 800390c:	695b      	ldr	r3, [r3, #20]
 800390e:	617b      	str	r3, [r7, #20]
 8003910:	68fb      	ldr	r3, [r7, #12]
 8003912:	681b      	ldr	r3, [r3, #0]
 8003914:	699b      	ldr	r3, [r3, #24]
 8003916:	617b      	str	r3, [r7, #20]
 8003918:	697b      	ldr	r3, [r7, #20]
 800391a:	6a7a      	ldr	r2, [r7, #36]	; 0x24
 800391c:	6a39      	ldr	r1, [r7, #32]
 800391e:	68f8      	ldr	r0, [r7, #12]
 8003920:	f000 fac4 	bl	8003eac <I2C_WaitOnTXEFlagUntilTimeout>
 8003924:	4603      	mov	r3, r0
 8003926:	2b00      	cmp	r3, #0
 8003928:	d00d      	beq.n	8003946 <I2C_RequestMemoryRead+0xd6>
 800392a:	68fb      	ldr	r3, [r7, #12]
 800392c:	6c1b      	ldr	r3, [r3, #64]	; 0x40
 800392e:	2b04      	cmp	r3, #4
 8003930:	d107      	bne.n	8003942 <I2C_RequestMemoryRead+0xd2>
 8003932:	68fb      	ldr	r3, [r7, #12]
 8003934:	681b      	ldr	r3, [r3, #0]
 8003936:	681a      	ldr	r2, [r3, #0]
 8003938:	68fb      	ldr	r3, [r7, #12]
 800393a:	681b      	ldr	r3, [r3, #0]
 800393c:	f442 7200 	orr.w	r2, r2, #512	; 0x200
 8003940:	601a      	str	r2, [r3, #0]
 8003942:	2301      	movs	r3, #1
 8003944:	e076      	b.n	8003a34 <I2C_RequestMemoryRead+0x1c4>
 8003946:	88fb      	ldrh	r3, [r7, #6]
 8003948:	2b01      	cmp	r3, #1
 800394a:	d105      	bne.n	8003958 <I2C_RequestMemoryRead+0xe8>
 800394c:	893b      	ldrh	r3, [r7, #8]
 800394e:	b2da      	uxtb	r2, r3
 8003950:	68fb      	ldr	r3, [r7, #12]
 8003952:	681b      	ldr	r3, [r3, #0]
 8003954:	611a      	str	r2, [r3, #16]
 8003956:	e021      	b.n	800399c <I2C_RequestMemoryRead+0x12c>
 8003958:	893b      	ldrh	r3, [r7, #8]
 800395a:	0a1b      	lsrs	r3, r3, #8
 800395c:	b29b      	uxth	r3, r3
 800395e:	b2da      	uxtb	r2, r3
 8003960:	68fb      	ldr	r3, [r7, #12]
 8003962:	681b      	ldr	r3, [r3, #0]
 8003964:	611a      	str	r2, [r3, #16]
 8003966:	6a7a      	ldr	r2, [r7, #36]	; 0x24
 8003968:	6a39      	ldr	r1, [r7, #32]
 800396a:	68f8      	ldr	r0, [r7, #12]
 800396c:	f000 fa9e 	bl	8003eac <I2C_WaitOnTXEFlagUntilTimeout>
 8003970:	4603      	mov	r3, r0
 8003972:	2b00      	cmp	r3, #0
 8003974:	d00d      	beq.n	8003992 <I2C_RequestMemoryRead+0x122>
 8003976:	68fb      	ldr	r3, [r7, #12]
 8003978:	6c1b      	ldr	r3, [r3, #64]	; 0x40
 800397a:	2b04      	cmp	r3, #4
 800397c:	d107      	bne.n	800398e <I2C_RequestMemoryRead+0x11e>
 800397e:	68fb      	ldr	r3, [r7, #12]
 8003980:	681b      	ldr	r3, [r3, #0]
 8003982:	681a      	ldr	r2, [r3, #0]
 8003984:	68fb      	ldr	r3, [r7, #12]
 8003986:	681b      	ldr	r3, [r3, #0]
 8003988:	f442 7200 	orr.w	r2, r2, #512	; 0x200
 800398c:	601a      	str	r2, [r3, #0]
 800398e:	2301      	movs	r3, #1
 8003990:	e050      	b.n	8003a34 <I2C_RequestMemoryRead+0x1c4>
 8003992:	893b      	ldrh	r3, [r7, #8]
 8003994:	b2da      	uxtb	r2, r3
 8003996:	68fb      	ldr	r3, [r7, #12]
 8003998:	681b      	ldr	r3, [r3, #0]
 800399a:	611a      	str	r2, [r3, #16]
 800399c:	6a7a      	ldr	r2, [r7, #36]	; 0x24
 800399e:	6a39      	ldr	r1, [r7, #32]
 80039a0:	68f8      	ldr	r0, [r7, #12]
 80039a2:	f000 fa83 	bl	8003eac <I2C_WaitOnTXEFlagUntilTimeout>
 80039a6:	4603      	mov	r3, r0
 80039a8:	2b00      	cmp	r3, #0
 80039aa:	d00d      	beq.n	80039c8 <I2C_RequestMemoryRead+0x158>
 80039ac:	68fb      	ldr	r3, [r7, #12]
 80039ae:	6c1b      	ldr	r3, [r3, #64]	; 0x40
 80039b0:	2b04      	cmp	r3, #4
 80039b2:	d107      	bne.n	80039c4 <I2C_RequestMemoryRead+0x154>
 80039b4:	68fb      	ldr	r3, [r7, #12]
 80039b6:	681b      	ldr	r3, [r3, #0]
 80039b8:	681a      	ldr	r2, [r3, #0]
 80039ba:	68fb      	ldr	r3, [r7, #12]
 80039bc:	681b      	ldr	r3, [r3, #0]
 80039be:	f442 7200 	orr.w	r2, r2, #512	; 0x200
 80039c2:	601a      	str	r2, [r3, #0]
 80039c4:	2301      	movs	r3, #1
 80039c6:	e035      	b.n	8003a34 <I2C_RequestMemoryRead+0x1c4>
 80039c8:	68fb      	ldr	r3, [r7, #12]
 80039ca:	681b      	ldr	r3, [r3, #0]
 80039cc:	681a      	ldr	r2, [r3, #0]
 80039ce:	68fb      	ldr	r3, [r7, #12]
 80039d0:	681b      	ldr	r3, [r3, #0]
 80039d2:	f442 7280 	orr.w	r2, r2, #256	; 0x100
 80039d6:	601a      	str	r2, [r3, #0]
 80039d8:	6a7b      	ldr	r3, [r7, #36]	; 0x24
 80039da:	9300      	str	r3, [sp, #0]
 80039dc:	6a3b      	ldr	r3, [r7, #32]
 80039de:	2200      	movs	r2, #0
 80039e0:	f04f 1101 	mov.w	r1, #65537	; 0x10001
 80039e4:	68f8      	ldr	r0, [r7, #12]
 80039e6:	f000 f947 	bl	8003c78 <I2C_WaitOnFlagUntilTimeout>
 80039ea:	4603      	mov	r3, r0
 80039ec:	2b00      	cmp	r3, #0
 80039ee:	d00d      	beq.n	8003a0c <I2C_RequestMemoryRead+0x19c>
 80039f0:	68fb      	ldr	r3, [r7, #12]
 80039f2:	681b      	ldr	r3, [r3, #0]
 80039f4:	681b      	ldr	r3, [r3, #0]
 80039f6:	f403 7380 	and.w	r3, r3, #256	; 0x100
 80039fa:	f5b3 7f80 	cmp.w	r3, #256	; 0x100
 80039fe:	d103      	bne.n	8003a08 <I2C_RequestMemoryRead+0x198>
 8003a00:	68fb      	ldr	r3, [r7, #12]
 8003a02:	f44f 7200 	mov.w	r2, #512	; 0x200
 8003a06:	641a      	str	r2, [r3, #64]	; 0x40
 8003a08:	2303      	movs	r3, #3
 8003a0a:	e013      	b.n	8003a34 <I2C_RequestMemoryRead+0x1c4>
 8003a0c:	897b      	ldrh	r3, [r7, #10]
 8003a0e:	b2db      	uxtb	r3, r3
 8003a10:	f043 0301 	orr.w	r3, r3, #1
 8003a14:	b2da      	uxtb	r2, r3
 8003a16:	68fb      	ldr	r3, [r7, #12]
 8003a18:	681b      	ldr	r3, [r3, #0]
 8003a1a:	611a      	str	r2, [r3, #16]
 8003a1c:	6a7b      	ldr	r3, [r7, #36]	; 0x24
 8003a1e:	6a3a      	ldr	r2, [r7, #32]
 8003a20:	4906      	ldr	r1, [pc, #24]	; (8003a3c <I2C_RequestMemoryRead+0x1cc>)
 8003a22:	68f8      	ldr	r0, [r7, #12]
 8003a24:	f000 f9a2 	bl	8003d6c <I2C_WaitOnMasterAddressFlagUntilTimeout>
 8003a28:	4603      	mov	r3, r0
 8003a2a:	2b00      	cmp	r3, #0
 8003a2c:	d001      	beq.n	8003a32 <I2C_RequestMemoryRead+0x1c2>
 8003a2e:	2301      	movs	r3, #1
 8003a30:	e000      	b.n	8003a34 <I2C_RequestMemoryRead+0x1c4>
 8003a32:	2300      	movs	r3, #0
 8003a34:	4618      	mov	r0, r3
 8003a36:	3718      	adds	r7, #24
 8003a38:	46bd      	mov	sp, r7
 8003a3a:	bd80      	pop	{r7, pc}
 8003a3c:	00010002 	.word	0x00010002

08003a40 <I2C_DMAXferCplt>:
 8003a40:	b580      	push	{r7, lr}
 8003a42:	b086      	sub	sp, #24
 8003a44:	af00      	add	r7, sp, #0
 8003a46:	6078      	str	r0, [r7, #4]
 8003a48:	687b      	ldr	r3, [r7, #4]
 8003a4a:	6b9b      	ldr	r3, [r3, #56]	; 0x38
 8003a4c:	617b      	str	r3, [r7, #20]
 8003a4e:	697b      	ldr	r3, [r7, #20]
 8003a50:	f893 303d 	ldrb.w	r3, [r3, #61]	; 0x3d
 8003a54:	74fb      	strb	r3, [r7, #19]
 8003a56:	697b      	ldr	r3, [r7, #20]
 8003a58:	f893 303e 	ldrb.w	r3, [r3, #62]	; 0x3e
 8003a5c:	74bb      	strb	r3, [r7, #18]
 8003a5e:	697b      	ldr	r3, [r7, #20]
 8003a60:	6adb      	ldr	r3, [r3, #44]	; 0x2c
 8003a62:	60fb      	str	r3, [r7, #12]
 8003a64:	697b      	ldr	r3, [r7, #20]
 8003a66:	681b      	ldr	r3, [r3, #0]
 8003a68:	685a      	ldr	r2, [r3, #4]
 8003a6a:	697b      	ldr	r3, [r7, #20]
 8003a6c:	681b      	ldr	r3, [r3, #0]
 8003a6e:	f422 7240 	bic.w	r2, r2, #768	; 0x300
 8003a72:	605a      	str	r2, [r3, #4]
 8003a74:	697b      	ldr	r3, [r7, #20]
 8003a76:	6b5b      	ldr	r3, [r3, #52]	; 0x34
 8003a78:	2b00      	cmp	r3, #0
 8003a7a:	d003      	beq.n	8003a84 <I2C_DMAXferCplt+0x44>
 8003a7c:	697b      	ldr	r3, [r7, #20]
 8003a7e:	6b5b      	ldr	r3, [r3, #52]	; 0x34
 8003a80:	2200      	movs	r2, #0
 8003a82:	63da      	str	r2, [r3, #60]	; 0x3c
 8003a84:	697b      	ldr	r3, [r7, #20]
 8003a86:	6b9b      	ldr	r3, [r3, #56]	; 0x38
 8003a88:	2b00      	cmp	r3, #0
 8003a8a:	d003      	beq.n	8003a94 <I2C_DMAXferCplt+0x54>
 8003a8c:	697b      	ldr	r3, [r7, #20]
 8003a8e:	6b9b      	ldr	r3, [r3, #56]	; 0x38
 8003a90:	2200      	movs	r2, #0
 8003a92:	63da      	str	r2, [r3, #60]	; 0x3c
 8003a94:	7cfb      	ldrb	r3, [r7, #19]
 8003a96:	f003 0321 	and.w	r3, r3, #33	; 0x21
 8003a9a:	2b21      	cmp	r3, #33	; 0x21
 8003a9c:	d007      	beq.n	8003aae <I2C_DMAXferCplt+0x6e>
 8003a9e:	7cfb      	ldrb	r3, [r7, #19]
 8003aa0:	f003 0322 	and.w	r3, r3, #34	; 0x22
 8003aa4:	2b22      	cmp	r3, #34	; 0x22
 8003aa6:	d131      	bne.n	8003b0c <I2C_DMAXferCplt+0xcc>
 8003aa8:	7cbb      	ldrb	r3, [r7, #18]
 8003aaa:	2b20      	cmp	r3, #32
 8003aac:	d12e      	bne.n	8003b0c <I2C_DMAXferCplt+0xcc>
 8003aae:	697b      	ldr	r3, [r7, #20]
 8003ab0:	681b      	ldr	r3, [r3, #0]
 8003ab2:	685a      	ldr	r2, [r3, #4]
 8003ab4:	697b      	ldr	r3, [r7, #20]
 8003ab6:	681b      	ldr	r3, [r3, #0]
 8003ab8:	f422 6200 	bic.w	r2, r2, #2048	; 0x800
 8003abc:	605a      	str	r2, [r3, #4]
 8003abe:	697b      	ldr	r3, [r7, #20]
 8003ac0:	2200      	movs	r2, #0
 8003ac2:	855a      	strh	r2, [r3, #42]	; 0x2a
 8003ac4:	7cfb      	ldrb	r3, [r7, #19]
 8003ac6:	2b29      	cmp	r3, #41	; 0x29
 8003ac8:	d10a      	bne.n	8003ae0 <I2C_DMAXferCplt+0xa0>
 8003aca:	697b      	ldr	r3, [r7, #20]
 8003acc:	2221      	movs	r2, #33	; 0x21
 8003ace:	631a      	str	r2, [r3, #48]	; 0x30
 8003ad0:	697b      	ldr	r3, [r7, #20]
 8003ad2:	2228      	movs	r2, #40	; 0x28
 8003ad4:	f883 203d 	strb.w	r2, [r3, #61]	; 0x3d
 8003ad8:	6978      	ldr	r0, [r7, #20]
 8003ada:	f7ff feab 	bl	8003834 <HAL_I2C_SlaveTxCpltCallback>
 8003ade:	e00c      	b.n	8003afa <I2C_DMAXferCplt+0xba>
 8003ae0:	7cfb      	ldrb	r3, [r7, #19]
 8003ae2:	2b2a      	cmp	r3, #42	; 0x2a
 8003ae4:	d109      	bne.n	8003afa <I2C_DMAXferCplt+0xba>
 8003ae6:	697b      	ldr	r3, [r7, #20]
 8003ae8:	2222      	movs	r2, #34	; 0x22
 8003aea:	631a      	str	r2, [r3, #48]	; 0x30
 8003aec:	697b      	ldr	r3, [r7, #20]
 8003aee:	2228      	movs	r2, #40	; 0x28
 8003af0:	f883 203d 	strb.w	r2, [r3, #61]	; 0x3d
 8003af4:	6978      	ldr	r0, [r7, #20]
 8003af6:	f7ff fea7 	bl	8003848 <HAL_I2C_SlaveRxCpltCallback>
 8003afa:	697b      	ldr	r3, [r7, #20]
 8003afc:	681b      	ldr	r3, [r3, #0]
 8003afe:	685a      	ldr	r2, [r3, #4]
 8003b00:	697b      	ldr	r3, [r7, #20]
 8003b02:	681b      	ldr	r3, [r3, #0]
 8003b04:	f442 7240 	orr.w	r2, r2, #768	; 0x300
 8003b08:	605a      	str	r2, [r3, #4]
 8003b0a:	e074      	b.n	8003bf6 <I2C_DMAXferCplt+0x1b6>
 8003b0c:	697b      	ldr	r3, [r7, #20]
 8003b0e:	f893 303e 	ldrb.w	r3, [r3, #62]	; 0x3e
 8003b12:	b2db      	uxtb	r3, r3
 8003b14:	2b00      	cmp	r3, #0
 8003b16:	d06e      	beq.n	8003bf6 <I2C_DMAXferCplt+0x1b6>
 8003b18:	697b      	ldr	r3, [r7, #20]
 8003b1a:	8d5b      	ldrh	r3, [r3, #42]	; 0x2a
 8003b1c:	b29b      	uxth	r3, r3
 8003b1e:	2b01      	cmp	r3, #1
 8003b20:	d107      	bne.n	8003b32 <I2C_DMAXferCplt+0xf2>
 8003b22:	697b      	ldr	r3, [r7, #20]
 8003b24:	681b      	ldr	r3, [r3, #0]
 8003b26:	681a      	ldr	r2, [r3, #0]
 8003b28:	697b      	ldr	r3, [r7, #20]
 8003b2a:	681b      	ldr	r3, [r3, #0]
 8003b2c:	f422 6280 	bic.w	r2, r2, #1024	; 0x400
 8003b30:	601a      	str	r2, [r3, #0]
 8003b32:	697b      	ldr	r3, [r7, #20]
 8003b34:	681b      	ldr	r3, [r3, #0]
 8003b36:	685a      	ldr	r2, [r3, #4]
 8003b38:	697b      	ldr	r3, [r7, #20]
 8003b3a:	681b      	ldr	r3, [r3, #0]
 8003b3c:	f422 7240 	bic.w	r2, r2, #768	; 0x300
 8003b40:	605a      	str	r2, [r3, #4]
 8003b42:	68fb      	ldr	r3, [r7, #12]
 8003b44:	f513 3f80 	cmn.w	r3, #65536	; 0x10000
 8003b48:	d009      	beq.n	8003b5e <I2C_DMAXferCplt+0x11e>
 8003b4a:	68fb      	ldr	r3, [r7, #12]
 8003b4c:	2b08      	cmp	r3, #8
 8003b4e:	d006      	beq.n	8003b5e <I2C_DMAXferCplt+0x11e>
 8003b50:	68fb      	ldr	r3, [r7, #12]
 8003b52:	f1b3 4f2a 	cmp.w	r3, #2852126720	; 0xaa000000
 8003b56:	d002      	beq.n	8003b5e <I2C_DMAXferCplt+0x11e>
 8003b58:	68fb      	ldr	r3, [r7, #12]
 8003b5a:	2b20      	cmp	r3, #32
 8003b5c:	d107      	bne.n	8003b6e <I2C_DMAXferCplt+0x12e>
 8003b5e:	697b      	ldr	r3, [r7, #20]
 8003b60:	681b      	ldr	r3, [r3, #0]
 8003b62:	681a      	ldr	r2, [r3, #0]
 8003b64:	697b      	ldr	r3, [r7, #20]
 8003b66:	681b      	ldr	r3, [r3, #0]
 8003b68:	f442 7200 	orr.w	r2, r2, #512	; 0x200
 8003b6c:	601a      	str	r2, [r3, #0]
 8003b6e:	697b      	ldr	r3, [r7, #20]
 8003b70:	681b      	ldr	r3, [r3, #0]
 8003b72:	685a      	ldr	r2, [r3, #4]
 8003b74:	697b      	ldr	r3, [r7, #20]
 8003b76:	681b      	ldr	r3, [r3, #0]
 8003b78:	f422 5280 	bic.w	r2, r2, #4096	; 0x1000
 8003b7c:	605a      	str	r2, [r3, #4]
 8003b7e:	697b      	ldr	r3, [r7, #20]
 8003b80:	681b      	ldr	r3, [r3, #0]
 8003b82:	685a      	ldr	r2, [r3, #4]
 8003b84:	697b      	ldr	r3, [r7, #20]
 8003b86:	681b      	ldr	r3, [r3, #0]
 8003b88:	f422 6200 	bic.w	r2, r2, #2048	; 0x800
 8003b8c:	605a      	str	r2, [r3, #4]
 8003b8e:	697b      	ldr	r3, [r7, #20]
 8003b90:	2200      	movs	r2, #0
 8003b92:	855a      	strh	r2, [r3, #42]	; 0x2a
 8003b94:	697b      	ldr	r3, [r7, #20]
 8003b96:	6c1b      	ldr	r3, [r3, #64]	; 0x40
 8003b98:	2b00      	cmp	r3, #0
 8003b9a:	d003      	beq.n	8003ba4 <I2C_DMAXferCplt+0x164>
 8003b9c:	6978      	ldr	r0, [r7, #20]
 8003b9e:	f7ff fe5d 	bl	800385c <HAL_I2C_ErrorCallback>
 8003ba2:	e028      	b.n	8003bf6 <I2C_DMAXferCplt+0x1b6>
 8003ba4:	697b      	ldr	r3, [r7, #20]
 8003ba6:	2220      	movs	r2, #32
 8003ba8:	f883 203d 	strb.w	r2, [r3, #61]	; 0x3d
 8003bac:	697b      	ldr	r3, [r7, #20]
 8003bae:	f893 303e 	ldrb.w	r3, [r3, #62]	; 0x3e
 8003bb2:	b2db      	uxtb	r3, r3
 8003bb4:	2b40      	cmp	r3, #64	; 0x40
 8003bb6:	d10a      	bne.n	8003bce <I2C_DMAXferCplt+0x18e>
 8003bb8:	697b      	ldr	r3, [r7, #20]
 8003bba:	2200      	movs	r2, #0
 8003bbc:	f883 203e 	strb.w	r2, [r3, #62]	; 0x3e
 8003bc0:	697b      	ldr	r3, [r7, #20]
 8003bc2:	2200      	movs	r2, #0
 8003bc4:	631a      	str	r2, [r3, #48]	; 0x30
 8003bc6:	6978      	ldr	r0, [r7, #20]
 8003bc8:	f7fc fef0 	bl	80009ac <HAL_I2C_MemRxCpltCallback>
 8003bcc:	e013      	b.n	8003bf6 <I2C_DMAXferCplt+0x1b6>
 8003bce:	697b      	ldr	r3, [r7, #20]
 8003bd0:	2200      	movs	r2, #0
 8003bd2:	f883 203e 	strb.w	r2, [r3, #62]	; 0x3e
 8003bd6:	68fb      	ldr	r3, [r7, #12]
 8003bd8:	2b08      	cmp	r3, #8
 8003bda:	d002      	beq.n	8003be2 <I2C_DMAXferCplt+0x1a2>
 8003bdc:	68fb      	ldr	r3, [r7, #12]
 8003bde:	2b20      	cmp	r3, #32
 8003be0:	d103      	bne.n	8003bea <I2C_DMAXferCplt+0x1aa>
 8003be2:	697b      	ldr	r3, [r7, #20]
 8003be4:	2200      	movs	r2, #0
 8003be6:	631a      	str	r2, [r3, #48]	; 0x30
 8003be8:	e002      	b.n	8003bf0 <I2C_DMAXferCplt+0x1b0>
 8003bea:	697b      	ldr	r3, [r7, #20]
 8003bec:	2212      	movs	r2, #18
 8003bee:	631a      	str	r2, [r3, #48]	; 0x30
 8003bf0:	6978      	ldr	r0, [r7, #20]
 8003bf2:	f7ff fe15 	bl	8003820 <HAL_I2C_MasterRxCpltCallback>
 8003bf6:	bf00      	nop
 8003bf8:	3718      	adds	r7, #24
 8003bfa:	46bd      	mov	sp, r7
 8003bfc:	bd80      	pop	{r7, pc}

08003bfe <I2C_DMAError>:
 8003bfe:	b580      	push	{r7, lr}
 8003c00:	b084      	sub	sp, #16
 8003c02:	af00      	add	r7, sp, #0
 8003c04:	6078      	str	r0, [r7, #4]
 8003c06:	687b      	ldr	r3, [r7, #4]
 8003c08:	6b9b      	ldr	r3, [r3, #56]	; 0x38
 8003c0a:	60fb      	str	r3, [r7, #12]
 8003c0c:	68fb      	ldr	r3, [r7, #12]
 8003c0e:	6b5b      	ldr	r3, [r3, #52]	; 0x34
 8003c10:	2b00      	cmp	r3, #0
 8003c12:	d003      	beq.n	8003c1c <I2C_DMAError+0x1e>
 8003c14:	68fb      	ldr	r3, [r7, #12]
 8003c16:	6b5b      	ldr	r3, [r3, #52]	; 0x34
 8003c18:	2200      	movs	r2, #0
 8003c1a:	63da      	str	r2, [r3, #60]	; 0x3c
 8003c1c:	68fb      	ldr	r3, [r7, #12]
 8003c1e:	6b9b      	ldr	r3, [r3, #56]	; 0x38
 8003c20:	2b00      	cmp	r3, #0
 8003c22:	d003      	beq.n	8003c2c <I2C_DMAError+0x2e>
 8003c24:	68fb      	ldr	r3, [r7, #12]
 8003c26:	6b9b      	ldr	r3, [r3, #56]	; 0x38
 8003c28:	2200      	movs	r2, #0
 8003c2a:	63da      	str	r2, [r3, #60]	; 0x3c
 8003c2c:	6878      	ldr	r0, [r7, #4]
 8003c2e:	f7ff f87f 	bl	8002d30 <HAL_DMA_GetError>
 8003c32:	4603      	mov	r3, r0
 8003c34:	2b02      	cmp	r3, #2
 8003c36:	d01b      	beq.n	8003c70 <I2C_DMAError+0x72>
 8003c38:	68fb      	ldr	r3, [r7, #12]
 8003c3a:	681b      	ldr	r3, [r3, #0]
 8003c3c:	681a      	ldr	r2, [r3, #0]
 8003c3e:	68fb      	ldr	r3, [r7, #12]
 8003c40:	681b      	ldr	r3, [r3, #0]
 8003c42:	f422 6280 	bic.w	r2, r2, #1024	; 0x400
 8003c46:	601a      	str	r2, [r3, #0]
 8003c48:	68fb      	ldr	r3, [r7, #12]
 8003c4a:	2200      	movs	r2, #0
 8003c4c:	855a      	strh	r2, [r3, #42]	; 0x2a
 8003c4e:	68fb      	ldr	r3, [r7, #12]
 8003c50:	2220      	movs	r2, #32
 8003c52:	f883 203d 	strb.w	r2, [r3, #61]	; 0x3d
 8003c56:	68fb      	ldr	r3, [r7, #12]
 8003c58:	2200      	movs	r2, #0
 8003c5a:	f883 203e 	strb.w	r2, [r3, #62]	; 0x3e
 8003c5e:	68fb      	ldr	r3, [r7, #12]
 8003c60:	6c1b      	ldr	r3, [r3, #64]	; 0x40
 8003c62:	f043 0210 	orr.w	r2, r3, #16
 8003c66:	68fb      	ldr	r3, [r7, #12]
 8003c68:	641a      	str	r2, [r3, #64]	; 0x40
 8003c6a:	68f8      	ldr	r0, [r7, #12]
 8003c6c:	f7ff fdf6 	bl	800385c <HAL_I2C_ErrorCallback>
 8003c70:	bf00      	nop
 8003c72:	3710      	adds	r7, #16
 8003c74:	46bd      	mov	sp, r7
 8003c76:	bd80      	pop	{r7, pc}

08003c78 <I2C_WaitOnFlagUntilTimeout>:
 8003c78:	b580      	push	{r7, lr}
 8003c7a:	b084      	sub	sp, #16
 8003c7c:	af00      	add	r7, sp, #0
 8003c7e:	60f8      	str	r0, [r7, #12]
 8003c80:	60b9      	str	r1, [r7, #8]
 8003c82:	603b      	str	r3, [r7, #0]
 8003c84:	4613      	mov	r3, r2
 8003c86:	71fb      	strb	r3, [r7, #7]
 8003c88:	e048      	b.n	8003d1c <I2C_WaitOnFlagUntilTimeout+0xa4>
 8003c8a:	683b      	ldr	r3, [r7, #0]
 8003c8c:	f1b3 3fff 	cmp.w	r3, #4294967295
 8003c90:	d044      	beq.n	8003d1c <I2C_WaitOnFlagUntilTimeout+0xa4>
 8003c92:	f7fe f85d 	bl	8001d50 <HAL_GetTick>
 8003c96:	4602      	mov	r2, r0
 8003c98:	69bb      	ldr	r3, [r7, #24]
 8003c9a:	1ad3      	subs	r3, r2, r3
 8003c9c:	683a      	ldr	r2, [r7, #0]
 8003c9e:	429a      	cmp	r2, r3
 8003ca0:	d302      	bcc.n	8003ca8 <I2C_WaitOnFlagUntilTimeout+0x30>
 8003ca2:	683b      	ldr	r3, [r7, #0]
 8003ca4:	2b00      	cmp	r3, #0
 8003ca6:	d139      	bne.n	8003d1c <I2C_WaitOnFlagUntilTimeout+0xa4>
 8003ca8:	68bb      	ldr	r3, [r7, #8]
 8003caa:	0c1b      	lsrs	r3, r3, #16
 8003cac:	b2db      	uxtb	r3, r3
 8003cae:	2b01      	cmp	r3, #1
 8003cb0:	d10d      	bne.n	8003cce <I2C_WaitOnFlagUntilTimeout+0x56>
 8003cb2:	68fb      	ldr	r3, [r7, #12]
 8003cb4:	681b      	ldr	r3, [r3, #0]
 8003cb6:	695b      	ldr	r3, [r3, #20]
 8003cb8:	43da      	mvns	r2, r3
 8003cba:	68bb      	ldr	r3, [r7, #8]
 8003cbc:	4013      	ands	r3, r2
 8003cbe:	b29b      	uxth	r3, r3
 8003cc0:	2b00      	cmp	r3, #0
 8003cc2:	bf0c      	ite	eq
 8003cc4:	2301      	moveq	r3, #1
 8003cc6:	2300      	movne	r3, #0
 8003cc8:	b2db      	uxtb	r3, r3
 8003cca:	461a      	mov	r2, r3
 8003ccc:	e00c      	b.n	8003ce8 <I2C_WaitOnFlagUntilTimeout+0x70>
 8003cce:	68fb      	ldr	r3, [r7, #12]
 8003cd0:	681b      	ldr	r3, [r3, #0]
 8003cd2:	699b      	ldr	r3, [r3, #24]
 8003cd4:	43da      	mvns	r2, r3
 8003cd6:	68bb      	ldr	r3, [r7, #8]
 8003cd8:	4013      	ands	r3, r2
 8003cda:	b29b      	uxth	r3, r3
 8003cdc:	2b00      	cmp	r3, #0
 8003cde:	bf0c      	ite	eq
 8003ce0:	2301      	moveq	r3, #1
 8003ce2:	2300      	movne	r3, #0
 8003ce4:	b2db      	uxtb	r3, r3
 8003ce6:	461a      	mov	r2, r3
 8003ce8:	79fb      	ldrb	r3, [r7, #7]
 8003cea:	429a      	cmp	r2, r3
 8003cec:	d116      	bne.n	8003d1c <I2C_WaitOnFlagUntilTimeout+0xa4>
 8003cee:	68fb      	ldr	r3, [r7, #12]
 8003cf0:	2200      	movs	r2, #0
 8003cf2:	631a      	str	r2, [r3, #48]	; 0x30
 8003cf4:	68fb      	ldr	r3, [r7, #12]
 8003cf6:	2220      	movs	r2, #32
 8003cf8:	f883 203d 	strb.w	r2, [r3, #61]	; 0x3d
 8003cfc:	68fb      	ldr	r3, [r7, #12]
 8003cfe:	2200      	movs	r2, #0
 8003d00:	f883 203e 	strb.w	r2, [r3, #62]	; 0x3e
 8003d04:	68fb      	ldr	r3, [r7, #12]
 8003d06:	6c1b      	ldr	r3, [r3, #64]	; 0x40
 8003d08:	f043 0220 	orr.w	r2, r3, #32
 8003d0c:	68fb      	ldr	r3, [r7, #12]
 8003d0e:	641a      	str	r2, [r3, #64]	; 0x40
 8003d10:	68fb      	ldr	r3, [r7, #12]
 8003d12:	2200      	movs	r2, #0
 8003d14:	f883 203c 	strb.w	r2, [r3, #60]	; 0x3c
 8003d18:	2301      	movs	r3, #1
 8003d1a:	e023      	b.n	8003d64 <I2C_WaitOnFlagUntilTimeout+0xec>
 8003d1c:	68bb      	ldr	r3, [r7, #8]
 8003d1e:	0c1b      	lsrs	r3, r3, #16
 8003d20:	b2db      	uxtb	r3, r3
 8003d22:	2b01      	cmp	r3, #1
 8003d24:	d10d      	bne.n	8003d42 <I2C_WaitOnFlagUntilTimeout+0xca>
 8003d26:	68fb      	ldr	r3, [r7, #12]
 8003d28:	681b      	ldr	r3, [r3, #0]
 8003d2a:	695b      	ldr	r3, [r3, #20]
 8003d2c:	43da      	mvns	r2, r3
 8003d2e:	68bb      	ldr	r3, [r7, #8]
 8003d30:	4013      	ands	r3, r2
 8003d32:	b29b      	uxth	r3, r3
 8003d34:	2b00      	cmp	r3, #0
 8003d36:	bf0c      	ite	eq
 8003d38:	2301      	moveq	r3, #1
 8003d3a:	2300      	movne	r3, #0
 8003d3c:	b2db      	uxtb	r3, r3
 8003d3e:	461a      	mov	r2, r3
 8003d40:	e00c      	b.n	8003d5c <I2C_WaitOnFlagUntilTimeout+0xe4>
 8003d42:	68fb      	ldr	r3, [r7, #12]
 8003d44:	681b      	ldr	r3, [r3, #0]
 8003d46:	699b      	ldr	r3, [r3, #24]
 8003d48:	43da      	mvns	r2, r3
 8003d4a:	68bb      	ldr	r3, [r7, #8]
 8003d4c:	4013      	ands	r3, r2
 8003d4e:	b29b      	uxth	r3, r3
 8003d50:	2b00      	cmp	r3, #0
 8003d52:	bf0c      	ite	eq
 8003d54:	2301      	moveq	r3, #1
 8003d56:	2300      	movne	r3, #0
 8003d58:	b2db      	uxtb	r3, r3
 8003d5a:	461a      	mov	r2, r3
 8003d5c:	79fb      	ldrb	r3, [r7, #7]
 8003d5e:	429a      	cmp	r2, r3
 8003d60:	d093      	beq.n	8003c8a <I2C_WaitOnFlagUntilTimeout+0x12>
 8003d62:	2300      	movs	r3, #0
 8003d64:	4618      	mov	r0, r3
 8003d66:	3710      	adds	r7, #16
 8003d68:	46bd      	mov	sp, r7
 8003d6a:	bd80      	pop	{r7, pc}

08003d6c <I2C_WaitOnMasterAddressFlagUntilTimeout>:
 8003d6c:	b580      	push	{r7, lr}
 8003d6e:	b084      	sub	sp, #16
 8003d70:	af00      	add	r7, sp, #0
 8003d72:	60f8      	str	r0, [r7, #12]
 8003d74:	60b9      	str	r1, [r7, #8]
 8003d76:	607a      	str	r2, [r7, #4]
 8003d78:	603b      	str	r3, [r7, #0]
 8003d7a:	e071      	b.n	8003e60 <I2C_WaitOnMasterAddressFlagUntilTimeout+0xf4>
 8003d7c:	68fb      	ldr	r3, [r7, #12]
 8003d7e:	681b      	ldr	r3, [r3, #0]
 8003d80:	695b      	ldr	r3, [r3, #20]
 8003d82:	f403 6380 	and.w	r3, r3, #1024	; 0x400
 8003d86:	f5b3 6f80 	cmp.w	r3, #1024	; 0x400
 8003d8a:	d123      	bne.n	8003dd4 <I2C_WaitOnMasterAddressFlagUntilTimeout+0x68>
 8003d8c:	68fb      	ldr	r3, [r7, #12]
 8003d8e:	681b      	ldr	r3, [r3, #0]
 8003d90:	681a      	ldr	r2, [r3, #0]
 8003d92:	68fb      	ldr	r3, [r7, #12]
 8003d94:	681b      	ldr	r3, [r3, #0]
 8003d96:	f442 7200 	orr.w	r2, r2, #512	; 0x200
 8003d9a:	601a      	str	r2, [r3, #0]
 8003d9c:	68fb      	ldr	r3, [r7, #12]
 8003d9e:	681b      	ldr	r3, [r3, #0]
 8003da0:	f46f 6280 	mvn.w	r2, #1024	; 0x400
 8003da4:	615a      	str	r2, [r3, #20]
 8003da6:	68fb      	ldr	r3, [r7, #12]
 8003da8:	2200      	movs	r2, #0
 8003daa:	631a      	str	r2, [r3, #48]	; 0x30
 8003dac:	68fb      	ldr	r3, [r7, #12]
 8003dae:	2220      	movs	r2, #32
 8003db0:	f883 203d 	strb.w	r2, [r3, #61]	; 0x3d
 8003db4:	68fb      	ldr	r3, [r7, #12]
 8003db6:	2200      	movs	r2, #0
 8003db8:	f883 203e 	strb.w	r2, [r3, #62]	; 0x3e
 8003dbc:	68fb      	ldr	r3, [r7, #12]
 8003dbe:	6c1b      	ldr	r3, [r3, #64]	; 0x40
 8003dc0:	f043 0204 	orr.w	r2, r3, #4
 8003dc4:	68fb      	ldr	r3, [r7, #12]
 8003dc6:	641a      	str	r2, [r3, #64]	; 0x40
 8003dc8:	68fb      	ldr	r3, [r7, #12]
 8003dca:	2200      	movs	r2, #0
 8003dcc:	f883 203c 	strb.w	r2, [r3, #60]	; 0x3c
 8003dd0:	2301      	movs	r3, #1
 8003dd2:	e067      	b.n	8003ea4 <I2C_WaitOnMasterAddressFlagUntilTimeout+0x138>
 8003dd4:	687b      	ldr	r3, [r7, #4]
 8003dd6:	f1b3 3fff 	cmp.w	r3, #4294967295
 8003dda:	d041      	beq.n	8003e60 <I2C_WaitOnMasterAddressFlagUntilTimeout+0xf4>
 8003ddc:	f7fd ffb8 	bl	8001d50 <HAL_GetTick>
 8003de0:	4602      	mov	r2, r0
 8003de2:	683b      	ldr	r3, [r7, #0]
 8003de4:	1ad3      	subs	r3, r2, r3
 8003de6:	687a      	ldr	r2, [r7, #4]
 8003de8:	429a      	cmp	r2, r3
 8003dea:	d302      	bcc.n	8003df2 <I2C_WaitOnMasterAddressFlagUntilTimeout+0x86>
 8003dec:	687b      	ldr	r3, [r7, #4]
 8003dee:	2b00      	cmp	r3, #0
 8003df0:	d136      	bne.n	8003e60 <I2C_WaitOnMasterAddressFlagUntilTimeout+0xf4>
 8003df2:	68bb      	ldr	r3, [r7, #8]
 8003df4:	0c1b      	lsrs	r3, r3, #16
 8003df6:	b2db      	uxtb	r3, r3
 8003df8:	2b01      	cmp	r3, #1
 8003dfa:	d10c      	bne.n	8003e16 <I2C_WaitOnMasterAddressFlagUntilTimeout+0xaa>
 8003dfc:	68fb      	ldr	r3, [r7, #12]
 8003dfe:	681b      	ldr	r3, [r3, #0]
 8003e00:	695b      	ldr	r3, [r3, #20]
 8003e02:	43da      	mvns	r2, r3
 8003e04:	68bb      	ldr	r3, [r7, #8]
 8003e06:	4013      	ands	r3, r2
 8003e08:	b29b      	uxth	r3, r3
 8003e0a:	2b00      	cmp	r3, #0
 8003e0c:	bf14      	ite	ne
 8003e0e:	2301      	movne	r3, #1
 8003e10:	2300      	moveq	r3, #0
 8003e12:	b2db      	uxtb	r3, r3
 8003e14:	e00b      	b.n	8003e2e <I2C_WaitOnMasterAddressFlagUntilTimeout+0xc2>
 8003e16:	68fb      	ldr	r3, [r7, #12]
 8003e18:	681b      	ldr	r3, [r3, #0]
 8003e1a:	699b      	ldr	r3, [r3, #24]
 8003e1c:	43da      	mvns	r2, r3
 8003e1e:	68bb      	ldr	r3, [r7, #8]
 8003e20:	4013      	ands	r3, r2
 8003e22:	b29b      	uxth	r3, r3
 8003e24:	2b00      	cmp	r3, #0
 8003e26:	bf14      	ite	ne
 8003e28:	2301      	movne	r3, #1
 8003e2a:	2300      	moveq	r3, #0
 8003e2c:	b2db      	uxtb	r3, r3
 8003e2e:	2b00      	cmp	r3, #0
 8003e30:	d016      	beq.n	8003e60 <I2C_WaitOnMasterAddressFlagUntilTimeout+0xf4>
 8003e32:	68fb      	ldr	r3, [r7, #12]
 8003e34:	2200      	movs	r2, #0
 8003e36:	631a      	str	r2, [r3, #48]	; 0x30
 8003e38:	68fb      	ldr	r3, [r7, #12]
 8003e3a:	2220      	movs	r2, #32
 8003e3c:	f883 203d 	strb.w	r2, [r3, #61]	; 0x3d
 8003e40:	68fb      	ldr	r3, [r7, #12]
 8003e42:	2200      	movs	r2, #0
 8003e44:	f883 203e 	strb.w	r2, [r3, #62]	; 0x3e
 8003e48:	68fb      	ldr	r3, [r7, #12]
 8003e4a:	6c1b      	ldr	r3, [r3, #64]	; 0x40
 8003e4c:	f043 0220 	orr.w	r2, r3, #32
 8003e50:	68fb      	ldr	r3, [r7, #12]
 8003e52:	641a      	str	r2, [r3, #64]	; 0x40
 8003e54:	68fb      	ldr	r3, [r7, #12]
 8003e56:	2200      	movs	r2, #0
 8003e58:	f883 203c 	strb.w	r2, [r3, #60]	; 0x3c
 8003e5c:	2301      	movs	r3, #1
 8003e5e:	e021      	b.n	8003ea4 <I2C_WaitOnMasterAddressFlagUntilTimeout+0x138>
 8003e60:	68bb      	ldr	r3, [r7, #8]
 8003e62:	0c1b      	lsrs	r3, r3, #16
 8003e64:	b2db      	uxtb	r3, r3
 8003e66:	2b01      	cmp	r3, #1
 8003e68:	d10c      	bne.n	8003e84 <I2C_WaitOnMasterAddressFlagUntilTimeout+0x118>
 8003e6a:	68fb      	ldr	r3, [r7, #12]
 8003e6c:	681b      	ldr	r3, [r3, #0]
 8003e6e:	695b      	ldr	r3, [r3, #20]
 8003e70:	43da      	mvns	r2, r3
 8003e72:	68bb      	ldr	r3, [r7, #8]
 8003e74:	4013      	ands	r3, r2
 8003e76:	b29b      	uxth	r3, r3
 8003e78:	2b00      	cmp	r3, #0
 8003e7a:	bf14      	ite	ne
 8003e7c:	2301      	movne	r3, #1
 8003e7e:	2300      	moveq	r3, #0
 8003e80:	b2db      	uxtb	r3, r3
 8003e82:	e00b      	b.n	8003e9c <I2C_WaitOnMasterAddressFlagUntilTimeout+0x130>
 8003e84:	68fb      	ldr	r3, [r7, #12]
 8003e86:	681b      	ldr	r3, [r3, #0]
 8003e88:	699b      	ldr	r3, [r3, #24]
 8003e8a:	43da      	mvns	r2, r3
 8003e8c:	68bb      	ldr	r3, [r7, #8]
 8003e8e:	4013      	ands	r3, r2
 8003e90:	b29b      	uxth	r3, r3
 8003e92:	2b00      	cmp	r3, #0
 8003e94:	bf14      	ite	ne
 8003e96:	2301      	movne	r3, #1
 8003e98:	2300      	moveq	r3, #0
 8003e9a:	b2db      	uxtb	r3, r3
 8003e9c:	2b00      	cmp	r3, #0
 8003e9e:	f47f af6d 	bne.w	8003d7c <I2C_WaitOnMasterAddressFlagUntilTimeout+0x10>
 8003ea2:	2300      	movs	r3, #0
 8003ea4:	4618      	mov	r0, r3
 8003ea6:	3710      	adds	r7, #16
 8003ea8:	46bd      	mov	sp, r7
 8003eaa:	bd80      	pop	{r7, pc}

08003eac <I2C_WaitOnTXEFlagUntilTimeout>:
 8003eac:	b580      	push	{r7, lr}
 8003eae:	b084      	sub	sp, #16
 8003eb0:	af00      	add	r7, sp, #0
 8003eb2:	60f8      	str	r0, [r7, #12]
 8003eb4:	60b9      	str	r1, [r7, #8]
 8003eb6:	607a      	str	r2, [r7, #4]
 8003eb8:	e034      	b.n	8003f24 <I2C_WaitOnTXEFlagUntilTimeout+0x78>
 8003eba:	68f8      	ldr	r0, [r7, #12]
 8003ebc:	f000 f83e 	bl	8003f3c <I2C_IsAcknowledgeFailed>
 8003ec0:	4603      	mov	r3, r0
 8003ec2:	2b00      	cmp	r3, #0
 8003ec4:	d001      	beq.n	8003eca <I2C_WaitOnTXEFlagUntilTimeout+0x1e>
 8003ec6:	2301      	movs	r3, #1
 8003ec8:	e034      	b.n	8003f34 <I2C_WaitOnTXEFlagUntilTimeout+0x88>
 8003eca:	68bb      	ldr	r3, [r7, #8]
 8003ecc:	f1b3 3fff 	cmp.w	r3, #4294967295
 8003ed0:	d028      	beq.n	8003f24 <I2C_WaitOnTXEFlagUntilTimeout+0x78>
 8003ed2:	f7fd ff3d 	bl	8001d50 <HAL_GetTick>
 8003ed6:	4602      	mov	r2, r0
 8003ed8:	687b      	ldr	r3, [r7, #4]
 8003eda:	1ad3      	subs	r3, r2, r3
 8003edc:	68ba      	ldr	r2, [r7, #8]
 8003ede:	429a      	cmp	r2, r3
 8003ee0:	d302      	bcc.n	8003ee8 <I2C_WaitOnTXEFlagUntilTimeout+0x3c>
 8003ee2:	68bb      	ldr	r3, [r7, #8]
 8003ee4:	2b00      	cmp	r3, #0
 8003ee6:	d11d      	bne.n	8003f24 <I2C_WaitOnTXEFlagUntilTimeout+0x78>
 8003ee8:	68fb      	ldr	r3, [r7, #12]
 8003eea:	681b      	ldr	r3, [r3, #0]
 8003eec:	695b      	ldr	r3, [r3, #20]
 8003eee:	f003 0380 	and.w	r3, r3, #128	; 0x80
 8003ef2:	2b80      	cmp	r3, #128	; 0x80
 8003ef4:	d016      	beq.n	8003f24 <I2C_WaitOnTXEFlagUntilTimeout+0x78>
 8003ef6:	68fb      	ldr	r3, [r7, #12]
 8003ef8:	2200      	movs	r2, #0
 8003efa:	631a      	str	r2, [r3, #48]	; 0x30
 8003efc:	68fb      	ldr	r3, [r7, #12]
 8003efe:	2220      	movs	r2, #32
 8003f00:	f883 203d 	strb.w	r2, [r3, #61]	; 0x3d
 8003f04:	68fb      	ldr	r3, [r7, #12]
 8003f06:	2200      	movs	r2, #0
 8003f08:	f883 203e 	strb.w	r2, [r3, #62]	; 0x3e
 8003f0c:	68fb      	ldr	r3, [r7, #12]
 8003f0e:	6c1b      	ldr	r3, [r3, #64]	; 0x40
 8003f10:	f043 0220 	orr.w	r2, r3, #32
 8003f14:	68fb      	ldr	r3, [r7, #12]
 8003f16:	641a      	str	r2, [r3, #64]	; 0x40
 8003f18:	68fb      	ldr	r3, [r7, #12]
 8003f1a:	2200      	movs	r2, #0
 8003f1c:	f883 203c 	strb.w	r2, [r3, #60]	; 0x3c
 8003f20:	2301      	movs	r3, #1
 8003f22:	e007      	b.n	8003f34 <I2C_WaitOnTXEFlagUntilTimeout+0x88>
 8003f24:	68fb      	ldr	r3, [r7, #12]
 8003f26:	681b      	ldr	r3, [r3, #0]
 8003f28:	695b      	ldr	r3, [r3, #20]
 8003f2a:	f003 0380 	and.w	r3, r3, #128	; 0x80
 8003f2e:	2b80      	cmp	r3, #128	; 0x80
 8003f30:	d1c3      	bne.n	8003eba <I2C_WaitOnTXEFlagUntilTimeout+0xe>
 8003f32:	2300      	movs	r3, #0
 8003f34:	4618      	mov	r0, r3
 8003f36:	3710      	adds	r7, #16
 8003f38:	46bd      	mov	sp, r7
 8003f3a:	bd80      	pop	{r7, pc}

08003f3c <I2C_IsAcknowledgeFailed>:
 8003f3c:	b480      	push	{r7}
 8003f3e:	b083      	sub	sp, #12
 8003f40:	af00      	add	r7, sp, #0
 8003f42:	6078      	str	r0, [r7, #4]
 8003f44:	687b      	ldr	r3, [r7, #4]
 8003f46:	681b      	ldr	r3, [r3, #0]
 8003f48:	695b      	ldr	r3, [r3, #20]
 8003f4a:	f403 6380 	and.w	r3, r3, #1024	; 0x400
 8003f4e:	f5b3 6f80 	cmp.w	r3, #1024	; 0x400
 8003f52:	d11b      	bne.n	8003f8c <I2C_IsAcknowledgeFailed+0x50>
 8003f54:	687b      	ldr	r3, [r7, #4]
 8003f56:	681b      	ldr	r3, [r3, #0]
 8003f58:	f46f 6280 	mvn.w	r2, #1024	; 0x400
 8003f5c:	615a      	str	r2, [r3, #20]
 8003f5e:	687b      	ldr	r3, [r7, #4]
 8003f60:	2200      	movs	r2, #0
 8003f62:	631a      	str	r2, [r3, #48]	; 0x30
 8003f64:	687b      	ldr	r3, [r7, #4]
 8003f66:	2220      	movs	r2, #32
 8003f68:	f883 203d 	strb.w	r2, [r3, #61]	; 0x3d
 8003f6c:	687b      	ldr	r3, [r7, #4]
 8003f6e:	2200      	movs	r2, #0
 8003f70:	f883 203e 	strb.w	r2, [r3, #62]	; 0x3e
 8003f74:	687b      	ldr	r3, [r7, #4]
 8003f76:	6c1b      	ldr	r3, [r3, #64]	; 0x40
 8003f78:	f043 0204 	orr.w	r2, r3, #4
 8003f7c:	687b      	ldr	r3, [r7, #4]
 8003f7e:	641a      	str	r2, [r3, #64]	; 0x40
 8003f80:	687b      	ldr	r3, [r7, #4]
 8003f82:	2200      	movs	r2, #0
 8003f84:	f883 203c 	strb.w	r2, [r3, #60]	; 0x3c
 8003f88:	2301      	movs	r3, #1
 8003f8a:	e000      	b.n	8003f8e <I2C_IsAcknowledgeFailed+0x52>
 8003f8c:	2300      	movs	r3, #0
 8003f8e:	4618      	mov	r0, r3
 8003f90:	370c      	adds	r7, #12
 8003f92:	46bd      	mov	sp, r7
 8003f94:	f85d 7b04 	ldr.w	r7, [sp], #4
 8003f98:	4770      	bx	lr

08003f9a <HAL_PCD_Init>:
 8003f9a:	b580      	push	{r7, lr}
 8003f9c:	b086      	sub	sp, #24
 8003f9e:	af02      	add	r7, sp, #8
 8003fa0:	6078      	str	r0, [r7, #4]
 8003fa2:	687b      	ldr	r3, [r7, #4]
 8003fa4:	2b00      	cmp	r3, #0
 8003fa6:	d101      	bne.n	8003fac <HAL_PCD_Init+0x12>
 8003fa8:	2301      	movs	r3, #1
 8003faa:	e101      	b.n	80041b0 <HAL_PCD_Init+0x216>
 8003fac:	687b      	ldr	r3, [r7, #4]
 8003fae:	681b      	ldr	r3, [r3, #0]
 8003fb0:	60bb      	str	r3, [r7, #8]
 8003fb2:	687b      	ldr	r3, [r7, #4]
 8003fb4:	f893 3495 	ldrb.w	r3, [r3, #1173]	; 0x495
 8003fb8:	b2db      	uxtb	r3, r3
 8003fba:	2b00      	cmp	r3, #0
 8003fbc:	d106      	bne.n	8003fcc <HAL_PCD_Init+0x32>
 8003fbe:	687b      	ldr	r3, [r7, #4]
 8003fc0:	2200      	movs	r2, #0
 8003fc2:	f883 2494 	strb.w	r2, [r3, #1172]	; 0x494
 8003fc6:	6878      	ldr	r0, [r7, #4]
 8003fc8:	f006 fbe4 	bl	800a794 <HAL_PCD_MspInit>
 8003fcc:	687b      	ldr	r3, [r7, #4]
 8003fce:	2203      	movs	r2, #3
 8003fd0:	f883 2495 	strb.w	r2, [r3, #1173]	; 0x495
 8003fd4:	68bb      	ldr	r3, [r7, #8]
 8003fd6:	f1b3 4fa0 	cmp.w	r3, #1342177280	; 0x50000000
 8003fda:	d102      	bne.n	8003fe2 <HAL_PCD_Init+0x48>
 8003fdc:	687b      	ldr	r3, [r7, #4]
 8003fde:	2200      	movs	r2, #0
 8003fe0:	719a      	strb	r2, [r3, #6]
 8003fe2:	687b      	ldr	r3, [r7, #4]
 8003fe4:	681b      	ldr	r3, [r3, #0]
 8003fe6:	4618      	mov	r0, r3
 8003fe8:	f002 ff37 	bl	8006e5a <USB_DisableGlobalInt>
 8003fec:	687b      	ldr	r3, [r7, #4]
 8003fee:	6818      	ldr	r0, [r3, #0]
 8003ff0:	687b      	ldr	r3, [r7, #4]
 8003ff2:	7c1a      	ldrb	r2, [r3, #16]
 8003ff4:	f88d 2000 	strb.w	r2, [sp]
 8003ff8:	3304      	adds	r3, #4
 8003ffa:	cb0e      	ldmia	r3, {r1, r2, r3}
 8003ffc:	f002 fe16 	bl	8006c2c <USB_CoreInit>
 8004000:	4603      	mov	r3, r0
 8004002:	2b00      	cmp	r3, #0
 8004004:	d005      	beq.n	8004012 <HAL_PCD_Init+0x78>
 8004006:	687b      	ldr	r3, [r7, #4]
 8004008:	2202      	movs	r2, #2
 800400a:	f883 2495 	strb.w	r2, [r3, #1173]	; 0x495
 800400e:	2301      	movs	r3, #1
 8004010:	e0ce      	b.n	80041b0 <HAL_PCD_Init+0x216>
 8004012:	687b      	ldr	r3, [r7, #4]
 8004014:	681b      	ldr	r3, [r3, #0]
 8004016:	2100      	movs	r1, #0
 8004018:	4618      	mov	r0, r3
 800401a:	f002 ff2f 	bl	8006e7c <USB_SetCurrentMode>
 800401e:	4603      	mov	r3, r0
 8004020:	2b00      	cmp	r3, #0
 8004022:	d005      	beq.n	8004030 <HAL_PCD_Init+0x96>
 8004024:	687b      	ldr	r3, [r7, #4]
 8004026:	2202      	movs	r2, #2
 8004028:	f883 2495 	strb.w	r2, [r3, #1173]	; 0x495
 800402c:	2301      	movs	r3, #1
 800402e:	e0bf      	b.n	80041b0 <HAL_PCD_Init+0x216>
 8004030:	2300      	movs	r3, #0
 8004032:	73fb      	strb	r3, [r7, #15]
 8004034:	e04a      	b.n	80040cc <HAL_PCD_Init+0x132>
 8004036:	7bfa      	ldrb	r2, [r7, #15]
 8004038:	6879      	ldr	r1, [r7, #4]
 800403a:	4613      	mov	r3, r2
 800403c:	00db      	lsls	r3, r3, #3
 800403e:	4413      	add	r3, r2
 8004040:	009b      	lsls	r3, r3, #2
 8004042:	440b      	add	r3, r1
 8004044:	3315      	adds	r3, #21
 8004046:	2201      	movs	r2, #1
 8004048:	701a      	strb	r2, [r3, #0]
 800404a:	7bfa      	ldrb	r2, [r7, #15]
 800404c:	6879      	ldr	r1, [r7, #4]
 800404e:	4613      	mov	r3, r2
 8004050:	00db      	lsls	r3, r3, #3
 8004052:	4413      	add	r3, r2
 8004054:	009b      	lsls	r3, r3, #2
 8004056:	440b      	add	r3, r1
 8004058:	3314      	adds	r3, #20
 800405a:	7bfa      	ldrb	r2, [r7, #15]
 800405c:	701a      	strb	r2, [r3, #0]
 800405e:	7bfa      	ldrb	r2, [r7, #15]
 8004060:	7bfb      	ldrb	r3, [r7, #15]
 8004062:	b298      	uxth	r0, r3
 8004064:	6879      	ldr	r1, [r7, #4]
 8004066:	4613      	mov	r3, r2
 8004068:	00db      	lsls	r3, r3, #3
 800406a:	4413      	add	r3, r2
 800406c:	009b      	lsls	r3, r3, #2
 800406e:	440b      	add	r3, r1
 8004070:	332e      	adds	r3, #46	; 0x2e
 8004072:	4602      	mov	r2, r0
 8004074:	801a      	strh	r2, [r3, #0]
 8004076:	7bfa      	ldrb	r2, [r7, #15]
 8004078:	6879      	ldr	r1, [r7, #4]
 800407a:	4613      	mov	r3, r2
 800407c:	00db      	lsls	r3, r3, #3
 800407e:	4413      	add	r3, r2
 8004080:	009b      	lsls	r3, r3, #2
 8004082:	440b      	add	r3, r1
 8004084:	3318      	adds	r3, #24
 8004086:	2200      	movs	r2, #0
 8004088:	701a      	strb	r2, [r3, #0]
 800408a:	7bfa      	ldrb	r2, [r7, #15]
 800408c:	6879      	ldr	r1, [r7, #4]
 800408e:	4613      	mov	r3, r2
 8004090:	00db      	lsls	r3, r3, #3
 8004092:	4413      	add	r3, r2
 8004094:	009b      	lsls	r3, r3, #2
 8004096:	440b      	add	r3, r1
 8004098:	331c      	adds	r3, #28
 800409a:	2200      	movs	r2, #0
 800409c:	601a      	str	r2, [r3, #0]
 800409e:	7bfa      	ldrb	r2, [r7, #15]
 80040a0:	6879      	ldr	r1, [r7, #4]
 80040a2:	4613      	mov	r3, r2
 80040a4:	00db      	lsls	r3, r3, #3
 80040a6:	4413      	add	r3, r2
 80040a8:	009b      	lsls	r3, r3, #2
 80040aa:	440b      	add	r3, r1
 80040ac:	3320      	adds	r3, #32
 80040ae:	2200      	movs	r2, #0
 80040b0:	601a      	str	r2, [r3, #0]
 80040b2:	7bfa      	ldrb	r2, [r7, #15]
 80040b4:	6879      	ldr	r1, [r7, #4]
 80040b6:	4613      	mov	r3, r2
 80040b8:	00db      	lsls	r3, r3, #3
 80040ba:	4413      	add	r3, r2
 80040bc:	009b      	lsls	r3, r3, #2
 80040be:	440b      	add	r3, r1
 80040c0:	3324      	adds	r3, #36	; 0x24
 80040c2:	2200      	movs	r2, #0
 80040c4:	601a      	str	r2, [r3, #0]
 80040c6:	7bfb      	ldrb	r3, [r7, #15]
 80040c8:	3301      	adds	r3, #1
 80040ca:	73fb      	strb	r3, [r7, #15]
 80040cc:	687b      	ldr	r3, [r7, #4]
 80040ce:	791b      	ldrb	r3, [r3, #4]
 80040d0:	7bfa      	ldrb	r2, [r7, #15]
 80040d2:	429a      	cmp	r2, r3
 80040d4:	d3af      	bcc.n	8004036 <HAL_PCD_Init+0x9c>
 80040d6:	2300      	movs	r3, #0
 80040d8:	73fb      	strb	r3, [r7, #15]
 80040da:	e044      	b.n	8004166 <HAL_PCD_Init+0x1cc>
 80040dc:	7bfa      	ldrb	r2, [r7, #15]
 80040de:	6879      	ldr	r1, [r7, #4]
 80040e0:	4613      	mov	r3, r2
 80040e2:	00db      	lsls	r3, r3, #3
 80040e4:	4413      	add	r3, r2
 80040e6:	009b      	lsls	r3, r3, #2
 80040e8:	440b      	add	r3, r1
 80040ea:	f203 2355 	addw	r3, r3, #597	; 0x255
 80040ee:	2200      	movs	r2, #0
 80040f0:	701a      	strb	r2, [r3, #0]
 80040f2:	7bfa      	ldrb	r2, [r7, #15]
 80040f4:	6879      	ldr	r1, [r7, #4]
 80040f6:	4613      	mov	r3, r2
 80040f8:	00db      	lsls	r3, r3, #3
 80040fa:	4413      	add	r3, r2
 80040fc:	009b      	lsls	r3, r3, #2
 80040fe:	440b      	add	r3, r1
 8004100:	f503 7315 	add.w	r3, r3, #596	; 0x254
 8004104:	7bfa      	ldrb	r2, [r7, #15]
 8004106:	701a      	strb	r2, [r3, #0]
 8004108:	7bfa      	ldrb	r2, [r7, #15]
 800410a:	6879      	ldr	r1, [r7, #4]
 800410c:	4613      	mov	r3, r2
 800410e:	00db      	lsls	r3, r3, #3
 8004110:	4413      	add	r3, r2
 8004112:	009b      	lsls	r3, r3, #2
 8004114:	440b      	add	r3, r1
 8004116:	f503 7316 	add.w	r3, r3, #600	; 0x258
 800411a:	2200      	movs	r2, #0
 800411c:	701a      	strb	r2, [r3, #0]
 800411e:	7bfa      	ldrb	r2, [r7, #15]
 8004120:	6879      	ldr	r1, [r7, #4]
 8004122:	4613      	mov	r3, r2
 8004124:	00db      	lsls	r3, r3, #3
 8004126:	4413      	add	r3, r2
 8004128:	009b      	lsls	r3, r3, #2
 800412a:	440b      	add	r3, r1
 800412c:	f503 7317 	add.w	r3, r3, #604	; 0x25c
 8004130:	2200      	movs	r2, #0
 8004132:	601a      	str	r2, [r3, #0]
 8004134:	7bfa      	ldrb	r2, [r7, #15]
 8004136:	6879      	ldr	r1, [r7, #4]
 8004138:	4613      	mov	r3, r2
 800413a:	00db      	lsls	r3, r3, #3
 800413c:	4413      	add	r3, r2
 800413e:	009b      	lsls	r3, r3, #2
 8004140:	440b      	add	r3, r1
 8004142:	f503 7318 	add.w	r3, r3, #608	; 0x260
 8004146:	2200      	movs	r2, #0
 8004148:	601a      	str	r2, [r3, #0]
 800414a:	7bfa      	ldrb	r2, [r7, #15]
 800414c:	6879      	ldr	r1, [r7, #4]
 800414e:	4613      	mov	r3, r2
 8004150:	00db      	lsls	r3, r3, #3
 8004152:	4413      	add	r3, r2
 8004154:	009b      	lsls	r3, r3, #2
 8004156:	440b      	add	r3, r1
 8004158:	f503 7319 	add.w	r3, r3, #612	; 0x264
 800415c:	2200      	movs	r2, #0
 800415e:	601a      	str	r2, [r3, #0]
 8004160:	7bfb      	ldrb	r3, [r7, #15]
 8004162:	3301      	adds	r3, #1
 8004164:	73fb      	strb	r3, [r7, #15]
 8004166:	687b      	ldr	r3, [r7, #4]
 8004168:	791b      	ldrb	r3, [r3, #4]
 800416a:	7bfa      	ldrb	r2, [r7, #15]
 800416c:	429a      	cmp	r2, r3
 800416e:	d3b5      	bcc.n	80040dc <HAL_PCD_Init+0x142>
 8004170:	687b      	ldr	r3, [r7, #4]
 8004172:	6818      	ldr	r0, [r3, #0]
 8004174:	687b      	ldr	r3, [r7, #4]
 8004176:	7c1a      	ldrb	r2, [r3, #16]
 8004178:	f88d 2000 	strb.w	r2, [sp]
 800417c:	3304      	adds	r3, #4
 800417e:	cb0e      	ldmia	r3, {r1, r2, r3}
 8004180:	f002 fec8 	bl	8006f14 <USB_DevInit>
 8004184:	4603      	mov	r3, r0
 8004186:	2b00      	cmp	r3, #0
 8004188:	d005      	beq.n	8004196 <HAL_PCD_Init+0x1fc>
 800418a:	687b      	ldr	r3, [r7, #4]
 800418c:	2202      	movs	r2, #2
 800418e:	f883 2495 	strb.w	r2, [r3, #1173]	; 0x495
 8004192:	2301      	movs	r3, #1
 8004194:	e00c      	b.n	80041b0 <HAL_PCD_Init+0x216>
 8004196:	687b      	ldr	r3, [r7, #4]
 8004198:	2200      	movs	r2, #0
 800419a:	745a      	strb	r2, [r3, #17]
 800419c:	687b      	ldr	r3, [r7, #4]
 800419e:	2201      	movs	r2, #1
 80041a0:	f883 2495 	strb.w	r2, [r3, #1173]	; 0x495
 80041a4:	687b      	ldr	r3, [r7, #4]
 80041a6:	681b      	ldr	r3, [r3, #0]
 80041a8:	4618      	mov	r0, r3
 80041aa:	f003 ff12 	bl	8007fd2 <USB_DevDisconnect>
 80041ae:	2300      	movs	r3, #0
 80041b0:	4618      	mov	r0, r3
 80041b2:	3710      	adds	r7, #16
 80041b4:	46bd      	mov	sp, r7
 80041b6:	bd80      	pop	{r7, pc}

080041b8 <HAL_PCD_Start>:
 80041b8:	b580      	push	{r7, lr}
 80041ba:	b084      	sub	sp, #16
 80041bc:	af00      	add	r7, sp, #0
 80041be:	6078      	str	r0, [r7, #4]
 80041c0:	687b      	ldr	r3, [r7, #4]
 80041c2:	681b      	ldr	r3, [r3, #0]
 80041c4:	60fb      	str	r3, [r7, #12]
 80041c6:	687b      	ldr	r3, [r7, #4]
 80041c8:	f893 3494 	ldrb.w	r3, [r3, #1172]	; 0x494
 80041cc:	2b01      	cmp	r3, #1
 80041ce:	d101      	bne.n	80041d4 <HAL_PCD_Start+0x1c>
 80041d0:	2302      	movs	r3, #2
 80041d2:	e022      	b.n	800421a <HAL_PCD_Start+0x62>
 80041d4:	687b      	ldr	r3, [r7, #4]
 80041d6:	2201      	movs	r2, #1
 80041d8:	f883 2494 	strb.w	r2, [r3, #1172]	; 0x494
 80041dc:	68fb      	ldr	r3, [r7, #12]
 80041de:	68db      	ldr	r3, [r3, #12]
 80041e0:	f003 0340 	and.w	r3, r3, #64	; 0x40
 80041e4:	2b00      	cmp	r3, #0
 80041e6:	d009      	beq.n	80041fc <HAL_PCD_Start+0x44>
 80041e8:	687b      	ldr	r3, [r7, #4]
 80041ea:	7b5b      	ldrb	r3, [r3, #13]
 80041ec:	2b01      	cmp	r3, #1
 80041ee:	d105      	bne.n	80041fc <HAL_PCD_Start+0x44>
 80041f0:	68fb      	ldr	r3, [r7, #12]
 80041f2:	6b9b      	ldr	r3, [r3, #56]	; 0x38
 80041f4:	f443 3280 	orr.w	r2, r3, #65536	; 0x10000
 80041f8:	68fb      	ldr	r3, [r7, #12]
 80041fa:	639a      	str	r2, [r3, #56]	; 0x38
 80041fc:	687b      	ldr	r3, [r7, #4]
 80041fe:	681b      	ldr	r3, [r3, #0]
 8004200:	4618      	mov	r0, r3
 8004202:	f002 fe19 	bl	8006e38 <USB_EnableGlobalInt>
 8004206:	687b      	ldr	r3, [r7, #4]
 8004208:	681b      	ldr	r3, [r3, #0]
 800420a:	4618      	mov	r0, r3
 800420c:	f003 fec0 	bl	8007f90 <USB_DevConnect>
 8004210:	687b      	ldr	r3, [r7, #4]
 8004212:	2200      	movs	r2, #0
 8004214:	f883 2494 	strb.w	r2, [r3, #1172]	; 0x494
 8004218:	2300      	movs	r3, #0
 800421a:	4618      	mov	r0, r3
 800421c:	3710      	adds	r7, #16
 800421e:	46bd      	mov	sp, r7
 8004220:	bd80      	pop	{r7, pc}

08004222 <HAL_PCD_IRQHandler>:
 8004222:	b590      	push	{r4, r7, lr}
 8004224:	b08d      	sub	sp, #52	; 0x34
 8004226:	af00      	add	r7, sp, #0
 8004228:	6078      	str	r0, [r7, #4]
 800422a:	687b      	ldr	r3, [r7, #4]
 800422c:	681b      	ldr	r3, [r3, #0]
 800422e:	623b      	str	r3, [r7, #32]
 8004230:	6a3b      	ldr	r3, [r7, #32]
 8004232:	61fb      	str	r3, [r7, #28]
 8004234:	687b      	ldr	r3, [r7, #4]
 8004236:	681b      	ldr	r3, [r3, #0]
 8004238:	4618      	mov	r0, r3
 800423a:	f003 ff7e 	bl	800813a <USB_GetMode>
 800423e:	4603      	mov	r3, r0
 8004240:	2b00      	cmp	r3, #0
 8004242:	f040 848c 	bne.w	8004b5e <HAL_PCD_IRQHandler+0x93c>
 8004246:	687b      	ldr	r3, [r7, #4]
 8004248:	681b      	ldr	r3, [r3, #0]
 800424a:	4618      	mov	r0, r3
 800424c:	f003 fee2 	bl	8008014 <USB_ReadInterrupts>
 8004250:	4603      	mov	r3, r0
 8004252:	2b00      	cmp	r3, #0
 8004254:	f000 8482 	beq.w	8004b5c <HAL_PCD_IRQHandler+0x93a>
 8004258:	69fb      	ldr	r3, [r7, #28]
 800425a:	f503 6300 	add.w	r3, r3, #2048	; 0x800
 800425e:	689b      	ldr	r3, [r3, #8]
 8004260:	0a1b      	lsrs	r3, r3, #8
 8004262:	f3c3 020d 	ubfx	r2, r3, #0, #14
 8004266:	687b      	ldr	r3, [r7, #4]
 8004268:	f8c3 24d4 	str.w	r2, [r3, #1236]	; 0x4d4
 800426c:	687b      	ldr	r3, [r7, #4]
 800426e:	681b      	ldr	r3, [r3, #0]
 8004270:	4618      	mov	r0, r3
 8004272:	f003 fecf 	bl	8008014 <USB_ReadInterrupts>
 8004276:	4603      	mov	r3, r0
 8004278:	f003 0302 	and.w	r3, r3, #2
 800427c:	2b02      	cmp	r3, #2
 800427e:	d107      	bne.n	8004290 <HAL_PCD_IRQHandler+0x6e>
 8004280:	687b      	ldr	r3, [r7, #4]
 8004282:	681b      	ldr	r3, [r3, #0]
 8004284:	695a      	ldr	r2, [r3, #20]
 8004286:	687b      	ldr	r3, [r7, #4]
 8004288:	681b      	ldr	r3, [r3, #0]
 800428a:	f002 0202 	and.w	r2, r2, #2
 800428e:	615a      	str	r2, [r3, #20]
 8004290:	687b      	ldr	r3, [r7, #4]
 8004292:	681b      	ldr	r3, [r3, #0]
 8004294:	4618      	mov	r0, r3
 8004296:	f003 febd 	bl	8008014 <USB_ReadInterrupts>
 800429a:	4603      	mov	r3, r0
 800429c:	f003 0310 	and.w	r3, r3, #16
 80042a0:	2b10      	cmp	r3, #16
 80042a2:	d161      	bne.n	8004368 <HAL_PCD_IRQHandler+0x146>
 80042a4:	687b      	ldr	r3, [r7, #4]
 80042a6:	681b      	ldr	r3, [r3, #0]
 80042a8:	699a      	ldr	r2, [r3, #24]
 80042aa:	687b      	ldr	r3, [r7, #4]
 80042ac:	681b      	ldr	r3, [r3, #0]
 80042ae:	f022 0210 	bic.w	r2, r2, #16
 80042b2:	619a      	str	r2, [r3, #24]
 80042b4:	6a3b      	ldr	r3, [r7, #32]
 80042b6:	6a1b      	ldr	r3, [r3, #32]
 80042b8:	61bb      	str	r3, [r7, #24]
 80042ba:	69bb      	ldr	r3, [r7, #24]
 80042bc:	f003 020f 	and.w	r2, r3, #15
 80042c0:	4613      	mov	r3, r2
 80042c2:	00db      	lsls	r3, r3, #3
 80042c4:	4413      	add	r3, r2
 80042c6:	009b      	lsls	r3, r3, #2
 80042c8:	f503 7314 	add.w	r3, r3, #592	; 0x250
 80042cc:	687a      	ldr	r2, [r7, #4]
 80042ce:	4413      	add	r3, r2
 80042d0:	3304      	adds	r3, #4
 80042d2:	617b      	str	r3, [r7, #20]
 80042d4:	69bb      	ldr	r3, [r7, #24]
 80042d6:	0c5b      	lsrs	r3, r3, #17
 80042d8:	f003 030f 	and.w	r3, r3, #15
 80042dc:	2b02      	cmp	r3, #2
 80042de:	d124      	bne.n	800432a <HAL_PCD_IRQHandler+0x108>
 80042e0:	69ba      	ldr	r2, [r7, #24]
 80042e2:	f647 73f0 	movw	r3, #32752	; 0x7ff0
 80042e6:	4013      	ands	r3, r2
 80042e8:	2b00      	cmp	r3, #0
 80042ea:	d035      	beq.n	8004358 <HAL_PCD_IRQHandler+0x136>
 80042ec:	697b      	ldr	r3, [r7, #20]
 80042ee:	68d9      	ldr	r1, [r3, #12]
 80042f0:	69bb      	ldr	r3, [r7, #24]
 80042f2:	091b      	lsrs	r3, r3, #4
 80042f4:	b29b      	uxth	r3, r3
 80042f6:	f3c3 030a 	ubfx	r3, r3, #0, #11
 80042fa:	b29b      	uxth	r3, r3
 80042fc:	461a      	mov	r2, r3
 80042fe:	6a38      	ldr	r0, [r7, #32]
 8004300:	f003 fcf4 	bl	8007cec <USB_ReadPacket>
 8004304:	697b      	ldr	r3, [r7, #20]
 8004306:	68da      	ldr	r2, [r3, #12]
 8004308:	69bb      	ldr	r3, [r7, #24]
 800430a:	091b      	lsrs	r3, r3, #4
 800430c:	f3c3 030a 	ubfx	r3, r3, #0, #11
 8004310:	441a      	add	r2, r3
 8004312:	697b      	ldr	r3, [r7, #20]
 8004314:	60da      	str	r2, [r3, #12]
 8004316:	697b      	ldr	r3, [r7, #20]
 8004318:	695a      	ldr	r2, [r3, #20]
 800431a:	69bb      	ldr	r3, [r7, #24]
 800431c:	091b      	lsrs	r3, r3, #4
 800431e:	f3c3 030a 	ubfx	r3, r3, #0, #11
 8004322:	441a      	add	r2, r3
 8004324:	697b      	ldr	r3, [r7, #20]
 8004326:	615a      	str	r2, [r3, #20]
 8004328:	e016      	b.n	8004358 <HAL_PCD_IRQHandler+0x136>
 800432a:	69bb      	ldr	r3, [r7, #24]
 800432c:	0c5b      	lsrs	r3, r3, #17
 800432e:	f003 030f 	and.w	r3, r3, #15
 8004332:	2b06      	cmp	r3, #6
 8004334:	d110      	bne.n	8004358 <HAL_PCD_IRQHandler+0x136>
 8004336:	687b      	ldr	r3, [r7, #4]
 8004338:	f203 439c 	addw	r3, r3, #1180	; 0x49c
 800433c:	2208      	movs	r2, #8
 800433e:	4619      	mov	r1, r3
 8004340:	6a38      	ldr	r0, [r7, #32]
 8004342:	f003 fcd3 	bl	8007cec <USB_ReadPacket>
 8004346:	697b      	ldr	r3, [r7, #20]
 8004348:	695a      	ldr	r2, [r3, #20]
 800434a:	69bb      	ldr	r3, [r7, #24]
 800434c:	091b      	lsrs	r3, r3, #4
 800434e:	f3c3 030a 	ubfx	r3, r3, #0, #11
 8004352:	441a      	add	r2, r3
 8004354:	697b      	ldr	r3, [r7, #20]
 8004356:	615a      	str	r2, [r3, #20]
 8004358:	687b      	ldr	r3, [r7, #4]
 800435a:	681b      	ldr	r3, [r3, #0]
 800435c:	699a      	ldr	r2, [r3, #24]
 800435e:	687b      	ldr	r3, [r7, #4]
 8004360:	681b      	ldr	r3, [r3, #0]
 8004362:	f042 0210 	orr.w	r2, r2, #16
 8004366:	619a      	str	r2, [r3, #24]
 8004368:	687b      	ldr	r3, [r7, #4]
 800436a:	681b      	ldr	r3, [r3, #0]
 800436c:	4618      	mov	r0, r3
 800436e:	f003 fe51 	bl	8008014 <USB_ReadInterrupts>
 8004372:	4603      	mov	r3, r0
 8004374:	f403 2300 	and.w	r3, r3, #524288	; 0x80000
 8004378:	f5b3 2f00 	cmp.w	r3, #524288	; 0x80000
 800437c:	f040 80a7 	bne.w	80044ce <HAL_PCD_IRQHandler+0x2ac>
 8004380:	2300      	movs	r3, #0
 8004382:	627b      	str	r3, [r7, #36]	; 0x24
 8004384:	687b      	ldr	r3, [r7, #4]
 8004386:	681b      	ldr	r3, [r3, #0]
 8004388:	4618      	mov	r0, r3
 800438a:	f003 fe56 	bl	800803a <USB_ReadDevAllOutEpInterrupt>
 800438e:	62b8      	str	r0, [r7, #40]	; 0x28
 8004390:	e099      	b.n	80044c6 <HAL_PCD_IRQHandler+0x2a4>
 8004392:	6abb      	ldr	r3, [r7, #40]	; 0x28
 8004394:	f003 0301 	and.w	r3, r3, #1
 8004398:	2b00      	cmp	r3, #0
 800439a:	f000 808e 	beq.w	80044ba <HAL_PCD_IRQHandler+0x298>
 800439e:	687b      	ldr	r3, [r7, #4]
 80043a0:	681b      	ldr	r3, [r3, #0]
 80043a2:	6a7a      	ldr	r2, [r7, #36]	; 0x24
 80043a4:	b2d2      	uxtb	r2, r2
 80043a6:	4611      	mov	r1, r2
 80043a8:	4618      	mov	r0, r3
 80043aa:	f003 fe7a 	bl	80080a2 <USB_ReadDevOutEPInterrupt>
 80043ae:	6138      	str	r0, [r7, #16]
 80043b0:	693b      	ldr	r3, [r7, #16]
 80043b2:	f003 0301 	and.w	r3, r3, #1
 80043b6:	2b00      	cmp	r3, #0
 80043b8:	d00c      	beq.n	80043d4 <HAL_PCD_IRQHandler+0x1b2>
 80043ba:	6a7b      	ldr	r3, [r7, #36]	; 0x24
 80043bc:	015a      	lsls	r2, r3, #5
 80043be:	69fb      	ldr	r3, [r7, #28]
 80043c0:	4413      	add	r3, r2
 80043c2:	f503 6330 	add.w	r3, r3, #2816	; 0xb00
 80043c6:	461a      	mov	r2, r3
 80043c8:	2301      	movs	r3, #1
 80043ca:	6093      	str	r3, [r2, #8]
 80043cc:	6a79      	ldr	r1, [r7, #36]	; 0x24
 80043ce:	6878      	ldr	r0, [r7, #4]
 80043d0:	f000 fea4 	bl	800511c <PCD_EP_OutXfrComplete_int>
 80043d4:	693b      	ldr	r3, [r7, #16]
 80043d6:	f003 0308 	and.w	r3, r3, #8
 80043da:	2b00      	cmp	r3, #0
 80043dc:	d00c      	beq.n	80043f8 <HAL_PCD_IRQHandler+0x1d6>
 80043de:	6a7b      	ldr	r3, [r7, #36]	; 0x24
 80043e0:	015a      	lsls	r2, r3, #5
 80043e2:	69fb      	ldr	r3, [r7, #28]
 80043e4:	4413      	add	r3, r2
 80043e6:	f503 6330 	add.w	r3, r3, #2816	; 0xb00
 80043ea:	461a      	mov	r2, r3
 80043ec:	2308      	movs	r3, #8
 80043ee:	6093      	str	r3, [r2, #8]
 80043f0:	6a79      	ldr	r1, [r7, #36]	; 0x24
 80043f2:	6878      	ldr	r0, [r7, #4]
 80043f4:	f000 ff7a 	bl	80052ec <PCD_EP_OutSetupPacket_int>
 80043f8:	693b      	ldr	r3, [r7, #16]
 80043fa:	f003 0310 	and.w	r3, r3, #16
 80043fe:	2b00      	cmp	r3, #0
 8004400:	d008      	beq.n	8004414 <HAL_PCD_IRQHandler+0x1f2>
 8004402:	6a7b      	ldr	r3, [r7, #36]	; 0x24
 8004404:	015a      	lsls	r2, r3, #5
 8004406:	69fb      	ldr	r3, [r7, #28]
 8004408:	4413      	add	r3, r2
 800440a:	f503 6330 	add.w	r3, r3, #2816	; 0xb00
 800440e:	461a      	mov	r2, r3
 8004410:	2310      	movs	r3, #16
 8004412:	6093      	str	r3, [r2, #8]
 8004414:	693b      	ldr	r3, [r7, #16]
 8004416:	f003 0302 	and.w	r3, r3, #2
 800441a:	2b00      	cmp	r3, #0
 800441c:	d030      	beq.n	8004480 <HAL_PCD_IRQHandler+0x25e>
 800441e:	6a3b      	ldr	r3, [r7, #32]
 8004420:	695b      	ldr	r3, [r3, #20]
 8004422:	f003 0380 	and.w	r3, r3, #128	; 0x80
 8004426:	2b80      	cmp	r3, #128	; 0x80
 8004428:	d109      	bne.n	800443e <HAL_PCD_IRQHandler+0x21c>
 800442a:	69fb      	ldr	r3, [r7, #28]
 800442c:	f503 6300 	add.w	r3, r3, #2048	; 0x800
 8004430:	685b      	ldr	r3, [r3, #4]
 8004432:	69fa      	ldr	r2, [r7, #28]
 8004434:	f502 6200 	add.w	r2, r2, #2048	; 0x800
 8004438:	f443 6380 	orr.w	r3, r3, #1024	; 0x400
 800443c:	6053      	str	r3, [r2, #4]
 800443e:	6a7a      	ldr	r2, [r7, #36]	; 0x24
 8004440:	4613      	mov	r3, r2
 8004442:	00db      	lsls	r3, r3, #3
 8004444:	4413      	add	r3, r2
 8004446:	009b      	lsls	r3, r3, #2
 8004448:	f503 7314 	add.w	r3, r3, #592	; 0x250
 800444c:	687a      	ldr	r2, [r7, #4]
 800444e:	4413      	add	r3, r2
 8004450:	3304      	adds	r3, #4
 8004452:	617b      	str	r3, [r7, #20]
 8004454:	697b      	ldr	r3, [r7, #20]
 8004456:	78db      	ldrb	r3, [r3, #3]
 8004458:	2b01      	cmp	r3, #1
 800445a:	d108      	bne.n	800446e <HAL_PCD_IRQHandler+0x24c>
 800445c:	697b      	ldr	r3, [r7, #20]
 800445e:	2200      	movs	r2, #0
 8004460:	70da      	strb	r2, [r3, #3]
 8004462:	6a7b      	ldr	r3, [r7, #36]	; 0x24
 8004464:	b2db      	uxtb	r3, r3
 8004466:	4619      	mov	r1, r3
 8004468:	6878      	ldr	r0, [r7, #4]
 800446a:	f006 fa8f 	bl	800a98c <HAL_PCD_ISOOUTIncompleteCallback>
 800446e:	6a7b      	ldr	r3, [r7, #36]	; 0x24
 8004470:	015a      	lsls	r2, r3, #5
 8004472:	69fb      	ldr	r3, [r7, #28]
 8004474:	4413      	add	r3, r2
 8004476:	f503 6330 	add.w	r3, r3, #2816	; 0xb00
 800447a:	461a      	mov	r2, r3
 800447c:	2302      	movs	r3, #2
 800447e:	6093      	str	r3, [r2, #8]
 8004480:	693b      	ldr	r3, [r7, #16]
 8004482:	f003 0320 	and.w	r3, r3, #32
 8004486:	2b00      	cmp	r3, #0
 8004488:	d008      	beq.n	800449c <HAL_PCD_IRQHandler+0x27a>
 800448a:	6a7b      	ldr	r3, [r7, #36]	; 0x24
 800448c:	015a      	lsls	r2, r3, #5
 800448e:	69fb      	ldr	r3, [r7, #28]
 8004490:	4413      	add	r3, r2
 8004492:	f503 6330 	add.w	r3, r3, #2816	; 0xb00
 8004496:	461a      	mov	r2, r3
 8004498:	2320      	movs	r3, #32
 800449a:	6093      	str	r3, [r2, #8]
 800449c:	693b      	ldr	r3, [r7, #16]
 800449e:	f403 5300 	and.w	r3, r3, #8192	; 0x2000
 80044a2:	2b00      	cmp	r3, #0
 80044a4:	d009      	beq.n	80044ba <HAL_PCD_IRQHandler+0x298>
 80044a6:	6a7b      	ldr	r3, [r7, #36]	; 0x24
 80044a8:	015a      	lsls	r2, r3, #5
 80044aa:	69fb      	ldr	r3, [r7, #28]
 80044ac:	4413      	add	r3, r2
 80044ae:	f503 6330 	add.w	r3, r3, #2816	; 0xb00
 80044b2:	461a      	mov	r2, r3
 80044b4:	f44f 5300 	mov.w	r3, #8192	; 0x2000
 80044b8:	6093      	str	r3, [r2, #8]
 80044ba:	6a7b      	ldr	r3, [r7, #36]	; 0x24
 80044bc:	3301      	adds	r3, #1
 80044be:	627b      	str	r3, [r7, #36]	; 0x24
 80044c0:	6abb      	ldr	r3, [r7, #40]	; 0x28
 80044c2:	085b      	lsrs	r3, r3, #1
 80044c4:	62bb      	str	r3, [r7, #40]	; 0x28
 80044c6:	6abb      	ldr	r3, [r7, #40]	; 0x28
 80044c8:	2b00      	cmp	r3, #0
 80044ca:	f47f af62 	bne.w	8004392 <HAL_PCD_IRQHandler+0x170>
 80044ce:	687b      	ldr	r3, [r7, #4]
 80044d0:	681b      	ldr	r3, [r3, #0]
 80044d2:	4618      	mov	r0, r3
 80044d4:	f003 fd9e 	bl	8008014 <USB_ReadInterrupts>
 80044d8:	4603      	mov	r3, r0
 80044da:	f403 2380 	and.w	r3, r3, #262144	; 0x40000
 80044de:	f5b3 2f80 	cmp.w	r3, #262144	; 0x40000
 80044e2:	f040 80db 	bne.w	800469c <HAL_PCD_IRQHandler+0x47a>
 80044e6:	687b      	ldr	r3, [r7, #4]
 80044e8:	681b      	ldr	r3, [r3, #0]
 80044ea:	4618      	mov	r0, r3
 80044ec:	f003 fdbf 	bl	800806e <USB_ReadDevAllInEpInterrupt>
 80044f0:	62b8      	str	r0, [r7, #40]	; 0x28
 80044f2:	2300      	movs	r3, #0
 80044f4:	627b      	str	r3, [r7, #36]	; 0x24
 80044f6:	e0cd      	b.n	8004694 <HAL_PCD_IRQHandler+0x472>
 80044f8:	6abb      	ldr	r3, [r7, #40]	; 0x28
 80044fa:	f003 0301 	and.w	r3, r3, #1
 80044fe:	2b00      	cmp	r3, #0
 8004500:	f000 80c2 	beq.w	8004688 <HAL_PCD_IRQHandler+0x466>
 8004504:	687b      	ldr	r3, [r7, #4]
 8004506:	681b      	ldr	r3, [r3, #0]
 8004508:	6a7a      	ldr	r2, [r7, #36]	; 0x24
 800450a:	b2d2      	uxtb	r2, r2
 800450c:	4611      	mov	r1, r2
 800450e:	4618      	mov	r0, r3
 8004510:	f003 fde5 	bl	80080de <USB_ReadDevInEPInterrupt>
 8004514:	6138      	str	r0, [r7, #16]
 8004516:	693b      	ldr	r3, [r7, #16]
 8004518:	f003 0301 	and.w	r3, r3, #1
 800451c:	2b00      	cmp	r3, #0
 800451e:	d057      	beq.n	80045d0 <HAL_PCD_IRQHandler+0x3ae>
 8004520:	6a7b      	ldr	r3, [r7, #36]	; 0x24
 8004522:	f003 030f 	and.w	r3, r3, #15
 8004526:	2201      	movs	r2, #1
 8004528:	fa02 f303 	lsl.w	r3, r2, r3
 800452c:	60fb      	str	r3, [r7, #12]
 800452e:	69fb      	ldr	r3, [r7, #28]
 8004530:	f503 6300 	add.w	r3, r3, #2048	; 0x800
 8004534:	6b5a      	ldr	r2, [r3, #52]	; 0x34
 8004536:	68fb      	ldr	r3, [r7, #12]
 8004538:	43db      	mvns	r3, r3
 800453a:	69f9      	ldr	r1, [r7, #28]
 800453c:	f501 6100 	add.w	r1, r1, #2048	; 0x800
 8004540:	4013      	ands	r3, r2
 8004542:	634b      	str	r3, [r1, #52]	; 0x34
 8004544:	6a7b      	ldr	r3, [r7, #36]	; 0x24
 8004546:	015a      	lsls	r2, r3, #5
 8004548:	69fb      	ldr	r3, [r7, #28]
 800454a:	4413      	add	r3, r2
 800454c:	f503 6310 	add.w	r3, r3, #2304	; 0x900
 8004550:	461a      	mov	r2, r3
 8004552:	2301      	movs	r3, #1
 8004554:	6093      	str	r3, [r2, #8]
 8004556:	687b      	ldr	r3, [r7, #4]
 8004558:	799b      	ldrb	r3, [r3, #6]
 800455a:	2b01      	cmp	r3, #1
 800455c:	d132      	bne.n	80045c4 <HAL_PCD_IRQHandler+0x3a2>
 800455e:	6879      	ldr	r1, [r7, #4]
 8004560:	6a7a      	ldr	r2, [r7, #36]	; 0x24
 8004562:	4613      	mov	r3, r2
 8004564:	00db      	lsls	r3, r3, #3
 8004566:	4413      	add	r3, r2
 8004568:	009b      	lsls	r3, r3, #2
 800456a:	440b      	add	r3, r1
 800456c:	3320      	adds	r3, #32
 800456e:	6819      	ldr	r1, [r3, #0]
 8004570:	6878      	ldr	r0, [r7, #4]
 8004572:	6a7a      	ldr	r2, [r7, #36]	; 0x24
 8004574:	4613      	mov	r3, r2
 8004576:	00db      	lsls	r3, r3, #3
 8004578:	4413      	add	r3, r2
 800457a:	009b      	lsls	r3, r3, #2
 800457c:	4403      	add	r3, r0
 800457e:	331c      	adds	r3, #28
 8004580:	681b      	ldr	r3, [r3, #0]
 8004582:	4419      	add	r1, r3
 8004584:	6878      	ldr	r0, [r7, #4]
 8004586:	6a7a      	ldr	r2, [r7, #36]	; 0x24
 8004588:	4613      	mov	r3, r2
 800458a:	00db      	lsls	r3, r3, #3
 800458c:	4413      	add	r3, r2
 800458e:	009b      	lsls	r3, r3, #2
 8004590:	4403      	add	r3, r0
 8004592:	3320      	adds	r3, #32
 8004594:	6019      	str	r1, [r3, #0]
 8004596:	6a7b      	ldr	r3, [r7, #36]	; 0x24
 8004598:	2b00      	cmp	r3, #0
 800459a:	d113      	bne.n	80045c4 <HAL_PCD_IRQHandler+0x3a2>
 800459c:	6879      	ldr	r1, [r7, #4]
 800459e:	6a7a      	ldr	r2, [r7, #36]	; 0x24
 80045a0:	4613      	mov	r3, r2
 80045a2:	00db      	lsls	r3, r3, #3
 80045a4:	4413      	add	r3, r2
 80045a6:	009b      	lsls	r3, r3, #2
 80045a8:	440b      	add	r3, r1
 80045aa:	3324      	adds	r3, #36	; 0x24
 80045ac:	681b      	ldr	r3, [r3, #0]
 80045ae:	2b00      	cmp	r3, #0
 80045b0:	d108      	bne.n	80045c4 <HAL_PCD_IRQHandler+0x3a2>
 80045b2:	687b      	ldr	r3, [r7, #4]
 80045b4:	6818      	ldr	r0, [r3, #0]
 80045b6:	687b      	ldr	r3, [r7, #4]
 80045b8:	f203 439c 	addw	r3, r3, #1180	; 0x49c
 80045bc:	461a      	mov	r2, r3
 80045be:	2101      	movs	r1, #1
 80045c0:	f003 fdec 	bl	800819c <USB_EP0_OutStart>
 80045c4:	6a7b      	ldr	r3, [r7, #36]	; 0x24
 80045c6:	b2db      	uxtb	r3, r3
 80045c8:	4619      	mov	r1, r3
 80045ca:	6878      	ldr	r0, [r7, #4]
 80045cc:	f006 f963 	bl	800a896 <HAL_PCD_DataInStageCallback>
 80045d0:	693b      	ldr	r3, [r7, #16]
 80045d2:	f003 0308 	and.w	r3, r3, #8
 80045d6:	2b00      	cmp	r3, #0
 80045d8:	d008      	beq.n	80045ec <HAL_PCD_IRQHandler+0x3ca>
 80045da:	6a7b      	ldr	r3, [r7, #36]	; 0x24
 80045dc:	015a      	lsls	r2, r3, #5
 80045de:	69fb      	ldr	r3, [r7, #28]
 80045e0:	4413      	add	r3, r2
 80045e2:	f503 6310 	add.w	r3, r3, #2304	; 0x900
 80045e6:	461a      	mov	r2, r3
 80045e8:	2308      	movs	r3, #8
 80045ea:	6093      	str	r3, [r2, #8]
 80045ec:	693b      	ldr	r3, [r7, #16]
 80045ee:	f003 0310 	and.w	r3, r3, #16
 80045f2:	2b00      	cmp	r3, #0
 80045f4:	d008      	beq.n	8004608 <HAL_PCD_IRQHandler+0x3e6>
 80045f6:	6a7b      	ldr	r3, [r7, #36]	; 0x24
 80045f8:	015a      	lsls	r2, r3, #5
 80045fa:	69fb      	ldr	r3, [r7, #28]
 80045fc:	4413      	add	r3, r2
 80045fe:	f503 6310 	add.w	r3, r3, #2304	; 0x900
 8004602:	461a      	mov	r2, r3
 8004604:	2310      	movs	r3, #16
 8004606:	6093      	str	r3, [r2, #8]
 8004608:	693b      	ldr	r3, [r7, #16]
 800460a:	f003 0340 	and.w	r3, r3, #64	; 0x40
 800460e:	2b00      	cmp	r3, #0
 8004610:	d008      	beq.n	8004624 <HAL_PCD_IRQHandler+0x402>
 8004612:	6a7b      	ldr	r3, [r7, #36]	; 0x24
 8004614:	015a      	lsls	r2, r3, #5
 8004616:	69fb      	ldr	r3, [r7, #28]
 8004618:	4413      	add	r3, r2
 800461a:	f503 6310 	add.w	r3, r3, #2304	; 0x900
 800461e:	461a      	mov	r2, r3
 8004620:	2340      	movs	r3, #64	; 0x40
 8004622:	6093      	str	r3, [r2, #8]
 8004624:	693b      	ldr	r3, [r7, #16]
 8004626:	f003 0302 	and.w	r3, r3, #2
 800462a:	2b00      	cmp	r3, #0
 800462c:	d023      	beq.n	8004676 <HAL_PCD_IRQHandler+0x454>
 800462e:	6a79      	ldr	r1, [r7, #36]	; 0x24
 8004630:	6a38      	ldr	r0, [r7, #32]
 8004632:	f002 fdd3 	bl	80071dc <USB_FlushTxFifo>
 8004636:	6a7a      	ldr	r2, [r7, #36]	; 0x24
 8004638:	4613      	mov	r3, r2
 800463a:	00db      	lsls	r3, r3, #3
 800463c:	4413      	add	r3, r2
 800463e:	009b      	lsls	r3, r3, #2
 8004640:	3310      	adds	r3, #16
 8004642:	687a      	ldr	r2, [r7, #4]
 8004644:	4413      	add	r3, r2
 8004646:	3304      	adds	r3, #4
 8004648:	617b      	str	r3, [r7, #20]
 800464a:	697b      	ldr	r3, [r7, #20]
 800464c:	78db      	ldrb	r3, [r3, #3]
 800464e:	2b01      	cmp	r3, #1
 8004650:	d108      	bne.n	8004664 <HAL_PCD_IRQHandler+0x442>
 8004652:	697b      	ldr	r3, [r7, #20]
 8004654:	2200      	movs	r2, #0
 8004656:	70da      	strb	r2, [r3, #3]
 8004658:	6a7b      	ldr	r3, [r7, #36]	; 0x24
 800465a:	b2db      	uxtb	r3, r3
 800465c:	4619      	mov	r1, r3
 800465e:	6878      	ldr	r0, [r7, #4]
 8004660:	f006 f9a6 	bl	800a9b0 <HAL_PCD_ISOINIncompleteCallback>
 8004664:	6a7b      	ldr	r3, [r7, #36]	; 0x24
 8004666:	015a      	lsls	r2, r3, #5
 8004668:	69fb      	ldr	r3, [r7, #28]
 800466a:	4413      	add	r3, r2
 800466c:	f503 6310 	add.w	r3, r3, #2304	; 0x900
 8004670:	461a      	mov	r2, r3
 8004672:	2302      	movs	r3, #2
 8004674:	6093      	str	r3, [r2, #8]
 8004676:	693b      	ldr	r3, [r7, #16]
 8004678:	f003 0380 	and.w	r3, r3, #128	; 0x80
 800467c:	2b00      	cmp	r3, #0
 800467e:	d003      	beq.n	8004688 <HAL_PCD_IRQHandler+0x466>
 8004680:	6a79      	ldr	r1, [r7, #36]	; 0x24
 8004682:	6878      	ldr	r0, [r7, #4]
 8004684:	f000 fcbd 	bl	8005002 <PCD_WriteEmptyTxFifo>
 8004688:	6a7b      	ldr	r3, [r7, #36]	; 0x24
 800468a:	3301      	adds	r3, #1
 800468c:	627b      	str	r3, [r7, #36]	; 0x24
 800468e:	6abb      	ldr	r3, [r7, #40]	; 0x28
 8004690:	085b      	lsrs	r3, r3, #1
 8004692:	62bb      	str	r3, [r7, #40]	; 0x28
 8004694:	6abb      	ldr	r3, [r7, #40]	; 0x28
 8004696:	2b00      	cmp	r3, #0
 8004698:	f47f af2e 	bne.w	80044f8 <HAL_PCD_IRQHandler+0x2d6>
 800469c:	687b      	ldr	r3, [r7, #4]
 800469e:	681b      	ldr	r3, [r3, #0]
 80046a0:	4618      	mov	r0, r3
 80046a2:	f003 fcb7 	bl	8008014 <USB_ReadInterrupts>
 80046a6:	4603      	mov	r3, r0
 80046a8:	f003 4300 	and.w	r3, r3, #2147483648	; 0x80000000
 80046ac:	f1b3 4f00 	cmp.w	r3, #2147483648	; 0x80000000
 80046b0:	d122      	bne.n	80046f8 <HAL_PCD_IRQHandler+0x4d6>
 80046b2:	69fb      	ldr	r3, [r7, #28]
 80046b4:	f503 6300 	add.w	r3, r3, #2048	; 0x800
 80046b8:	685b      	ldr	r3, [r3, #4]
 80046ba:	69fa      	ldr	r2, [r7, #28]
 80046bc:	f502 6200 	add.w	r2, r2, #2048	; 0x800
 80046c0:	f023 0301 	bic.w	r3, r3, #1
 80046c4:	6053      	str	r3, [r2, #4]
 80046c6:	687b      	ldr	r3, [r7, #4]
 80046c8:	f893 34cc 	ldrb.w	r3, [r3, #1228]	; 0x4cc
 80046cc:	2b01      	cmp	r3, #1
 80046ce:	d108      	bne.n	80046e2 <HAL_PCD_IRQHandler+0x4c0>
 80046d0:	687b      	ldr	r3, [r7, #4]
 80046d2:	2200      	movs	r2, #0
 80046d4:	f883 24cc 	strb.w	r2, [r3, #1228]	; 0x4cc
 80046d8:	2100      	movs	r1, #0
 80046da:	6878      	ldr	r0, [r7, #4]
 80046dc:	f000 fea4 	bl	8005428 <HAL_PCDEx_LPM_Callback>
 80046e0:	e002      	b.n	80046e8 <HAL_PCD_IRQHandler+0x4c6>
 80046e2:	6878      	ldr	r0, [r7, #4]
 80046e4:	f006 f944 	bl	800a970 <HAL_PCD_ResumeCallback>
 80046e8:	687b      	ldr	r3, [r7, #4]
 80046ea:	681b      	ldr	r3, [r3, #0]
 80046ec:	695a      	ldr	r2, [r3, #20]
 80046ee:	687b      	ldr	r3, [r7, #4]
 80046f0:	681b      	ldr	r3, [r3, #0]
 80046f2:	f002 4200 	and.w	r2, r2, #2147483648	; 0x80000000
 80046f6:	615a      	str	r2, [r3, #20]
 80046f8:	687b      	ldr	r3, [r7, #4]
 80046fa:	681b      	ldr	r3, [r3, #0]
 80046fc:	4618      	mov	r0, r3
 80046fe:	f003 fc89 	bl	8008014 <USB_ReadInterrupts>
 8004702:	4603      	mov	r3, r0
 8004704:	f403 6300 	and.w	r3, r3, #2048	; 0x800
 8004708:	f5b3 6f00 	cmp.w	r3, #2048	; 0x800
 800470c:	d112      	bne.n	8004734 <HAL_PCD_IRQHandler+0x512>
 800470e:	69fb      	ldr	r3, [r7, #28]
 8004710:	f503 6300 	add.w	r3, r3, #2048	; 0x800
 8004714:	689b      	ldr	r3, [r3, #8]
 8004716:	f003 0301 	and.w	r3, r3, #1
 800471a:	2b01      	cmp	r3, #1
 800471c:	d102      	bne.n	8004724 <HAL_PCD_IRQHandler+0x502>
 800471e:	6878      	ldr	r0, [r7, #4]
 8004720:	f006 f900 	bl	800a924 <HAL_PCD_SuspendCallback>
 8004724:	687b      	ldr	r3, [r7, #4]
 8004726:	681b      	ldr	r3, [r3, #0]
 8004728:	695a      	ldr	r2, [r3, #20]
 800472a:	687b      	ldr	r3, [r7, #4]
 800472c:	681b      	ldr	r3, [r3, #0]
 800472e:	f402 6200 	and.w	r2, r2, #2048	; 0x800
 8004732:	615a      	str	r2, [r3, #20]
 8004734:	687b      	ldr	r3, [r7, #4]
 8004736:	681b      	ldr	r3, [r3, #0]
 8004738:	4618      	mov	r0, r3
 800473a:	f003 fc6b 	bl	8008014 <USB_ReadInterrupts>
 800473e:	4603      	mov	r3, r0
 8004740:	f403 5380 	and.w	r3, r3, #4096	; 0x1000
 8004744:	f5b3 5f80 	cmp.w	r3, #4096	; 0x1000
 8004748:	f040 80b7 	bne.w	80048ba <HAL_PCD_IRQHandler+0x698>
 800474c:	69fb      	ldr	r3, [r7, #28]
 800474e:	f503 6300 	add.w	r3, r3, #2048	; 0x800
 8004752:	685b      	ldr	r3, [r3, #4]
 8004754:	69fa      	ldr	r2, [r7, #28]
 8004756:	f502 6200 	add.w	r2, r2, #2048	; 0x800
 800475a:	f023 0301 	bic.w	r3, r3, #1
 800475e:	6053      	str	r3, [r2, #4]
 8004760:	687b      	ldr	r3, [r7, #4]
 8004762:	681b      	ldr	r3, [r3, #0]
 8004764:	2110      	movs	r1, #16
 8004766:	4618      	mov	r0, r3
 8004768:	f002 fd38 	bl	80071dc <USB_FlushTxFifo>
 800476c:	2300      	movs	r3, #0
 800476e:	62fb      	str	r3, [r7, #44]	; 0x2c
 8004770:	e046      	b.n	8004800 <HAL_PCD_IRQHandler+0x5de>
 8004772:	6afb      	ldr	r3, [r7, #44]	; 0x2c
 8004774:	015a      	lsls	r2, r3, #5
 8004776:	69fb      	ldr	r3, [r7, #28]
 8004778:	4413      	add	r3, r2
 800477a:	f503 6310 	add.w	r3, r3, #2304	; 0x900
 800477e:	461a      	mov	r2, r3
 8004780:	f64f 337f 	movw	r3, #64383	; 0xfb7f
 8004784:	6093      	str	r3, [r2, #8]
 8004786:	6afb      	ldr	r3, [r7, #44]	; 0x2c
 8004788:	015a      	lsls	r2, r3, #5
 800478a:	69fb      	ldr	r3, [r7, #28]
 800478c:	4413      	add	r3, r2
 800478e:	f503 6310 	add.w	r3, r3, #2304	; 0x900
 8004792:	681b      	ldr	r3, [r3, #0]
 8004794:	6afa      	ldr	r2, [r7, #44]	; 0x2c
 8004796:	0151      	lsls	r1, r2, #5
 8004798:	69fa      	ldr	r2, [r7, #28]
 800479a:	440a      	add	r2, r1
 800479c:	f502 6210 	add.w	r2, r2, #2304	; 0x900
 80047a0:	f423 1300 	bic.w	r3, r3, #2097152	; 0x200000
 80047a4:	6013      	str	r3, [r2, #0]
 80047a6:	6afb      	ldr	r3, [r7, #44]	; 0x2c
 80047a8:	015a      	lsls	r2, r3, #5
 80047aa:	69fb      	ldr	r3, [r7, #28]
 80047ac:	4413      	add	r3, r2
 80047ae:	f503 6330 	add.w	r3, r3, #2816	; 0xb00
 80047b2:	461a      	mov	r2, r3
 80047b4:	f64f 337f 	movw	r3, #64383	; 0xfb7f
 80047b8:	6093      	str	r3, [r2, #8]
 80047ba:	6afb      	ldr	r3, [r7, #44]	; 0x2c
 80047bc:	015a      	lsls	r2, r3, #5
 80047be:	69fb      	ldr	r3, [r7, #28]
 80047c0:	4413      	add	r3, r2
 80047c2:	f503 6330 	add.w	r3, r3, #2816	; 0xb00
 80047c6:	681b      	ldr	r3, [r3, #0]
 80047c8:	6afa      	ldr	r2, [r7, #44]	; 0x2c
 80047ca:	0151      	lsls	r1, r2, #5
 80047cc:	69fa      	ldr	r2, [r7, #28]
 80047ce:	440a      	add	r2, r1
 80047d0:	f502 6230 	add.w	r2, r2, #2816	; 0xb00
 80047d4:	f423 1300 	bic.w	r3, r3, #2097152	; 0x200000
 80047d8:	6013      	str	r3, [r2, #0]
 80047da:	6afb      	ldr	r3, [r7, #44]	; 0x2c
 80047dc:	015a      	lsls	r2, r3, #5
 80047de:	69fb      	ldr	r3, [r7, #28]
 80047e0:	4413      	add	r3, r2
 80047e2:	f503 6330 	add.w	r3, r3, #2816	; 0xb00
 80047e6:	681b      	ldr	r3, [r3, #0]
 80047e8:	6afa      	ldr	r2, [r7, #44]	; 0x2c
 80047ea:	0151      	lsls	r1, r2, #5
 80047ec:	69fa      	ldr	r2, [r7, #28]
 80047ee:	440a      	add	r2, r1
 80047f0:	f502 6230 	add.w	r2, r2, #2816	; 0xb00
 80047f4:	f043 6300 	orr.w	r3, r3, #134217728	; 0x8000000
 80047f8:	6013      	str	r3, [r2, #0]
 80047fa:	6afb      	ldr	r3, [r7, #44]	; 0x2c
 80047fc:	3301      	adds	r3, #1
 80047fe:	62fb      	str	r3, [r7, #44]	; 0x2c
 8004800:	687b      	ldr	r3, [r7, #4]
 8004802:	791b      	ldrb	r3, [r3, #4]
 8004804:	461a      	mov	r2, r3
 8004806:	6afb      	ldr	r3, [r7, #44]	; 0x2c
 8004808:	4293      	cmp	r3, r2
 800480a:	d3b2      	bcc.n	8004772 <HAL_PCD_IRQHandler+0x550>
 800480c:	69fb      	ldr	r3, [r7, #28]
 800480e:	f503 6300 	add.w	r3, r3, #2048	; 0x800
 8004812:	69db      	ldr	r3, [r3, #28]
 8004814:	69fa      	ldr	r2, [r7, #28]
 8004816:	f502 6200 	add.w	r2, r2, #2048	; 0x800
 800481a:	f043 1301 	orr.w	r3, r3, #65537	; 0x10001
 800481e:	61d3      	str	r3, [r2, #28]
 8004820:	687b      	ldr	r3, [r7, #4]
 8004822:	7bdb      	ldrb	r3, [r3, #15]
 8004824:	2b00      	cmp	r3, #0
 8004826:	d016      	beq.n	8004856 <HAL_PCD_IRQHandler+0x634>
 8004828:	69fb      	ldr	r3, [r7, #28]
 800482a:	f503 6300 	add.w	r3, r3, #2048	; 0x800
 800482e:	f8d3 3084 	ldr.w	r3, [r3, #132]	; 0x84
 8004832:	69fa      	ldr	r2, [r7, #28]
 8004834:	f502 6200 	add.w	r2, r2, #2048	; 0x800
 8004838:	f043 030b 	orr.w	r3, r3, #11
 800483c:	f8c2 3084 	str.w	r3, [r2, #132]	; 0x84
 8004840:	69fb      	ldr	r3, [r7, #28]
 8004842:	f503 6300 	add.w	r3, r3, #2048	; 0x800
 8004846:	6c5b      	ldr	r3, [r3, #68]	; 0x44
 8004848:	69fa      	ldr	r2, [r7, #28]
 800484a:	f502 6200 	add.w	r2, r2, #2048	; 0x800
 800484e:	f043 030b 	orr.w	r3, r3, #11
 8004852:	6453      	str	r3, [r2, #68]	; 0x44
 8004854:	e015      	b.n	8004882 <HAL_PCD_IRQHandler+0x660>
 8004856:	69fb      	ldr	r3, [r7, #28]
 8004858:	f503 6300 	add.w	r3, r3, #2048	; 0x800
 800485c:	695b      	ldr	r3, [r3, #20]
 800485e:	69fa      	ldr	r2, [r7, #28]
 8004860:	f502 6200 	add.w	r2, r2, #2048	; 0x800
 8004864:	f443 5300 	orr.w	r3, r3, #8192	; 0x2000
 8004868:	f043 032b 	orr.w	r3, r3, #43	; 0x2b
 800486c:	6153      	str	r3, [r2, #20]
 800486e:	69fb      	ldr	r3, [r7, #28]
 8004870:	f503 6300 	add.w	r3, r3, #2048	; 0x800
 8004874:	691b      	ldr	r3, [r3, #16]
 8004876:	69fa      	ldr	r2, [r7, #28]
 8004878:	f502 6200 	add.w	r2, r2, #2048	; 0x800
 800487c:	f043 030b 	orr.w	r3, r3, #11
 8004880:	6113      	str	r3, [r2, #16]
 8004882:	69fb      	ldr	r3, [r7, #28]
 8004884:	f503 6300 	add.w	r3, r3, #2048	; 0x800
 8004888:	681b      	ldr	r3, [r3, #0]
 800488a:	69fa      	ldr	r2, [r7, #28]
 800488c:	f502 6200 	add.w	r2, r2, #2048	; 0x800
 8004890:	f423 63fe 	bic.w	r3, r3, #2032	; 0x7f0
 8004894:	6013      	str	r3, [r2, #0]
 8004896:	687b      	ldr	r3, [r7, #4]
 8004898:	6818      	ldr	r0, [r3, #0]
 800489a:	687b      	ldr	r3, [r7, #4]
 800489c:	7999      	ldrb	r1, [r3, #6]
 800489e:	687b      	ldr	r3, [r7, #4]
 80048a0:	f203 439c 	addw	r3, r3, #1180	; 0x49c
 80048a4:	461a      	mov	r2, r3
 80048a6:	f003 fc79 	bl	800819c <USB_EP0_OutStart>
 80048aa:	687b      	ldr	r3, [r7, #4]
 80048ac:	681b      	ldr	r3, [r3, #0]
 80048ae:	695a      	ldr	r2, [r3, #20]
 80048b0:	687b      	ldr	r3, [r7, #4]
 80048b2:	681b      	ldr	r3, [r3, #0]
 80048b4:	f402 5280 	and.w	r2, r2, #4096	; 0x1000
 80048b8:	615a      	str	r2, [r3, #20]
 80048ba:	687b      	ldr	r3, [r7, #4]
 80048bc:	681b      	ldr	r3, [r3, #0]
 80048be:	4618      	mov	r0, r3
 80048c0:	f003 fba8 	bl	8008014 <USB_ReadInterrupts>
 80048c4:	4603      	mov	r3, r0
 80048c6:	f403 5300 	and.w	r3, r3, #8192	; 0x2000
 80048ca:	f5b3 5f00 	cmp.w	r3, #8192	; 0x2000
 80048ce:	d123      	bne.n	8004918 <HAL_PCD_IRQHandler+0x6f6>
 80048d0:	687b      	ldr	r3, [r7, #4]
 80048d2:	681b      	ldr	r3, [r3, #0]
 80048d4:	4618      	mov	r0, r3
 80048d6:	f003 fc3e 	bl	8008156 <USB_ActivateSetup>
 80048da:	687b      	ldr	r3, [r7, #4]
 80048dc:	681b      	ldr	r3, [r3, #0]
 80048de:	4618      	mov	r0, r3
 80048e0:	f002 fcf5 	bl	80072ce <USB_GetDevSpeed>
 80048e4:	4603      	mov	r3, r0
 80048e6:	461a      	mov	r2, r3
 80048e8:	687b      	ldr	r3, [r7, #4]
 80048ea:	71da      	strb	r2, [r3, #7]
 80048ec:	687b      	ldr	r3, [r7, #4]
 80048ee:	681c      	ldr	r4, [r3, #0]
 80048f0:	f001 f9ca 	bl	8005c88 <HAL_RCC_GetHCLKFreq>
 80048f4:	4601      	mov	r1, r0
 80048f6:	687b      	ldr	r3, [r7, #4]
 80048f8:	79db      	ldrb	r3, [r3, #7]
 80048fa:	461a      	mov	r2, r3
 80048fc:	4620      	mov	r0, r4
 80048fe:	f002 f9f9 	bl	8006cf4 <USB_SetTurnaroundTime>
 8004902:	6878      	ldr	r0, [r7, #4]
 8004904:	f005 ffef 	bl	800a8e6 <HAL_PCD_ResetCallback>
 8004908:	687b      	ldr	r3, [r7, #4]
 800490a:	681b      	ldr	r3, [r3, #0]
 800490c:	695a      	ldr	r2, [r3, #20]
 800490e:	687b      	ldr	r3, [r7, #4]
 8004910:	681b      	ldr	r3, [r3, #0]
 8004912:	f402 5200 	and.w	r2, r2, #8192	; 0x2000
 8004916:	615a      	str	r2, [r3, #20]
 8004918:	687b      	ldr	r3, [r7, #4]
 800491a:	681b      	ldr	r3, [r3, #0]
 800491c:	4618      	mov	r0, r3
 800491e:	f003 fb79 	bl	8008014 <USB_ReadInterrupts>
 8004922:	4603      	mov	r3, r0
 8004924:	f003 0308 	and.w	r3, r3, #8
 8004928:	2b08      	cmp	r3, #8
 800492a:	d10a      	bne.n	8004942 <HAL_PCD_IRQHandler+0x720>
 800492c:	6878      	ldr	r0, [r7, #4]
 800492e:	f005 ffcc 	bl	800a8ca <HAL_PCD_SOFCallback>
 8004932:	687b      	ldr	r3, [r7, #4]
 8004934:	681b      	ldr	r3, [r3, #0]
 8004936:	695a      	ldr	r2, [r3, #20]
 8004938:	687b      	ldr	r3, [r7, #4]
 800493a:	681b      	ldr	r3, [r3, #0]
 800493c:	f002 0208 	and.w	r2, r2, #8
 8004940:	615a      	str	r2, [r3, #20]
 8004942:	687b      	ldr	r3, [r7, #4]
 8004944:	681b      	ldr	r3, [r3, #0]
 8004946:	4618      	mov	r0, r3
 8004948:	f003 fb64 	bl	8008014 <USB_ReadInterrupts>
 800494c:	4603      	mov	r3, r0
 800494e:	f003 0380 	and.w	r3, r3, #128	; 0x80
 8004952:	2b80      	cmp	r3, #128	; 0x80
 8004954:	d123      	bne.n	800499e <HAL_PCD_IRQHandler+0x77c>
 8004956:	6a3b      	ldr	r3, [r7, #32]
 8004958:	699b      	ldr	r3, [r3, #24]
 800495a:	f023 0280 	bic.w	r2, r3, #128	; 0x80
 800495e:	6a3b      	ldr	r3, [r7, #32]
 8004960:	619a      	str	r2, [r3, #24]
 8004962:	2301      	movs	r3, #1
 8004964:	627b      	str	r3, [r7, #36]	; 0x24
 8004966:	e014      	b.n	8004992 <HAL_PCD_IRQHandler+0x770>
 8004968:	6879      	ldr	r1, [r7, #4]
 800496a:	6a7a      	ldr	r2, [r7, #36]	; 0x24
 800496c:	4613      	mov	r3, r2
 800496e:	00db      	lsls	r3, r3, #3
 8004970:	4413      	add	r3, r2
 8004972:	009b      	lsls	r3, r3, #2
 8004974:	440b      	add	r3, r1
 8004976:	f203 2357 	addw	r3, r3, #599	; 0x257
 800497a:	781b      	ldrb	r3, [r3, #0]
 800497c:	2b01      	cmp	r3, #1
 800497e:	d105      	bne.n	800498c <HAL_PCD_IRQHandler+0x76a>
 8004980:	6a7b      	ldr	r3, [r7, #36]	; 0x24
 8004982:	b2db      	uxtb	r3, r3
 8004984:	4619      	mov	r1, r3
 8004986:	6878      	ldr	r0, [r7, #4]
 8004988:	f000 fb0a 	bl	8004fa0 <HAL_PCD_EP_Abort>
 800498c:	6a7b      	ldr	r3, [r7, #36]	; 0x24
 800498e:	3301      	adds	r3, #1
 8004990:	627b      	str	r3, [r7, #36]	; 0x24
 8004992:	687b      	ldr	r3, [r7, #4]
 8004994:	791b      	ldrb	r3, [r3, #4]
 8004996:	461a      	mov	r2, r3
 8004998:	6a7b      	ldr	r3, [r7, #36]	; 0x24
 800499a:	4293      	cmp	r3, r2
 800499c:	d3e4      	bcc.n	8004968 <HAL_PCD_IRQHandler+0x746>
 800499e:	687b      	ldr	r3, [r7, #4]
 80049a0:	681b      	ldr	r3, [r3, #0]
 80049a2:	4618      	mov	r0, r3
 80049a4:	f003 fb36 	bl	8008014 <USB_ReadInterrupts>
 80049a8:	4603      	mov	r3, r0
 80049aa:	f403 1380 	and.w	r3, r3, #1048576	; 0x100000
 80049ae:	f5b3 1f80 	cmp.w	r3, #1048576	; 0x100000
 80049b2:	d13c      	bne.n	8004a2e <HAL_PCD_IRQHandler+0x80c>
 80049b4:	2301      	movs	r3, #1
 80049b6:	627b      	str	r3, [r7, #36]	; 0x24
 80049b8:	e02b      	b.n	8004a12 <HAL_PCD_IRQHandler+0x7f0>
 80049ba:	6a7b      	ldr	r3, [r7, #36]	; 0x24
 80049bc:	015a      	lsls	r2, r3, #5
 80049be:	69fb      	ldr	r3, [r7, #28]
 80049c0:	4413      	add	r3, r2
 80049c2:	f503 6310 	add.w	r3, r3, #2304	; 0x900
 80049c6:	681b      	ldr	r3, [r3, #0]
 80049c8:	61bb      	str	r3, [r7, #24]
 80049ca:	6879      	ldr	r1, [r7, #4]
 80049cc:	6a7a      	ldr	r2, [r7, #36]	; 0x24
 80049ce:	4613      	mov	r3, r2
 80049d0:	00db      	lsls	r3, r3, #3
 80049d2:	4413      	add	r3, r2
 80049d4:	009b      	lsls	r3, r3, #2
 80049d6:	440b      	add	r3, r1
 80049d8:	3318      	adds	r3, #24
 80049da:	781b      	ldrb	r3, [r3, #0]
 80049dc:	2b01      	cmp	r3, #1
 80049de:	d115      	bne.n	8004a0c <HAL_PCD_IRQHandler+0x7ea>
 80049e0:	69bb      	ldr	r3, [r7, #24]
 80049e2:	2b00      	cmp	r3, #0
 80049e4:	da12      	bge.n	8004a0c <HAL_PCD_IRQHandler+0x7ea>
 80049e6:	6879      	ldr	r1, [r7, #4]
 80049e8:	6a7a      	ldr	r2, [r7, #36]	; 0x24
 80049ea:	4613      	mov	r3, r2
 80049ec:	00db      	lsls	r3, r3, #3
 80049ee:	4413      	add	r3, r2
 80049f0:	009b      	lsls	r3, r3, #2
 80049f2:	440b      	add	r3, r1
 80049f4:	3317      	adds	r3, #23
 80049f6:	2201      	movs	r2, #1
 80049f8:	701a      	strb	r2, [r3, #0]
 80049fa:	6a7b      	ldr	r3, [r7, #36]	; 0x24
 80049fc:	b2db      	uxtb	r3, r3
 80049fe:	f063 037f 	orn	r3, r3, #127	; 0x7f
 8004a02:	b2db      	uxtb	r3, r3
 8004a04:	4619      	mov	r1, r3
 8004a06:	6878      	ldr	r0, [r7, #4]
 8004a08:	f000 faca 	bl	8004fa0 <HAL_PCD_EP_Abort>
 8004a0c:	6a7b      	ldr	r3, [r7, #36]	; 0x24
 8004a0e:	3301      	adds	r3, #1
 8004a10:	627b      	str	r3, [r7, #36]	; 0x24
 8004a12:	687b      	ldr	r3, [r7, #4]
 8004a14:	791b      	ldrb	r3, [r3, #4]
 8004a16:	461a      	mov	r2, r3
 8004a18:	6a7b      	ldr	r3, [r7, #36]	; 0x24
 8004a1a:	4293      	cmp	r3, r2
 8004a1c:	d3cd      	bcc.n	80049ba <HAL_PCD_IRQHandler+0x798>
 8004a1e:	687b      	ldr	r3, [r7, #4]
 8004a20:	681b      	ldr	r3, [r3, #0]
 8004a22:	695a      	ldr	r2, [r3, #20]
 8004a24:	687b      	ldr	r3, [r7, #4]
 8004a26:	681b      	ldr	r3, [r3, #0]
 8004a28:	f402 1280 	and.w	r2, r2, #1048576	; 0x100000
 8004a2c:	615a      	str	r2, [r3, #20]
 8004a2e:	687b      	ldr	r3, [r7, #4]
 8004a30:	681b      	ldr	r3, [r3, #0]
 8004a32:	4618      	mov	r0, r3
 8004a34:	f003 faee 	bl	8008014 <USB_ReadInterrupts>
 8004a38:	4603      	mov	r3, r0
 8004a3a:	f403 1300 	and.w	r3, r3, #2097152	; 0x200000
 8004a3e:	f5b3 1f00 	cmp.w	r3, #2097152	; 0x200000
 8004a42:	d156      	bne.n	8004af2 <HAL_PCD_IRQHandler+0x8d0>
 8004a44:	2301      	movs	r3, #1
 8004a46:	627b      	str	r3, [r7, #36]	; 0x24
 8004a48:	e045      	b.n	8004ad6 <HAL_PCD_IRQHandler+0x8b4>
 8004a4a:	6a7b      	ldr	r3, [r7, #36]	; 0x24
 8004a4c:	015a      	lsls	r2, r3, #5
 8004a4e:	69fb      	ldr	r3, [r7, #28]
 8004a50:	4413      	add	r3, r2
 8004a52:	f503 6330 	add.w	r3, r3, #2816	; 0xb00
 8004a56:	681b      	ldr	r3, [r3, #0]
 8004a58:	61bb      	str	r3, [r7, #24]
 8004a5a:	6879      	ldr	r1, [r7, #4]
 8004a5c:	6a7a      	ldr	r2, [r7, #36]	; 0x24
 8004a5e:	4613      	mov	r3, r2
 8004a60:	00db      	lsls	r3, r3, #3
 8004a62:	4413      	add	r3, r2
 8004a64:	009b      	lsls	r3, r3, #2
 8004a66:	440b      	add	r3, r1
 8004a68:	f503 7316 	add.w	r3, r3, #600	; 0x258
 8004a6c:	781b      	ldrb	r3, [r3, #0]
 8004a6e:	2b01      	cmp	r3, #1
 8004a70:	d12e      	bne.n	8004ad0 <HAL_PCD_IRQHandler+0x8ae>
 8004a72:	69bb      	ldr	r3, [r7, #24]
 8004a74:	2b00      	cmp	r3, #0
 8004a76:	da2b      	bge.n	8004ad0 <HAL_PCD_IRQHandler+0x8ae>
 8004a78:	69bb      	ldr	r3, [r7, #24]
 8004a7a:	0c1a      	lsrs	r2, r3, #16
 8004a7c:	687b      	ldr	r3, [r7, #4]
 8004a7e:	f8d3 34d4 	ldr.w	r3, [r3, #1236]	; 0x4d4
 8004a82:	4053      	eors	r3, r2
 8004a84:	f003 0301 	and.w	r3, r3, #1
 8004a88:	2b00      	cmp	r3, #0
 8004a8a:	d121      	bne.n	8004ad0 <HAL_PCD_IRQHandler+0x8ae>
 8004a8c:	6879      	ldr	r1, [r7, #4]
 8004a8e:	6a7a      	ldr	r2, [r7, #36]	; 0x24
 8004a90:	4613      	mov	r3, r2
 8004a92:	00db      	lsls	r3, r3, #3
 8004a94:	4413      	add	r3, r2
 8004a96:	009b      	lsls	r3, r3, #2
 8004a98:	440b      	add	r3, r1
 8004a9a:	f203 2357 	addw	r3, r3, #599	; 0x257
 8004a9e:	2201      	movs	r2, #1
 8004aa0:	701a      	strb	r2, [r3, #0]
 8004aa2:	6a3b      	ldr	r3, [r7, #32]
 8004aa4:	699b      	ldr	r3, [r3, #24]
 8004aa6:	f043 0280 	orr.w	r2, r3, #128	; 0x80
 8004aaa:	6a3b      	ldr	r3, [r7, #32]
 8004aac:	619a      	str	r2, [r3, #24]
 8004aae:	6a3b      	ldr	r3, [r7, #32]
 8004ab0:	695b      	ldr	r3, [r3, #20]
 8004ab2:	f003 0380 	and.w	r3, r3, #128	; 0x80
 8004ab6:	2b00      	cmp	r3, #0
 8004ab8:	d10a      	bne.n	8004ad0 <HAL_PCD_IRQHandler+0x8ae>
 8004aba:	69fb      	ldr	r3, [r7, #28]
 8004abc:	f503 6300 	add.w	r3, r3, #2048	; 0x800
 8004ac0:	685b      	ldr	r3, [r3, #4]
 8004ac2:	69fa      	ldr	r2, [r7, #28]
 8004ac4:	f502 6200 	add.w	r2, r2, #2048	; 0x800
 8004ac8:	f443 7300 	orr.w	r3, r3, #512	; 0x200
 8004acc:	6053      	str	r3, [r2, #4]
 8004ace:	e008      	b.n	8004ae2 <HAL_PCD_IRQHandler+0x8c0>
 8004ad0:	6a7b      	ldr	r3, [r7, #36]	; 0x24
 8004ad2:	3301      	adds	r3, #1
 8004ad4:	627b      	str	r3, [r7, #36]	; 0x24
 8004ad6:	687b      	ldr	r3, [r7, #4]
 8004ad8:	791b      	ldrb	r3, [r3, #4]
 8004ada:	461a      	mov	r2, r3
 8004adc:	6a7b      	ldr	r3, [r7, #36]	; 0x24
 8004ade:	4293      	cmp	r3, r2
 8004ae0:	d3b3      	bcc.n	8004a4a <HAL_PCD_IRQHandler+0x828>
 8004ae2:	687b      	ldr	r3, [r7, #4]
 8004ae4:	681b      	ldr	r3, [r3, #0]
 8004ae6:	695a      	ldr	r2, [r3, #20]
 8004ae8:	687b      	ldr	r3, [r7, #4]
 8004aea:	681b      	ldr	r3, [r3, #0]
 8004aec:	f402 1200 	and.w	r2, r2, #2097152	; 0x200000
 8004af0:	615a      	str	r2, [r3, #20]
 8004af2:	687b      	ldr	r3, [r7, #4]
 8004af4:	681b      	ldr	r3, [r3, #0]
 8004af6:	4618      	mov	r0, r3
 8004af8:	f003 fa8c 	bl	8008014 <USB_ReadInterrupts>
 8004afc:	4603      	mov	r3, r0
 8004afe:	f003 4380 	and.w	r3, r3, #1073741824	; 0x40000000
 8004b02:	f1b3 4f80 	cmp.w	r3, #1073741824	; 0x40000000
 8004b06:	d10a      	bne.n	8004b1e <HAL_PCD_IRQHandler+0x8fc>
 8004b08:	6878      	ldr	r0, [r7, #4]
 8004b0a:	f005 ff63 	bl	800a9d4 <HAL_PCD_ConnectCallback>
 8004b0e:	687b      	ldr	r3, [r7, #4]
 8004b10:	681b      	ldr	r3, [r3, #0]
 8004b12:	695a      	ldr	r2, [r3, #20]
 8004b14:	687b      	ldr	r3, [r7, #4]
 8004b16:	681b      	ldr	r3, [r3, #0]
 8004b18:	f002 4280 	and.w	r2, r2, #1073741824	; 0x40000000
 8004b1c:	615a      	str	r2, [r3, #20]
 8004b1e:	687b      	ldr	r3, [r7, #4]
 8004b20:	681b      	ldr	r3, [r3, #0]
 8004b22:	4618      	mov	r0, r3
 8004b24:	f003 fa76 	bl	8008014 <USB_ReadInterrupts>
 8004b28:	4603      	mov	r3, r0
 8004b2a:	f003 0304 	and.w	r3, r3, #4
 8004b2e:	2b04      	cmp	r3, #4
 8004b30:	d115      	bne.n	8004b5e <HAL_PCD_IRQHandler+0x93c>
 8004b32:	687b      	ldr	r3, [r7, #4]
 8004b34:	681b      	ldr	r3, [r3, #0]
 8004b36:	685b      	ldr	r3, [r3, #4]
 8004b38:	61bb      	str	r3, [r7, #24]
 8004b3a:	69bb      	ldr	r3, [r7, #24]
 8004b3c:	f003 0304 	and.w	r3, r3, #4
 8004b40:	2b00      	cmp	r3, #0
 8004b42:	d002      	beq.n	8004b4a <HAL_PCD_IRQHandler+0x928>
 8004b44:	6878      	ldr	r0, [r7, #4]
 8004b46:	f005 ff53 	bl	800a9f0 <HAL_PCD_DisconnectCallback>
 8004b4a:	687b      	ldr	r3, [r7, #4]
 8004b4c:	681b      	ldr	r3, [r3, #0]
 8004b4e:	6859      	ldr	r1, [r3, #4]
 8004b50:	687b      	ldr	r3, [r7, #4]
 8004b52:	681b      	ldr	r3, [r3, #0]
 8004b54:	69ba      	ldr	r2, [r7, #24]
 8004b56:	430a      	orrs	r2, r1
 8004b58:	605a      	str	r2, [r3, #4]
 8004b5a:	e000      	b.n	8004b5e <HAL_PCD_IRQHandler+0x93c>
 8004b5c:	bf00      	nop
 8004b5e:	3734      	adds	r7, #52	; 0x34
 8004b60:	46bd      	mov	sp, r7
 8004b62:	bd90      	pop	{r4, r7, pc}

08004b64 <HAL_PCD_SetAddress>:
 8004b64:	b580      	push	{r7, lr}
 8004b66:	b082      	sub	sp, #8
 8004b68:	af00      	add	r7, sp, #0
 8004b6a:	6078      	str	r0, [r7, #4]
 8004b6c:	460b      	mov	r3, r1
 8004b6e:	70fb      	strb	r3, [r7, #3]
 8004b70:	687b      	ldr	r3, [r7, #4]
 8004b72:	f893 3494 	ldrb.w	r3, [r3, #1172]	; 0x494
 8004b76:	2b01      	cmp	r3, #1
 8004b78:	d101      	bne.n	8004b7e <HAL_PCD_SetAddress+0x1a>
 8004b7a:	2302      	movs	r3, #2
 8004b7c:	e012      	b.n	8004ba4 <HAL_PCD_SetAddress+0x40>
 8004b7e:	687b      	ldr	r3, [r7, #4]
 8004b80:	2201      	movs	r2, #1
 8004b82:	f883 2494 	strb.w	r2, [r3, #1172]	; 0x494
 8004b86:	687b      	ldr	r3, [r7, #4]
 8004b88:	78fa      	ldrb	r2, [r7, #3]
 8004b8a:	745a      	strb	r2, [r3, #17]
 8004b8c:	687b      	ldr	r3, [r7, #4]
 8004b8e:	681b      	ldr	r3, [r3, #0]
 8004b90:	78fa      	ldrb	r2, [r7, #3]
 8004b92:	4611      	mov	r1, r2
 8004b94:	4618      	mov	r0, r3
 8004b96:	f003 f9d5 	bl	8007f44 <USB_SetDevAddress>
 8004b9a:	687b      	ldr	r3, [r7, #4]
 8004b9c:	2200      	movs	r2, #0
 8004b9e:	f883 2494 	strb.w	r2, [r3, #1172]	; 0x494
 8004ba2:	2300      	movs	r3, #0
 8004ba4:	4618      	mov	r0, r3
 8004ba6:	3708      	adds	r7, #8
 8004ba8:	46bd      	mov	sp, r7
 8004baa:	bd80      	pop	{r7, pc}

08004bac <HAL_PCD_EP_Open>:
 8004bac:	b580      	push	{r7, lr}
 8004bae:	b084      	sub	sp, #16
 8004bb0:	af00      	add	r7, sp, #0
 8004bb2:	6078      	str	r0, [r7, #4]
 8004bb4:	4608      	mov	r0, r1
 8004bb6:	4611      	mov	r1, r2
 8004bb8:	461a      	mov	r2, r3
 8004bba:	4603      	mov	r3, r0
 8004bbc:	70fb      	strb	r3, [r7, #3]
 8004bbe:	460b      	mov	r3, r1
 8004bc0:	803b      	strh	r3, [r7, #0]
 8004bc2:	4613      	mov	r3, r2
 8004bc4:	70bb      	strb	r3, [r7, #2]
 8004bc6:	2300      	movs	r3, #0
 8004bc8:	72fb      	strb	r3, [r7, #11]
 8004bca:	f997 3003 	ldrsb.w	r3, [r7, #3]
 8004bce:	2b00      	cmp	r3, #0
 8004bd0:	da0f      	bge.n	8004bf2 <HAL_PCD_EP_Open+0x46>
 8004bd2:	78fb      	ldrb	r3, [r7, #3]
 8004bd4:	f003 020f 	and.w	r2, r3, #15
 8004bd8:	4613      	mov	r3, r2
 8004bda:	00db      	lsls	r3, r3, #3
 8004bdc:	4413      	add	r3, r2
 8004bde:	009b      	lsls	r3, r3, #2
 8004be0:	3310      	adds	r3, #16
 8004be2:	687a      	ldr	r2, [r7, #4]
 8004be4:	4413      	add	r3, r2
 8004be6:	3304      	adds	r3, #4
 8004be8:	60fb      	str	r3, [r7, #12]
 8004bea:	68fb      	ldr	r3, [r7, #12]
 8004bec:	2201      	movs	r2, #1
 8004bee:	705a      	strb	r2, [r3, #1]
 8004bf0:	e00f      	b.n	8004c12 <HAL_PCD_EP_Open+0x66>
 8004bf2:	78fb      	ldrb	r3, [r7, #3]
 8004bf4:	f003 020f 	and.w	r2, r3, #15
 8004bf8:	4613      	mov	r3, r2
 8004bfa:	00db      	lsls	r3, r3, #3
 8004bfc:	4413      	add	r3, r2
 8004bfe:	009b      	lsls	r3, r3, #2
 8004c00:	f503 7314 	add.w	r3, r3, #592	; 0x250
 8004c04:	687a      	ldr	r2, [r7, #4]
 8004c06:	4413      	add	r3, r2
 8004c08:	3304      	adds	r3, #4
 8004c0a:	60fb      	str	r3, [r7, #12]
 8004c0c:	68fb      	ldr	r3, [r7, #12]
 8004c0e:	2200      	movs	r2, #0
 8004c10:	705a      	strb	r2, [r3, #1]
 8004c12:	78fb      	ldrb	r3, [r7, #3]
 8004c14:	f003 030f 	and.w	r3, r3, #15
 8004c18:	b2da      	uxtb	r2, r3
 8004c1a:	68fb      	ldr	r3, [r7, #12]
 8004c1c:	701a      	strb	r2, [r3, #0]
 8004c1e:	883b      	ldrh	r3, [r7, #0]
 8004c20:	f3c3 020a 	ubfx	r2, r3, #0, #11
 8004c24:	68fb      	ldr	r3, [r7, #12]
 8004c26:	609a      	str	r2, [r3, #8]
 8004c28:	68fb      	ldr	r3, [r7, #12]
 8004c2a:	78ba      	ldrb	r2, [r7, #2]
 8004c2c:	711a      	strb	r2, [r3, #4]
 8004c2e:	68fb      	ldr	r3, [r7, #12]
 8004c30:	785b      	ldrb	r3, [r3, #1]
 8004c32:	2b00      	cmp	r3, #0
 8004c34:	d004      	beq.n	8004c40 <HAL_PCD_EP_Open+0x94>
 8004c36:	68fb      	ldr	r3, [r7, #12]
 8004c38:	781b      	ldrb	r3, [r3, #0]
 8004c3a:	b29a      	uxth	r2, r3
 8004c3c:	68fb      	ldr	r3, [r7, #12]
 8004c3e:	835a      	strh	r2, [r3, #26]
 8004c40:	78bb      	ldrb	r3, [r7, #2]
 8004c42:	2b02      	cmp	r3, #2
 8004c44:	d102      	bne.n	8004c4c <HAL_PCD_EP_Open+0xa0>
 8004c46:	68fb      	ldr	r3, [r7, #12]
 8004c48:	2200      	movs	r2, #0
 8004c4a:	715a      	strb	r2, [r3, #5]
 8004c4c:	687b      	ldr	r3, [r7, #4]
 8004c4e:	f893 3494 	ldrb.w	r3, [r3, #1172]	; 0x494
 8004c52:	2b01      	cmp	r3, #1
 8004c54:	d101      	bne.n	8004c5a <HAL_PCD_EP_Open+0xae>
 8004c56:	2302      	movs	r3, #2
 8004c58:	e00e      	b.n	8004c78 <HAL_PCD_EP_Open+0xcc>
 8004c5a:	687b      	ldr	r3, [r7, #4]
 8004c5c:	2201      	movs	r2, #1
 8004c5e:	f883 2494 	strb.w	r2, [r3, #1172]	; 0x494
 8004c62:	687b      	ldr	r3, [r7, #4]
 8004c64:	681b      	ldr	r3, [r3, #0]
 8004c66:	68f9      	ldr	r1, [r7, #12]
 8004c68:	4618      	mov	r0, r3
 8004c6a:	f002 fb55 	bl	8007318 <USB_ActivateEndpoint>
 8004c6e:	687b      	ldr	r3, [r7, #4]
 8004c70:	2200      	movs	r2, #0
 8004c72:	f883 2494 	strb.w	r2, [r3, #1172]	; 0x494
 8004c76:	7afb      	ldrb	r3, [r7, #11]
 8004c78:	4618      	mov	r0, r3
 8004c7a:	3710      	adds	r7, #16
 8004c7c:	46bd      	mov	sp, r7
 8004c7e:	bd80      	pop	{r7, pc}

08004c80 <HAL_PCD_EP_Close>:
 8004c80:	b580      	push	{r7, lr}
 8004c82:	b084      	sub	sp, #16
 8004c84:	af00      	add	r7, sp, #0
 8004c86:	6078      	str	r0, [r7, #4]
 8004c88:	460b      	mov	r3, r1
 8004c8a:	70fb      	strb	r3, [r7, #3]
 8004c8c:	f997 3003 	ldrsb.w	r3, [r7, #3]
 8004c90:	2b00      	cmp	r3, #0
 8004c92:	da0f      	bge.n	8004cb4 <HAL_PCD_EP_Close+0x34>
 8004c94:	78fb      	ldrb	r3, [r7, #3]
 8004c96:	f003 020f 	and.w	r2, r3, #15
 8004c9a:	4613      	mov	r3, r2
 8004c9c:	00db      	lsls	r3, r3, #3
 8004c9e:	4413      	add	r3, r2
 8004ca0:	009b      	lsls	r3, r3, #2
 8004ca2:	3310      	adds	r3, #16
 8004ca4:	687a      	ldr	r2, [r7, #4]
 8004ca6:	4413      	add	r3, r2
 8004ca8:	3304      	adds	r3, #4
 8004caa:	60fb      	str	r3, [r7, #12]
 8004cac:	68fb      	ldr	r3, [r7, #12]
 8004cae:	2201      	movs	r2, #1
 8004cb0:	705a      	strb	r2, [r3, #1]
 8004cb2:	e00f      	b.n	8004cd4 <HAL_PCD_EP_Close+0x54>
 8004cb4:	78fb      	ldrb	r3, [r7, #3]
 8004cb6:	f003 020f 	and.w	r2, r3, #15
 8004cba:	4613      	mov	r3, r2
 8004cbc:	00db      	lsls	r3, r3, #3
 8004cbe:	4413      	add	r3, r2
 8004cc0:	009b      	lsls	r3, r3, #2
 8004cc2:	f503 7314 	add.w	r3, r3, #592	; 0x250
 8004cc6:	687a      	ldr	r2, [r7, #4]
 8004cc8:	4413      	add	r3, r2
 8004cca:	3304      	adds	r3, #4
 8004ccc:	60fb      	str	r3, [r7, #12]
 8004cce:	68fb      	ldr	r3, [r7, #12]
 8004cd0:	2200      	movs	r2, #0
 8004cd2:	705a      	strb	r2, [r3, #1]
 8004cd4:	78fb      	ldrb	r3, [r7, #3]
 8004cd6:	f003 030f 	and.w	r3, r3, #15
 8004cda:	b2da      	uxtb	r2, r3
 8004cdc:	68fb      	ldr	r3, [r7, #12]
 8004cde:	701a      	strb	r2, [r3, #0]
 8004ce0:	687b      	ldr	r3, [r7, #4]
 8004ce2:	f893 3494 	ldrb.w	r3, [r3, #1172]	; 0x494
 8004ce6:	2b01      	cmp	r3, #1
 8004ce8:	d101      	bne.n	8004cee <HAL_PCD_EP_Close+0x6e>
 8004cea:	2302      	movs	r3, #2
 8004cec:	e00e      	b.n	8004d0c <HAL_PCD_EP_Close+0x8c>
 8004cee:	687b      	ldr	r3, [r7, #4]
 8004cf0:	2201      	movs	r2, #1
 8004cf2:	f883 2494 	strb.w	r2, [r3, #1172]	; 0x494
 8004cf6:	687b      	ldr	r3, [r7, #4]
 8004cf8:	681b      	ldr	r3, [r3, #0]
 8004cfa:	68f9      	ldr	r1, [r7, #12]
 8004cfc:	4618      	mov	r0, r3
 8004cfe:	f002 fb93 	bl	8007428 <USB_DeactivateEndpoint>
 8004d02:	687b      	ldr	r3, [r7, #4]
 8004d04:	2200      	movs	r2, #0
 8004d06:	f883 2494 	strb.w	r2, [r3, #1172]	; 0x494
 8004d0a:	2300      	movs	r3, #0
 8004d0c:	4618      	mov	r0, r3
 8004d0e:	3710      	adds	r7, #16
 8004d10:	46bd      	mov	sp, r7
 8004d12:	bd80      	pop	{r7, pc}

08004d14 <HAL_PCD_EP_Receive>:
 8004d14:	b580      	push	{r7, lr}
 8004d16:	b086      	sub	sp, #24
 8004d18:	af00      	add	r7, sp, #0
 8004d1a:	60f8      	str	r0, [r7, #12]
 8004d1c:	607a      	str	r2, [r7, #4]
 8004d1e:	603b      	str	r3, [r7, #0]
 8004d20:	460b      	mov	r3, r1
 8004d22:	72fb      	strb	r3, [r7, #11]
 8004d24:	7afb      	ldrb	r3, [r7, #11]
 8004d26:	f003 020f 	and.w	r2, r3, #15
 8004d2a:	4613      	mov	r3, r2
 8004d2c:	00db      	lsls	r3, r3, #3
 8004d2e:	4413      	add	r3, r2
 8004d30:	009b      	lsls	r3, r3, #2
 8004d32:	f503 7314 	add.w	r3, r3, #592	; 0x250
 8004d36:	68fa      	ldr	r2, [r7, #12]
 8004d38:	4413      	add	r3, r2
 8004d3a:	3304      	adds	r3, #4
 8004d3c:	617b      	str	r3, [r7, #20]
 8004d3e:	697b      	ldr	r3, [r7, #20]
 8004d40:	687a      	ldr	r2, [r7, #4]
 8004d42:	60da      	str	r2, [r3, #12]
 8004d44:	697b      	ldr	r3, [r7, #20]
 8004d46:	683a      	ldr	r2, [r7, #0]
 8004d48:	611a      	str	r2, [r3, #16]
 8004d4a:	697b      	ldr	r3, [r7, #20]
 8004d4c:	2200      	movs	r2, #0
 8004d4e:	615a      	str	r2, [r3, #20]
 8004d50:	697b      	ldr	r3, [r7, #20]
 8004d52:	2200      	movs	r2, #0
 8004d54:	705a      	strb	r2, [r3, #1]
 8004d56:	7afb      	ldrb	r3, [r7, #11]
 8004d58:	f003 030f 	and.w	r3, r3, #15
 8004d5c:	b2da      	uxtb	r2, r3
 8004d5e:	697b      	ldr	r3, [r7, #20]
 8004d60:	701a      	strb	r2, [r3, #0]
 8004d62:	68fb      	ldr	r3, [r7, #12]
 8004d64:	799b      	ldrb	r3, [r3, #6]
 8004d66:	2b01      	cmp	r3, #1
 8004d68:	d102      	bne.n	8004d70 <HAL_PCD_EP_Receive+0x5c>
 8004d6a:	687a      	ldr	r2, [r7, #4]
 8004d6c:	697b      	ldr	r3, [r7, #20]
 8004d6e:	61da      	str	r2, [r3, #28]
 8004d70:	68fb      	ldr	r3, [r7, #12]
 8004d72:	6818      	ldr	r0, [r3, #0]
 8004d74:	68fb      	ldr	r3, [r7, #12]
 8004d76:	799b      	ldrb	r3, [r3, #6]
 8004d78:	461a      	mov	r2, r3
 8004d7a:	6979      	ldr	r1, [r7, #20]
 8004d7c:	f002 fc30 	bl	80075e0 <USB_EPStartXfer>
 8004d80:	2300      	movs	r3, #0
 8004d82:	4618      	mov	r0, r3
 8004d84:	3718      	adds	r7, #24
 8004d86:	46bd      	mov	sp, r7
 8004d88:	bd80      	pop	{r7, pc}

08004d8a <HAL_PCD_EP_GetRxCount>:
 8004d8a:	b480      	push	{r7}
 8004d8c:	b083      	sub	sp, #12
 8004d8e:	af00      	add	r7, sp, #0
 8004d90:	6078      	str	r0, [r7, #4]
 8004d92:	460b      	mov	r3, r1
 8004d94:	70fb      	strb	r3, [r7, #3]
 8004d96:	78fb      	ldrb	r3, [r7, #3]
 8004d98:	f003 020f 	and.w	r2, r3, #15
 8004d9c:	6879      	ldr	r1, [r7, #4]
 8004d9e:	4613      	mov	r3, r2
 8004da0:	00db      	lsls	r3, r3, #3
 8004da2:	4413      	add	r3, r2
 8004da4:	009b      	lsls	r3, r3, #2
 8004da6:	440b      	add	r3, r1
 8004da8:	f503 731a 	add.w	r3, r3, #616	; 0x268
 8004dac:	681b      	ldr	r3, [r3, #0]
 8004dae:	4618      	mov	r0, r3
 8004db0:	370c      	adds	r7, #12
 8004db2:	46bd      	mov	sp, r7
 8004db4:	f85d 7b04 	ldr.w	r7, [sp], #4
 8004db8:	4770      	bx	lr

08004dba <HAL_PCD_EP_Transmit>:
 8004dba:	b580      	push	{r7, lr}
 8004dbc:	b086      	sub	sp, #24
 8004dbe:	af00      	add	r7, sp, #0
 8004dc0:	60f8      	str	r0, [r7, #12]
 8004dc2:	607a      	str	r2, [r7, #4]
 8004dc4:	603b      	str	r3, [r7, #0]
 8004dc6:	460b      	mov	r3, r1
 8004dc8:	72fb      	strb	r3, [r7, #11]
 8004dca:	7afb      	ldrb	r3, [r7, #11]
 8004dcc:	f003 020f 	and.w	r2, r3, #15
 8004dd0:	4613      	mov	r3, r2
 8004dd2:	00db      	lsls	r3, r3, #3
 8004dd4:	4413      	add	r3, r2
 8004dd6:	009b      	lsls	r3, r3, #2
 8004dd8:	3310      	adds	r3, #16
 8004dda:	68fa      	ldr	r2, [r7, #12]
 8004ddc:	4413      	add	r3, r2
 8004dde:	3304      	adds	r3, #4
 8004de0:	617b      	str	r3, [r7, #20]
 8004de2:	697b      	ldr	r3, [r7, #20]
 8004de4:	687a      	ldr	r2, [r7, #4]
 8004de6:	60da      	str	r2, [r3, #12]
 8004de8:	697b      	ldr	r3, [r7, #20]
 8004dea:	683a      	ldr	r2, [r7, #0]
 8004dec:	611a      	str	r2, [r3, #16]
 8004dee:	697b      	ldr	r3, [r7, #20]
 8004df0:	2200      	movs	r2, #0
 8004df2:	615a      	str	r2, [r3, #20]
 8004df4:	697b      	ldr	r3, [r7, #20]
 8004df6:	2201      	movs	r2, #1
 8004df8:	705a      	strb	r2, [r3, #1]
 8004dfa:	7afb      	ldrb	r3, [r7, #11]
 8004dfc:	f003 030f 	and.w	r3, r3, #15
 8004e00:	b2da      	uxtb	r2, r3
 8004e02:	697b      	ldr	r3, [r7, #20]
 8004e04:	701a      	strb	r2, [r3, #0]
 8004e06:	68fb      	ldr	r3, [r7, #12]
 8004e08:	799b      	ldrb	r3, [r3, #6]
 8004e0a:	2b01      	cmp	r3, #1
 8004e0c:	d102      	bne.n	8004e14 <HAL_PCD_EP_Transmit+0x5a>
 8004e0e:	687a      	ldr	r2, [r7, #4]
 8004e10:	697b      	ldr	r3, [r7, #20]
 8004e12:	61da      	str	r2, [r3, #28]
 8004e14:	68fb      	ldr	r3, [r7, #12]
 8004e16:	6818      	ldr	r0, [r3, #0]
 8004e18:	68fb      	ldr	r3, [r7, #12]
 8004e1a:	799b      	ldrb	r3, [r3, #6]
 8004e1c:	461a      	mov	r2, r3
 8004e1e:	6979      	ldr	r1, [r7, #20]
 8004e20:	f002 fbde 	bl	80075e0 <USB_EPStartXfer>
 8004e24:	2300      	movs	r3, #0
 8004e26:	4618      	mov	r0, r3
 8004e28:	3718      	adds	r7, #24
 8004e2a:	46bd      	mov	sp, r7
 8004e2c:	bd80      	pop	{r7, pc}

08004e2e <HAL_PCD_EP_SetStall>:
 8004e2e:	b580      	push	{r7, lr}
 8004e30:	b084      	sub	sp, #16
 8004e32:	af00      	add	r7, sp, #0
 8004e34:	6078      	str	r0, [r7, #4]
 8004e36:	460b      	mov	r3, r1
 8004e38:	70fb      	strb	r3, [r7, #3]
 8004e3a:	78fb      	ldrb	r3, [r7, #3]
 8004e3c:	f003 030f 	and.w	r3, r3, #15
 8004e40:	687a      	ldr	r2, [r7, #4]
 8004e42:	7912      	ldrb	r2, [r2, #4]
 8004e44:	4293      	cmp	r3, r2
 8004e46:	d901      	bls.n	8004e4c <HAL_PCD_EP_SetStall+0x1e>
 8004e48:	2301      	movs	r3, #1
 8004e4a:	e04f      	b.n	8004eec <HAL_PCD_EP_SetStall+0xbe>
 8004e4c:	f997 3003 	ldrsb.w	r3, [r7, #3]
 8004e50:	2b00      	cmp	r3, #0
 8004e52:	da0f      	bge.n	8004e74 <HAL_PCD_EP_SetStall+0x46>
 8004e54:	78fb      	ldrb	r3, [r7, #3]
 8004e56:	f003 020f 	and.w	r2, r3, #15
 8004e5a:	4613      	mov	r3, r2
 8004e5c:	00db      	lsls	r3, r3, #3
 8004e5e:	4413      	add	r3, r2
 8004e60:	009b      	lsls	r3, r3, #2
 8004e62:	3310      	adds	r3, #16
 8004e64:	687a      	ldr	r2, [r7, #4]
 8004e66:	4413      	add	r3, r2
 8004e68:	3304      	adds	r3, #4
 8004e6a:	60fb      	str	r3, [r7, #12]
 8004e6c:	68fb      	ldr	r3, [r7, #12]
 8004e6e:	2201      	movs	r2, #1
 8004e70:	705a      	strb	r2, [r3, #1]
 8004e72:	e00d      	b.n	8004e90 <HAL_PCD_EP_SetStall+0x62>
 8004e74:	78fa      	ldrb	r2, [r7, #3]
 8004e76:	4613      	mov	r3, r2
 8004e78:	00db      	lsls	r3, r3, #3
 8004e7a:	4413      	add	r3, r2
 8004e7c:	009b      	lsls	r3, r3, #2
 8004e7e:	f503 7314 	add.w	r3, r3, #592	; 0x250
 8004e82:	687a      	ldr	r2, [r7, #4]
 8004e84:	4413      	add	r3, r2
 8004e86:	3304      	adds	r3, #4
 8004e88:	60fb      	str	r3, [r7, #12]
 8004e8a:	68fb      	ldr	r3, [r7, #12]
 8004e8c:	2200      	movs	r2, #0
 8004e8e:	705a      	strb	r2, [r3, #1]
 8004e90:	68fb      	ldr	r3, [r7, #12]
 8004e92:	2201      	movs	r2, #1
 8004e94:	709a      	strb	r2, [r3, #2]
 8004e96:	78fb      	ldrb	r3, [r7, #3]
 8004e98:	f003 030f 	and.w	r3, r3, #15
 8004e9c:	b2da      	uxtb	r2, r3
 8004e9e:	68fb      	ldr	r3, [r7, #12]
 8004ea0:	701a      	strb	r2, [r3, #0]
 8004ea2:	687b      	ldr	r3, [r7, #4]
 8004ea4:	f893 3494 	ldrb.w	r3, [r3, #1172]	; 0x494
 8004ea8:	2b01      	cmp	r3, #1
 8004eaa:	d101      	bne.n	8004eb0 <HAL_PCD_EP_SetStall+0x82>
 8004eac:	2302      	movs	r3, #2
 8004eae:	e01d      	b.n	8004eec <HAL_PCD_EP_SetStall+0xbe>
 8004eb0:	687b      	ldr	r3, [r7, #4]
 8004eb2:	2201      	movs	r2, #1
 8004eb4:	f883 2494 	strb.w	r2, [r3, #1172]	; 0x494
 8004eb8:	687b      	ldr	r3, [r7, #4]
 8004eba:	681b      	ldr	r3, [r3, #0]
 8004ebc:	68f9      	ldr	r1, [r7, #12]
 8004ebe:	4618      	mov	r0, r3
 8004ec0:	f002 ff6c 	bl	8007d9c <USB_EPSetStall>
 8004ec4:	78fb      	ldrb	r3, [r7, #3]
 8004ec6:	f003 030f 	and.w	r3, r3, #15
 8004eca:	2b00      	cmp	r3, #0
 8004ecc:	d109      	bne.n	8004ee2 <HAL_PCD_EP_SetStall+0xb4>
 8004ece:	687b      	ldr	r3, [r7, #4]
 8004ed0:	6818      	ldr	r0, [r3, #0]
 8004ed2:	687b      	ldr	r3, [r7, #4]
 8004ed4:	7999      	ldrb	r1, [r3, #6]
 8004ed6:	687b      	ldr	r3, [r7, #4]
 8004ed8:	f203 439c 	addw	r3, r3, #1180	; 0x49c
 8004edc:	461a      	mov	r2, r3
 8004ede:	f003 f95d 	bl	800819c <USB_EP0_OutStart>
 8004ee2:	687b      	ldr	r3, [r7, #4]
 8004ee4:	2200      	movs	r2, #0
 8004ee6:	f883 2494 	strb.w	r2, [r3, #1172]	; 0x494
 8004eea:	2300      	movs	r3, #0
 8004eec:	4618      	mov	r0, r3
 8004eee:	3710      	adds	r7, #16
 8004ef0:	46bd      	mov	sp, r7
 8004ef2:	bd80      	pop	{r7, pc}

08004ef4 <HAL_PCD_EP_ClrStall>:
 8004ef4:	b580      	push	{r7, lr}
 8004ef6:	b084      	sub	sp, #16
 8004ef8:	af00      	add	r7, sp, #0
 8004efa:	6078      	str	r0, [r7, #4]
 8004efc:	460b      	mov	r3, r1
 8004efe:	70fb      	strb	r3, [r7, #3]
 8004f00:	78fb      	ldrb	r3, [r7, #3]
 8004f02:	f003 030f 	and.w	r3, r3, #15
 8004f06:	687a      	ldr	r2, [r7, #4]
 8004f08:	7912      	ldrb	r2, [r2, #4]
 8004f0a:	4293      	cmp	r3, r2
 8004f0c:	d901      	bls.n	8004f12 <HAL_PCD_EP_ClrStall+0x1e>
 8004f0e:	2301      	movs	r3, #1
 8004f10:	e042      	b.n	8004f98 <HAL_PCD_EP_ClrStall+0xa4>
 8004f12:	f997 3003 	ldrsb.w	r3, [r7, #3]
 8004f16:	2b00      	cmp	r3, #0
 8004f18:	da0f      	bge.n	8004f3a <HAL_PCD_EP_ClrStall+0x46>
 8004f1a:	78fb      	ldrb	r3, [r7, #3]
 8004f1c:	f003 020f 	and.w	r2, r3, #15
 8004f20:	4613      	mov	r3, r2
 8004f22:	00db      	lsls	r3, r3, #3
 8004f24:	4413      	add	r3, r2
 8004f26:	009b      	lsls	r3, r3, #2
 8004f28:	3310      	adds	r3, #16
 8004f2a:	687a      	ldr	r2, [r7, #4]
 8004f2c:	4413      	add	r3, r2
 8004f2e:	3304      	adds	r3, #4
 8004f30:	60fb      	str	r3, [r7, #12]
 8004f32:	68fb      	ldr	r3, [r7, #12]
 8004f34:	2201      	movs	r2, #1
 8004f36:	705a      	strb	r2, [r3, #1]
 8004f38:	e00f      	b.n	8004f5a <HAL_PCD_EP_ClrStall+0x66>
 8004f3a:	78fb      	ldrb	r3, [r7, #3]
 8004f3c:	f003 020f 	and.w	r2, r3, #15
 8004f40:	4613      	mov	r3, r2
 8004f42:	00db      	lsls	r3, r3, #3
 8004f44:	4413      	add	r3, r2
 8004f46:	009b      	lsls	r3, r3, #2
 8004f48:	f503 7314 	add.w	r3, r3, #592	; 0x250
 8004f4c:	687a      	ldr	r2, [r7, #4]
 8004f4e:	4413      	add	r3, r2
 8004f50:	3304      	adds	r3, #4
 8004f52:	60fb      	str	r3, [r7, #12]
 8004f54:	68fb      	ldr	r3, [r7, #12]
 8004f56:	2200      	movs	r2, #0
 8004f58:	705a      	strb	r2, [r3, #1]
 8004f5a:	68fb      	ldr	r3, [r7, #12]
 8004f5c:	2200      	movs	r2, #0
 8004f5e:	709a      	strb	r2, [r3, #2]
 8004f60:	78fb      	ldrb	r3, [r7, #3]
 8004f62:	f003 030f 	and.w	r3, r3, #15
 8004f66:	b2da      	uxtb	r2, r3
 8004f68:	68fb      	ldr	r3, [r7, #12]
 8004f6a:	701a      	strb	r2, [r3, #0]
 8004f6c:	687b      	ldr	r3, [r7, #4]
 8004f6e:	f893 3494 	ldrb.w	r3, [r3, #1172]	; 0x494
 8004f72:	2b01      	cmp	r3, #1
 8004f74:	d101      	bne.n	8004f7a <HAL_PCD_EP_ClrStall+0x86>
 8004f76:	2302      	movs	r3, #2
 8004f78:	e00e      	b.n	8004f98 <HAL_PCD_EP_ClrStall+0xa4>
 8004f7a:	687b      	ldr	r3, [r7, #4]
 8004f7c:	2201      	movs	r2, #1
 8004f7e:	f883 2494 	strb.w	r2, [r3, #1172]	; 0x494
 8004f82:	687b      	ldr	r3, [r7, #4]
 8004f84:	681b      	ldr	r3, [r3, #0]
 8004f86:	68f9      	ldr	r1, [r7, #12]
 8004f88:	4618      	mov	r0, r3
 8004f8a:	f002 ff75 	bl	8007e78 <USB_EPClearStall>
 8004f8e:	687b      	ldr	r3, [r7, #4]
 8004f90:	2200      	movs	r2, #0
 8004f92:	f883 2494 	strb.w	r2, [r3, #1172]	; 0x494
 8004f96:	2300      	movs	r3, #0
 8004f98:	4618      	mov	r0, r3
 8004f9a:	3710      	adds	r7, #16
 8004f9c:	46bd      	mov	sp, r7
 8004f9e:	bd80      	pop	{r7, pc}

08004fa0 <HAL_PCD_EP_Abort>:
 8004fa0:	b580      	push	{r7, lr}
 8004fa2:	b084      	sub	sp, #16
 8004fa4:	af00      	add	r7, sp, #0
 8004fa6:	6078      	str	r0, [r7, #4]
 8004fa8:	460b      	mov	r3, r1
 8004faa:	70fb      	strb	r3, [r7, #3]
 8004fac:	f997 3003 	ldrsb.w	r3, [r7, #3]
 8004fb0:	2b00      	cmp	r3, #0
 8004fb2:	da0c      	bge.n	8004fce <HAL_PCD_EP_Abort+0x2e>
 8004fb4:	78fb      	ldrb	r3, [r7, #3]
 8004fb6:	f003 020f 	and.w	r2, r3, #15
 8004fba:	4613      	mov	r3, r2
 8004fbc:	00db      	lsls	r3, r3, #3
 8004fbe:	4413      	add	r3, r2
 8004fc0:	009b      	lsls	r3, r3, #2
 8004fc2:	3310      	adds	r3, #16
 8004fc4:	687a      	ldr	r2, [r7, #4]
 8004fc6:	4413      	add	r3, r2
 8004fc8:	3304      	adds	r3, #4
 8004fca:	60fb      	str	r3, [r7, #12]
 8004fcc:	e00c      	b.n	8004fe8 <HAL_PCD_EP_Abort+0x48>
 8004fce:	78fb      	ldrb	r3, [r7, #3]
 8004fd0:	f003 020f 	and.w	r2, r3, #15
 8004fd4:	4613      	mov	r3, r2
 8004fd6:	00db      	lsls	r3, r3, #3
 8004fd8:	4413      	add	r3, r2
 8004fda:	009b      	lsls	r3, r3, #2
 8004fdc:	f503 7314 	add.w	r3, r3, #592	; 0x250
 8004fe0:	687a      	ldr	r2, [r7, #4]
 8004fe2:	4413      	add	r3, r2
 8004fe4:	3304      	adds	r3, #4
 8004fe6:	60fb      	str	r3, [r7, #12]
 8004fe8:	687b      	ldr	r3, [r7, #4]
 8004fea:	681b      	ldr	r3, [r3, #0]
 8004fec:	68f9      	ldr	r1, [r7, #12]
 8004fee:	4618      	mov	r0, r3
 8004ff0:	f002 fd94 	bl	8007b1c <USB_EPStopXfer>
 8004ff4:	4603      	mov	r3, r0
 8004ff6:	72fb      	strb	r3, [r7, #11]
 8004ff8:	7afb      	ldrb	r3, [r7, #11]
 8004ffa:	4618      	mov	r0, r3
 8004ffc:	3710      	adds	r7, #16
 8004ffe:	46bd      	mov	sp, r7
 8005000:	bd80      	pop	{r7, pc}

08005002 <PCD_WriteEmptyTxFifo>:
 8005002:	b580      	push	{r7, lr}
 8005004:	b08a      	sub	sp, #40	; 0x28
 8005006:	af02      	add	r7, sp, #8
 8005008:	6078      	str	r0, [r7, #4]
 800500a:	6039      	str	r1, [r7, #0]
 800500c:	687b      	ldr	r3, [r7, #4]
 800500e:	681b      	ldr	r3, [r3, #0]
 8005010:	617b      	str	r3, [r7, #20]
 8005012:	697b      	ldr	r3, [r7, #20]
 8005014:	613b      	str	r3, [r7, #16]
 8005016:	683a      	ldr	r2, [r7, #0]
 8005018:	4613      	mov	r3, r2
 800501a:	00db      	lsls	r3, r3, #3
 800501c:	4413      	add	r3, r2
 800501e:	009b      	lsls	r3, r3, #2
 8005020:	3310      	adds	r3, #16
 8005022:	687a      	ldr	r2, [r7, #4]
 8005024:	4413      	add	r3, r2
 8005026:	3304      	adds	r3, #4
 8005028:	60fb      	str	r3, [r7, #12]
 800502a:	68fb      	ldr	r3, [r7, #12]
 800502c:	695a      	ldr	r2, [r3, #20]
 800502e:	68fb      	ldr	r3, [r7, #12]
 8005030:	691b      	ldr	r3, [r3, #16]
 8005032:	429a      	cmp	r2, r3
 8005034:	d901      	bls.n	800503a <PCD_WriteEmptyTxFifo+0x38>
 8005036:	2301      	movs	r3, #1
 8005038:	e06b      	b.n	8005112 <PCD_WriteEmptyTxFifo+0x110>
 800503a:	68fb      	ldr	r3, [r7, #12]
 800503c:	691a      	ldr	r2, [r3, #16]
 800503e:	68fb      	ldr	r3, [r7, #12]
 8005040:	695b      	ldr	r3, [r3, #20]
 8005042:	1ad3      	subs	r3, r2, r3
 8005044:	61fb      	str	r3, [r7, #28]
 8005046:	68fb      	ldr	r3, [r7, #12]
 8005048:	689b      	ldr	r3, [r3, #8]
 800504a:	69fa      	ldr	r2, [r7, #28]
 800504c:	429a      	cmp	r2, r3
 800504e:	d902      	bls.n	8005056 <PCD_WriteEmptyTxFifo+0x54>
 8005050:	68fb      	ldr	r3, [r7, #12]
 8005052:	689b      	ldr	r3, [r3, #8]
 8005054:	61fb      	str	r3, [r7, #28]
 8005056:	69fb      	ldr	r3, [r7, #28]
 8005058:	3303      	adds	r3, #3
 800505a:	089b      	lsrs	r3, r3, #2
 800505c:	61bb      	str	r3, [r7, #24]
 800505e:	e02a      	b.n	80050b6 <PCD_WriteEmptyTxFifo+0xb4>
 8005060:	68fb      	ldr	r3, [r7, #12]
 8005062:	691a      	ldr	r2, [r3, #16]
 8005064:	68fb      	ldr	r3, [r7, #12]
 8005066:	695b      	ldr	r3, [r3, #20]
 8005068:	1ad3      	subs	r3, r2, r3
 800506a:	61fb      	str	r3, [r7, #28]
 800506c:	68fb      	ldr	r3, [r7, #12]
 800506e:	689b      	ldr	r3, [r3, #8]
 8005070:	69fa      	ldr	r2, [r7, #28]
 8005072:	429a      	cmp	r2, r3
 8005074:	d902      	bls.n	800507c <PCD_WriteEmptyTxFifo+0x7a>
 8005076:	68fb      	ldr	r3, [r7, #12]
 8005078:	689b      	ldr	r3, [r3, #8]
 800507a:	61fb      	str	r3, [r7, #28]
 800507c:	69fb      	ldr	r3, [r7, #28]
 800507e:	3303      	adds	r3, #3
 8005080:	089b      	lsrs	r3, r3, #2
 8005082:	61bb      	str	r3, [r7, #24]
 8005084:	68fb      	ldr	r3, [r7, #12]
 8005086:	68d9      	ldr	r1, [r3, #12]
 8005088:	683b      	ldr	r3, [r7, #0]
 800508a:	b2da      	uxtb	r2, r3
 800508c:	69fb      	ldr	r3, [r7, #28]
 800508e:	b298      	uxth	r0, r3
 8005090:	687b      	ldr	r3, [r7, #4]
 8005092:	799b      	ldrb	r3, [r3, #6]
 8005094:	9300      	str	r3, [sp, #0]
 8005096:	4603      	mov	r3, r0
 8005098:	6978      	ldr	r0, [r7, #20]
 800509a:	f002 fde9 	bl	8007c70 <USB_WritePacket>
 800509e:	68fb      	ldr	r3, [r7, #12]
 80050a0:	68da      	ldr	r2, [r3, #12]
 80050a2:	69fb      	ldr	r3, [r7, #28]
 80050a4:	441a      	add	r2, r3
 80050a6:	68fb      	ldr	r3, [r7, #12]
 80050a8:	60da      	str	r2, [r3, #12]
 80050aa:	68fb      	ldr	r3, [r7, #12]
 80050ac:	695a      	ldr	r2, [r3, #20]
 80050ae:	69fb      	ldr	r3, [r7, #28]
 80050b0:	441a      	add	r2, r3
 80050b2:	68fb      	ldr	r3, [r7, #12]
 80050b4:	615a      	str	r2, [r3, #20]
 80050b6:	683b      	ldr	r3, [r7, #0]
 80050b8:	015a      	lsls	r2, r3, #5
 80050ba:	693b      	ldr	r3, [r7, #16]
 80050bc:	4413      	add	r3, r2
 80050be:	f503 6310 	add.w	r3, r3, #2304	; 0x900
 80050c2:	699b      	ldr	r3, [r3, #24]
 80050c4:	b29b      	uxth	r3, r3
 80050c6:	69ba      	ldr	r2, [r7, #24]
 80050c8:	429a      	cmp	r2, r3
 80050ca:	d809      	bhi.n	80050e0 <PCD_WriteEmptyTxFifo+0xde>
 80050cc:	68fb      	ldr	r3, [r7, #12]
 80050ce:	695a      	ldr	r2, [r3, #20]
 80050d0:	68fb      	ldr	r3, [r7, #12]
 80050d2:	691b      	ldr	r3, [r3, #16]
 80050d4:	429a      	cmp	r2, r3
 80050d6:	d203      	bcs.n	80050e0 <PCD_WriteEmptyTxFifo+0xde>
 80050d8:	68fb      	ldr	r3, [r7, #12]
 80050da:	691b      	ldr	r3, [r3, #16]
 80050dc:	2b00      	cmp	r3, #0
 80050de:	d1bf      	bne.n	8005060 <PCD_WriteEmptyTxFifo+0x5e>
 80050e0:	68fb      	ldr	r3, [r7, #12]
 80050e2:	691a      	ldr	r2, [r3, #16]
 80050e4:	68fb      	ldr	r3, [r7, #12]
 80050e6:	695b      	ldr	r3, [r3, #20]
 80050e8:	429a      	cmp	r2, r3
 80050ea:	d811      	bhi.n	8005110 <PCD_WriteEmptyTxFifo+0x10e>
 80050ec:	683b      	ldr	r3, [r7, #0]
 80050ee:	f003 030f 	and.w	r3, r3, #15
 80050f2:	2201      	movs	r2, #1
 80050f4:	fa02 f303 	lsl.w	r3, r2, r3
 80050f8:	60bb      	str	r3, [r7, #8]
 80050fa:	693b      	ldr	r3, [r7, #16]
 80050fc:	f503 6300 	add.w	r3, r3, #2048	; 0x800
 8005100:	6b5a      	ldr	r2, [r3, #52]	; 0x34
 8005102:	68bb      	ldr	r3, [r7, #8]
 8005104:	43db      	mvns	r3, r3
 8005106:	6939      	ldr	r1, [r7, #16]
 8005108:	f501 6100 	add.w	r1, r1, #2048	; 0x800
 800510c:	4013      	ands	r3, r2
 800510e:	634b      	str	r3, [r1, #52]	; 0x34
 8005110:	2300      	movs	r3, #0
 8005112:	4618      	mov	r0, r3
 8005114:	3720      	adds	r7, #32
 8005116:	46bd      	mov	sp, r7
 8005118:	bd80      	pop	{r7, pc}
	...

0800511c <PCD_EP_OutXfrComplete_int>:
 800511c:	b580      	push	{r7, lr}
 800511e:	b088      	sub	sp, #32
 8005120:	af00      	add	r7, sp, #0
 8005122:	6078      	str	r0, [r7, #4]
 8005124:	6039      	str	r1, [r7, #0]
 8005126:	687b      	ldr	r3, [r7, #4]
 8005128:	681b      	ldr	r3, [r3, #0]
 800512a:	61fb      	str	r3, [r7, #28]
 800512c:	69fb      	ldr	r3, [r7, #28]
 800512e:	61bb      	str	r3, [r7, #24]
 8005130:	69fb      	ldr	r3, [r7, #28]
 8005132:	333c      	adds	r3, #60	; 0x3c
 8005134:	3304      	adds	r3, #4
 8005136:	681b      	ldr	r3, [r3, #0]
 8005138:	617b      	str	r3, [r7, #20]
 800513a:	683b      	ldr	r3, [r7, #0]
 800513c:	015a      	lsls	r2, r3, #5
 800513e:	69bb      	ldr	r3, [r7, #24]
 8005140:	4413      	add	r3, r2
 8005142:	f503 6330 	add.w	r3, r3, #2816	; 0xb00
 8005146:	689b      	ldr	r3, [r3, #8]
 8005148:	613b      	str	r3, [r7, #16]
 800514a:	687b      	ldr	r3, [r7, #4]
 800514c:	799b      	ldrb	r3, [r3, #6]
 800514e:	2b01      	cmp	r3, #1
 8005150:	d17b      	bne.n	800524a <PCD_EP_OutXfrComplete_int+0x12e>
 8005152:	693b      	ldr	r3, [r7, #16]
 8005154:	f003 0308 	and.w	r3, r3, #8
 8005158:	2b00      	cmp	r3, #0
 800515a:	d015      	beq.n	8005188 <PCD_EP_OutXfrComplete_int+0x6c>
 800515c:	697b      	ldr	r3, [r7, #20]
 800515e:	4a61      	ldr	r2, [pc, #388]	; (80052e4 <PCD_EP_OutXfrComplete_int+0x1c8>)
 8005160:	4293      	cmp	r3, r2
 8005162:	f240 80b9 	bls.w	80052d8 <PCD_EP_OutXfrComplete_int+0x1bc>
 8005166:	693b      	ldr	r3, [r7, #16]
 8005168:	f403 4300 	and.w	r3, r3, #32768	; 0x8000
 800516c:	2b00      	cmp	r3, #0
 800516e:	f000 80b3 	beq.w	80052d8 <PCD_EP_OutXfrComplete_int+0x1bc>
 8005172:	683b      	ldr	r3, [r7, #0]
 8005174:	015a      	lsls	r2, r3, #5
 8005176:	69bb      	ldr	r3, [r7, #24]
 8005178:	4413      	add	r3, r2
 800517a:	f503 6330 	add.w	r3, r3, #2816	; 0xb00
 800517e:	461a      	mov	r2, r3
 8005180:	f44f 4300 	mov.w	r3, #32768	; 0x8000
 8005184:	6093      	str	r3, [r2, #8]
 8005186:	e0a7      	b.n	80052d8 <PCD_EP_OutXfrComplete_int+0x1bc>
 8005188:	693b      	ldr	r3, [r7, #16]
 800518a:	f003 0320 	and.w	r3, r3, #32
 800518e:	2b00      	cmp	r3, #0
 8005190:	d009      	beq.n	80051a6 <PCD_EP_OutXfrComplete_int+0x8a>
 8005192:	683b      	ldr	r3, [r7, #0]
 8005194:	015a      	lsls	r2, r3, #5
 8005196:	69bb      	ldr	r3, [r7, #24]
 8005198:	4413      	add	r3, r2
 800519a:	f503 6330 	add.w	r3, r3, #2816	; 0xb00
 800519e:	461a      	mov	r2, r3
 80051a0:	2320      	movs	r3, #32
 80051a2:	6093      	str	r3, [r2, #8]
 80051a4:	e098      	b.n	80052d8 <PCD_EP_OutXfrComplete_int+0x1bc>
 80051a6:	693b      	ldr	r3, [r7, #16]
 80051a8:	f003 0328 	and.w	r3, r3, #40	; 0x28
 80051ac:	2b00      	cmp	r3, #0
 80051ae:	f040 8093 	bne.w	80052d8 <PCD_EP_OutXfrComplete_int+0x1bc>
 80051b2:	697b      	ldr	r3, [r7, #20]
 80051b4:	4a4b      	ldr	r2, [pc, #300]	; (80052e4 <PCD_EP_OutXfrComplete_int+0x1c8>)
 80051b6:	4293      	cmp	r3, r2
 80051b8:	d90f      	bls.n	80051da <PCD_EP_OutXfrComplete_int+0xbe>
 80051ba:	693b      	ldr	r3, [r7, #16]
 80051bc:	f403 4300 	and.w	r3, r3, #32768	; 0x8000
 80051c0:	2b00      	cmp	r3, #0
 80051c2:	d00a      	beq.n	80051da <PCD_EP_OutXfrComplete_int+0xbe>
 80051c4:	683b      	ldr	r3, [r7, #0]
 80051c6:	015a      	lsls	r2, r3, #5
 80051c8:	69bb      	ldr	r3, [r7, #24]
 80051ca:	4413      	add	r3, r2
 80051cc:	f503 6330 	add.w	r3, r3, #2816	; 0xb00
 80051d0:	461a      	mov	r2, r3
 80051d2:	f44f 4300 	mov.w	r3, #32768	; 0x8000
 80051d6:	6093      	str	r3, [r2, #8]
 80051d8:	e07e      	b.n	80052d8 <PCD_EP_OutXfrComplete_int+0x1bc>
 80051da:	683a      	ldr	r2, [r7, #0]
 80051dc:	4613      	mov	r3, r2
 80051de:	00db      	lsls	r3, r3, #3
 80051e0:	4413      	add	r3, r2
 80051e2:	009b      	lsls	r3, r3, #2
 80051e4:	f503 7314 	add.w	r3, r3, #592	; 0x250
 80051e8:	687a      	ldr	r2, [r7, #4]
 80051ea:	4413      	add	r3, r2
 80051ec:	3304      	adds	r3, #4
 80051ee:	60fb      	str	r3, [r7, #12]
 80051f0:	68fb      	ldr	r3, [r7, #12]
 80051f2:	6a1a      	ldr	r2, [r3, #32]
 80051f4:	683b      	ldr	r3, [r7, #0]
 80051f6:	0159      	lsls	r1, r3, #5
 80051f8:	69bb      	ldr	r3, [r7, #24]
 80051fa:	440b      	add	r3, r1
 80051fc:	f503 6330 	add.w	r3, r3, #2816	; 0xb00
 8005200:	691b      	ldr	r3, [r3, #16]
 8005202:	f3c3 0312 	ubfx	r3, r3, #0, #19
 8005206:	1ad2      	subs	r2, r2, r3
 8005208:	68fb      	ldr	r3, [r7, #12]
 800520a:	615a      	str	r2, [r3, #20]
 800520c:	683b      	ldr	r3, [r7, #0]
 800520e:	2b00      	cmp	r3, #0
 8005210:	d114      	bne.n	800523c <PCD_EP_OutXfrComplete_int+0x120>
 8005212:	68fb      	ldr	r3, [r7, #12]
 8005214:	691b      	ldr	r3, [r3, #16]
 8005216:	2b00      	cmp	r3, #0
 8005218:	d109      	bne.n	800522e <PCD_EP_OutXfrComplete_int+0x112>
 800521a:	687b      	ldr	r3, [r7, #4]
 800521c:	6818      	ldr	r0, [r3, #0]
 800521e:	687b      	ldr	r3, [r7, #4]
 8005220:	f203 439c 	addw	r3, r3, #1180	; 0x49c
 8005224:	461a      	mov	r2, r3
 8005226:	2101      	movs	r1, #1
 8005228:	f002 ffb8 	bl	800819c <USB_EP0_OutStart>
 800522c:	e006      	b.n	800523c <PCD_EP_OutXfrComplete_int+0x120>
 800522e:	68fb      	ldr	r3, [r7, #12]
 8005230:	68da      	ldr	r2, [r3, #12]
 8005232:	68fb      	ldr	r3, [r7, #12]
 8005234:	695b      	ldr	r3, [r3, #20]
 8005236:	441a      	add	r2, r3
 8005238:	68fb      	ldr	r3, [r7, #12]
 800523a:	60da      	str	r2, [r3, #12]
 800523c:	683b      	ldr	r3, [r7, #0]
 800523e:	b2db      	uxtb	r3, r3
 8005240:	4619      	mov	r1, r3
 8005242:	6878      	ldr	r0, [r7, #4]
 8005244:	f005 fb0c 	bl	800a860 <HAL_PCD_DataOutStageCallback>
 8005248:	e046      	b.n	80052d8 <PCD_EP_OutXfrComplete_int+0x1bc>
 800524a:	697b      	ldr	r3, [r7, #20]
 800524c:	4a26      	ldr	r2, [pc, #152]	; (80052e8 <PCD_EP_OutXfrComplete_int+0x1cc>)
 800524e:	4293      	cmp	r3, r2
 8005250:	d124      	bne.n	800529c <PCD_EP_OutXfrComplete_int+0x180>
 8005252:	693b      	ldr	r3, [r7, #16]
 8005254:	f403 4300 	and.w	r3, r3, #32768	; 0x8000
 8005258:	2b00      	cmp	r3, #0
 800525a:	d00a      	beq.n	8005272 <PCD_EP_OutXfrComplete_int+0x156>
 800525c:	683b      	ldr	r3, [r7, #0]
 800525e:	015a      	lsls	r2, r3, #5
 8005260:	69bb      	ldr	r3, [r7, #24]
 8005262:	4413      	add	r3, r2
 8005264:	f503 6330 	add.w	r3, r3, #2816	; 0xb00
 8005268:	461a      	mov	r2, r3
 800526a:	f44f 4300 	mov.w	r3, #32768	; 0x8000
 800526e:	6093      	str	r3, [r2, #8]
 8005270:	e032      	b.n	80052d8 <PCD_EP_OutXfrComplete_int+0x1bc>
 8005272:	693b      	ldr	r3, [r7, #16]
 8005274:	f003 0320 	and.w	r3, r3, #32
 8005278:	2b00      	cmp	r3, #0
 800527a:	d008      	beq.n	800528e <PCD_EP_OutXfrComplete_int+0x172>
 800527c:	683b      	ldr	r3, [r7, #0]
 800527e:	015a      	lsls	r2, r3, #5
 8005280:	69bb      	ldr	r3, [r7, #24]
 8005282:	4413      	add	r3, r2
 8005284:	f503 6330 	add.w	r3, r3, #2816	; 0xb00
 8005288:	461a      	mov	r2, r3
 800528a:	2320      	movs	r3, #32
 800528c:	6093      	str	r3, [r2, #8]
 800528e:	683b      	ldr	r3, [r7, #0]
 8005290:	b2db      	uxtb	r3, r3
 8005292:	4619      	mov	r1, r3
 8005294:	6878      	ldr	r0, [r7, #4]
 8005296:	f005 fae3 	bl	800a860 <HAL_PCD_DataOutStageCallback>
 800529a:	e01d      	b.n	80052d8 <PCD_EP_OutXfrComplete_int+0x1bc>
 800529c:	683b      	ldr	r3, [r7, #0]
 800529e:	2b00      	cmp	r3, #0
 80052a0:	d114      	bne.n	80052cc <PCD_EP_OutXfrComplete_int+0x1b0>
 80052a2:	6879      	ldr	r1, [r7, #4]
 80052a4:	683a      	ldr	r2, [r7, #0]
 80052a6:	4613      	mov	r3, r2
 80052a8:	00db      	lsls	r3, r3, #3
 80052aa:	4413      	add	r3, r2
 80052ac:	009b      	lsls	r3, r3, #2
 80052ae:	440b      	add	r3, r1
 80052b0:	f503 7319 	add.w	r3, r3, #612	; 0x264
 80052b4:	681b      	ldr	r3, [r3, #0]
 80052b6:	2b00      	cmp	r3, #0
 80052b8:	d108      	bne.n	80052cc <PCD_EP_OutXfrComplete_int+0x1b0>
 80052ba:	687b      	ldr	r3, [r7, #4]
 80052bc:	6818      	ldr	r0, [r3, #0]
 80052be:	687b      	ldr	r3, [r7, #4]
 80052c0:	f203 439c 	addw	r3, r3, #1180	; 0x49c
 80052c4:	461a      	mov	r2, r3
 80052c6:	2100      	movs	r1, #0
 80052c8:	f002 ff68 	bl	800819c <USB_EP0_OutStart>
 80052cc:	683b      	ldr	r3, [r7, #0]
 80052ce:	b2db      	uxtb	r3, r3
 80052d0:	4619      	mov	r1, r3
 80052d2:	6878      	ldr	r0, [r7, #4]
 80052d4:	f005 fac4 	bl	800a860 <HAL_PCD_DataOutStageCallback>
 80052d8:	2300      	movs	r3, #0
 80052da:	4618      	mov	r0, r3
 80052dc:	3720      	adds	r7, #32
 80052de:	46bd      	mov	sp, r7
 80052e0:	bd80      	pop	{r7, pc}
 80052e2:	bf00      	nop
 80052e4:	4f54300a 	.word	0x4f54300a
 80052e8:	4f54310a 	.word	0x4f54310a

080052ec <PCD_EP_OutSetupPacket_int>:
 80052ec:	b580      	push	{r7, lr}
 80052ee:	b086      	sub	sp, #24
 80052f0:	af00      	add	r7, sp, #0
 80052f2:	6078      	str	r0, [r7, #4]
 80052f4:	6039      	str	r1, [r7, #0]
 80052f6:	687b      	ldr	r3, [r7, #4]
 80052f8:	681b      	ldr	r3, [r3, #0]
 80052fa:	617b      	str	r3, [r7, #20]
 80052fc:	697b      	ldr	r3, [r7, #20]
 80052fe:	613b      	str	r3, [r7, #16]
 8005300:	697b      	ldr	r3, [r7, #20]
 8005302:	333c      	adds	r3, #60	; 0x3c
 8005304:	3304      	adds	r3, #4
 8005306:	681b      	ldr	r3, [r3, #0]
 8005308:	60fb      	str	r3, [r7, #12]
 800530a:	683b      	ldr	r3, [r7, #0]
 800530c:	015a      	lsls	r2, r3, #5
 800530e:	693b      	ldr	r3, [r7, #16]
 8005310:	4413      	add	r3, r2
 8005312:	f503 6330 	add.w	r3, r3, #2816	; 0xb00
 8005316:	689b      	ldr	r3, [r3, #8]
 8005318:	60bb      	str	r3, [r7, #8]
 800531a:	68fb      	ldr	r3, [r7, #12]
 800531c:	4a15      	ldr	r2, [pc, #84]	; (8005374 <PCD_EP_OutSetupPacket_int+0x88>)
 800531e:	4293      	cmp	r3, r2
 8005320:	d90e      	bls.n	8005340 <PCD_EP_OutSetupPacket_int+0x54>
 8005322:	68bb      	ldr	r3, [r7, #8]
 8005324:	f403 4300 	and.w	r3, r3, #32768	; 0x8000
 8005328:	2b00      	cmp	r3, #0
 800532a:	d009      	beq.n	8005340 <PCD_EP_OutSetupPacket_int+0x54>
 800532c:	683b      	ldr	r3, [r7, #0]
 800532e:	015a      	lsls	r2, r3, #5
 8005330:	693b      	ldr	r3, [r7, #16]
 8005332:	4413      	add	r3, r2
 8005334:	f503 6330 	add.w	r3, r3, #2816	; 0xb00
 8005338:	461a      	mov	r2, r3
 800533a:	f44f 4300 	mov.w	r3, #32768	; 0x8000
 800533e:	6093      	str	r3, [r2, #8]
 8005340:	6878      	ldr	r0, [r7, #4]
 8005342:	f005 fa7b 	bl	800a83c <HAL_PCD_SetupStageCallback>
 8005346:	68fb      	ldr	r3, [r7, #12]
 8005348:	4a0a      	ldr	r2, [pc, #40]	; (8005374 <PCD_EP_OutSetupPacket_int+0x88>)
 800534a:	4293      	cmp	r3, r2
 800534c:	d90c      	bls.n	8005368 <PCD_EP_OutSetupPacket_int+0x7c>
 800534e:	687b      	ldr	r3, [r7, #4]
 8005350:	799b      	ldrb	r3, [r3, #6]
 8005352:	2b01      	cmp	r3, #1
 8005354:	d108      	bne.n	8005368 <PCD_EP_OutSetupPacket_int+0x7c>
 8005356:	687b      	ldr	r3, [r7, #4]
 8005358:	6818      	ldr	r0, [r3, #0]
 800535a:	687b      	ldr	r3, [r7, #4]
 800535c:	f203 439c 	addw	r3, r3, #1180	; 0x49c
 8005360:	461a      	mov	r2, r3
 8005362:	2101      	movs	r1, #1
 8005364:	f002 ff1a 	bl	800819c <USB_EP0_OutStart>
 8005368:	2300      	movs	r3, #0
 800536a:	4618      	mov	r0, r3
 800536c:	3718      	adds	r7, #24
 800536e:	46bd      	mov	sp, r7
 8005370:	bd80      	pop	{r7, pc}
 8005372:	bf00      	nop
 8005374:	4f54300a 	.word	0x4f54300a

08005378 <HAL_PCDEx_SetTxFiFo>:
 8005378:	b480      	push	{r7}
 800537a:	b085      	sub	sp, #20
 800537c:	af00      	add	r7, sp, #0
 800537e:	6078      	str	r0, [r7, #4]
 8005380:	460b      	mov	r3, r1
 8005382:	70fb      	strb	r3, [r7, #3]
 8005384:	4613      	mov	r3, r2
 8005386:	803b      	strh	r3, [r7, #0]
 8005388:	687b      	ldr	r3, [r7, #4]
 800538a:	681b      	ldr	r3, [r3, #0]
 800538c:	6a5b      	ldr	r3, [r3, #36]	; 0x24
 800538e:	60bb      	str	r3, [r7, #8]
 8005390:	78fb      	ldrb	r3, [r7, #3]
 8005392:	2b00      	cmp	r3, #0
 8005394:	d107      	bne.n	80053a6 <HAL_PCDEx_SetTxFiFo+0x2e>
 8005396:	883b      	ldrh	r3, [r7, #0]
 8005398:	0419      	lsls	r1, r3, #16
 800539a:	687b      	ldr	r3, [r7, #4]
 800539c:	681b      	ldr	r3, [r3, #0]
 800539e:	68ba      	ldr	r2, [r7, #8]
 80053a0:	430a      	orrs	r2, r1
 80053a2:	629a      	str	r2, [r3, #40]	; 0x28
 80053a4:	e028      	b.n	80053f8 <HAL_PCDEx_SetTxFiFo+0x80>
 80053a6:	687b      	ldr	r3, [r7, #4]
 80053a8:	681b      	ldr	r3, [r3, #0]
 80053aa:	6a9b      	ldr	r3, [r3, #40]	; 0x28
 80053ac:	0c1b      	lsrs	r3, r3, #16
 80053ae:	68ba      	ldr	r2, [r7, #8]
 80053b0:	4413      	add	r3, r2
 80053b2:	60bb      	str	r3, [r7, #8]
 80053b4:	2300      	movs	r3, #0
 80053b6:	73fb      	strb	r3, [r7, #15]
 80053b8:	e00d      	b.n	80053d6 <HAL_PCDEx_SetTxFiFo+0x5e>
 80053ba:	687b      	ldr	r3, [r7, #4]
 80053bc:	681a      	ldr	r2, [r3, #0]
 80053be:	7bfb      	ldrb	r3, [r7, #15]
 80053c0:	3340      	adds	r3, #64	; 0x40
 80053c2:	009b      	lsls	r3, r3, #2
 80053c4:	4413      	add	r3, r2
 80053c6:	685b      	ldr	r3, [r3, #4]
 80053c8:	0c1b      	lsrs	r3, r3, #16
 80053ca:	68ba      	ldr	r2, [r7, #8]
 80053cc:	4413      	add	r3, r2
 80053ce:	60bb      	str	r3, [r7, #8]
 80053d0:	7bfb      	ldrb	r3, [r7, #15]
 80053d2:	3301      	adds	r3, #1
 80053d4:	73fb      	strb	r3, [r7, #15]
 80053d6:	7bfa      	ldrb	r2, [r7, #15]
 80053d8:	78fb      	ldrb	r3, [r7, #3]
 80053da:	3b01      	subs	r3, #1
 80053dc:	429a      	cmp	r2, r3
 80053de:	d3ec      	bcc.n	80053ba <HAL_PCDEx_SetTxFiFo+0x42>
 80053e0:	883b      	ldrh	r3, [r7, #0]
 80053e2:	0418      	lsls	r0, r3, #16
 80053e4:	687b      	ldr	r3, [r7, #4]
 80053e6:	6819      	ldr	r1, [r3, #0]
 80053e8:	78fb      	ldrb	r3, [r7, #3]
 80053ea:	3b01      	subs	r3, #1
 80053ec:	68ba      	ldr	r2, [r7, #8]
 80053ee:	4302      	orrs	r2, r0
 80053f0:	3340      	adds	r3, #64	; 0x40
 80053f2:	009b      	lsls	r3, r3, #2
 80053f4:	440b      	add	r3, r1
 80053f6:	605a      	str	r2, [r3, #4]
 80053f8:	2300      	movs	r3, #0
 80053fa:	4618      	mov	r0, r3
 80053fc:	3714      	adds	r7, #20
 80053fe:	46bd      	mov	sp, r7
 8005400:	f85d 7b04 	ldr.w	r7, [sp], #4
 8005404:	4770      	bx	lr

08005406 <HAL_PCDEx_SetRxFiFo>:
 8005406:	b480      	push	{r7}
 8005408:	b083      	sub	sp, #12
 800540a:	af00      	add	r7, sp, #0
 800540c:	6078      	str	r0, [r7, #4]
 800540e:	460b      	mov	r3, r1
 8005410:	807b      	strh	r3, [r7, #2]
 8005412:	687b      	ldr	r3, [r7, #4]
 8005414:	681b      	ldr	r3, [r3, #0]
 8005416:	887a      	ldrh	r2, [r7, #2]
 8005418:	625a      	str	r2, [r3, #36]	; 0x24
 800541a:	2300      	movs	r3, #0
 800541c:	4618      	mov	r0, r3
 800541e:	370c      	adds	r7, #12
 8005420:	46bd      	mov	sp, r7
 8005422:	f85d 7b04 	ldr.w	r7, [sp], #4
 8005426:	4770      	bx	lr

08005428 <HAL_PCDEx_LPM_Callback>:
 8005428:	b480      	push	{r7}
 800542a:	b083      	sub	sp, #12
 800542c:	af00      	add	r7, sp, #0
 800542e:	6078      	str	r0, [r7, #4]
 8005430:	460b      	mov	r3, r1
 8005432:	70fb      	strb	r3, [r7, #3]
 8005434:	bf00      	nop
 8005436:	370c      	adds	r7, #12
 8005438:	46bd      	mov	sp, r7
 800543a:	f85d 7b04 	ldr.w	r7, [sp], #4
 800543e:	4770      	bx	lr

08005440 <HAL_RCC_OscConfig>:
 8005440:	b580      	push	{r7, lr}
 8005442:	b086      	sub	sp, #24
 8005444:	af00      	add	r7, sp, #0
 8005446:	6078      	str	r0, [r7, #4]
 8005448:	687b      	ldr	r3, [r7, #4]
 800544a:	2b00      	cmp	r3, #0
 800544c:	d101      	bne.n	8005452 <HAL_RCC_OscConfig+0x12>
 800544e:	2301      	movs	r3, #1
 8005450:	e267      	b.n	8005922 <HAL_RCC_OscConfig+0x4e2>
 8005452:	687b      	ldr	r3, [r7, #4]
 8005454:	681b      	ldr	r3, [r3, #0]
 8005456:	f003 0301 	and.w	r3, r3, #1
 800545a:	2b00      	cmp	r3, #0
 800545c:	d075      	beq.n	800554a <HAL_RCC_OscConfig+0x10a>
 800545e:	4b88      	ldr	r3, [pc, #544]	; (8005680 <HAL_RCC_OscConfig+0x240>)
 8005460:	689b      	ldr	r3, [r3, #8]
 8005462:	f003 030c 	and.w	r3, r3, #12
 8005466:	2b04      	cmp	r3, #4
 8005468:	d00c      	beq.n	8005484 <HAL_RCC_OscConfig+0x44>
 800546a:	4b85      	ldr	r3, [pc, #532]	; (8005680 <HAL_RCC_OscConfig+0x240>)
 800546c:	689b      	ldr	r3, [r3, #8]
 800546e:	f003 030c 	and.w	r3, r3, #12
 8005472:	2b08      	cmp	r3, #8
 8005474:	d112      	bne.n	800549c <HAL_RCC_OscConfig+0x5c>
 8005476:	4b82      	ldr	r3, [pc, #520]	; (8005680 <HAL_RCC_OscConfig+0x240>)
 8005478:	685b      	ldr	r3, [r3, #4]
 800547a:	f403 0380 	and.w	r3, r3, #4194304	; 0x400000
 800547e:	f5b3 0f80 	cmp.w	r3, #4194304	; 0x400000
 8005482:	d10b      	bne.n	800549c <HAL_RCC_OscConfig+0x5c>
 8005484:	4b7e      	ldr	r3, [pc, #504]	; (8005680 <HAL_RCC_OscConfig+0x240>)
 8005486:	681b      	ldr	r3, [r3, #0]
 8005488:	f403 3300 	and.w	r3, r3, #131072	; 0x20000
 800548c:	2b00      	cmp	r3, #0
 800548e:	d05b      	beq.n	8005548 <HAL_RCC_OscConfig+0x108>
 8005490:	687b      	ldr	r3, [r7, #4]
 8005492:	685b      	ldr	r3, [r3, #4]
 8005494:	2b00      	cmp	r3, #0
 8005496:	d157      	bne.n	8005548 <HAL_RCC_OscConfig+0x108>
 8005498:	2301      	movs	r3, #1
 800549a:	e242      	b.n	8005922 <HAL_RCC_OscConfig+0x4e2>
 800549c:	687b      	ldr	r3, [r7, #4]
 800549e:	685b      	ldr	r3, [r3, #4]
 80054a0:	f5b3 3f80 	cmp.w	r3, #65536	; 0x10000
 80054a4:	d106      	bne.n	80054b4 <HAL_RCC_OscConfig+0x74>
 80054a6:	4b76      	ldr	r3, [pc, #472]	; (8005680 <HAL_RCC_OscConfig+0x240>)
 80054a8:	681b      	ldr	r3, [r3, #0]
 80054aa:	4a75      	ldr	r2, [pc, #468]	; (8005680 <HAL_RCC_OscConfig+0x240>)
 80054ac:	f443 3380 	orr.w	r3, r3, #65536	; 0x10000
 80054b0:	6013      	str	r3, [r2, #0]
 80054b2:	e01d      	b.n	80054f0 <HAL_RCC_OscConfig+0xb0>
 80054b4:	687b      	ldr	r3, [r7, #4]
 80054b6:	685b      	ldr	r3, [r3, #4]
 80054b8:	f5b3 2fa0 	cmp.w	r3, #327680	; 0x50000
 80054bc:	d10c      	bne.n	80054d8 <HAL_RCC_OscConfig+0x98>
 80054be:	4b70      	ldr	r3, [pc, #448]	; (8005680 <HAL_RCC_OscConfig+0x240>)
 80054c0:	681b      	ldr	r3, [r3, #0]
 80054c2:	4a6f      	ldr	r2, [pc, #444]	; (8005680 <HAL_RCC_OscConfig+0x240>)
 80054c4:	f443 2380 	orr.w	r3, r3, #262144	; 0x40000
 80054c8:	6013      	str	r3, [r2, #0]
 80054ca:	4b6d      	ldr	r3, [pc, #436]	; (8005680 <HAL_RCC_OscConfig+0x240>)
 80054cc:	681b      	ldr	r3, [r3, #0]
 80054ce:	4a6c      	ldr	r2, [pc, #432]	; (8005680 <HAL_RCC_OscConfig+0x240>)
 80054d0:	f443 3380 	orr.w	r3, r3, #65536	; 0x10000
 80054d4:	6013      	str	r3, [r2, #0]
 80054d6:	e00b      	b.n	80054f0 <HAL_RCC_OscConfig+0xb0>
 80054d8:	4b69      	ldr	r3, [pc, #420]	; (8005680 <HAL_RCC_OscConfig+0x240>)
 80054da:	681b      	ldr	r3, [r3, #0]
 80054dc:	4a68      	ldr	r2, [pc, #416]	; (8005680 <HAL_RCC_OscConfig+0x240>)
 80054de:	f423 3380 	bic.w	r3, r3, #65536	; 0x10000
 80054e2:	6013      	str	r3, [r2, #0]
 80054e4:	4b66      	ldr	r3, [pc, #408]	; (8005680 <HAL_RCC_OscConfig+0x240>)
 80054e6:	681b      	ldr	r3, [r3, #0]
 80054e8:	4a65      	ldr	r2, [pc, #404]	; (8005680 <HAL_RCC_OscConfig+0x240>)
 80054ea:	f423 2380 	bic.w	r3, r3, #262144	; 0x40000
 80054ee:	6013      	str	r3, [r2, #0]
 80054f0:	687b      	ldr	r3, [r7, #4]
 80054f2:	685b      	ldr	r3, [r3, #4]
 80054f4:	2b00      	cmp	r3, #0
 80054f6:	d013      	beq.n	8005520 <HAL_RCC_OscConfig+0xe0>
 80054f8:	f7fc fc2a 	bl	8001d50 <HAL_GetTick>
 80054fc:	6138      	str	r0, [r7, #16]
 80054fe:	e008      	b.n	8005512 <HAL_RCC_OscConfig+0xd2>
 8005500:	f7fc fc26 	bl	8001d50 <HAL_GetTick>
 8005504:	4602      	mov	r2, r0
 8005506:	693b      	ldr	r3, [r7, #16]
 8005508:	1ad3      	subs	r3, r2, r3
 800550a:	2b64      	cmp	r3, #100	; 0x64
 800550c:	d901      	bls.n	8005512 <HAL_RCC_OscConfig+0xd2>
 800550e:	2303      	movs	r3, #3
 8005510:	e207      	b.n	8005922 <HAL_RCC_OscConfig+0x4e2>
 8005512:	4b5b      	ldr	r3, [pc, #364]	; (8005680 <HAL_RCC_OscConfig+0x240>)
 8005514:	681b      	ldr	r3, [r3, #0]
 8005516:	f403 3300 	and.w	r3, r3, #131072	; 0x20000
 800551a:	2b00      	cmp	r3, #0
 800551c:	d0f0      	beq.n	8005500 <HAL_RCC_OscConfig+0xc0>
 800551e:	e014      	b.n	800554a <HAL_RCC_OscConfig+0x10a>
 8005520:	f7fc fc16 	bl	8001d50 <HAL_GetTick>
 8005524:	6138      	str	r0, [r7, #16]
 8005526:	e008      	b.n	800553a <HAL_RCC_OscConfig+0xfa>
 8005528:	f7fc fc12 	bl	8001d50 <HAL_GetTick>
 800552c:	4602      	mov	r2, r0
 800552e:	693b      	ldr	r3, [r7, #16]
 8005530:	1ad3      	subs	r3, r2, r3
 8005532:	2b64      	cmp	r3, #100	; 0x64
 8005534:	d901      	bls.n	800553a <HAL_RCC_OscConfig+0xfa>
 8005536:	2303      	movs	r3, #3
 8005538:	e1f3      	b.n	8005922 <HAL_RCC_OscConfig+0x4e2>
 800553a:	4b51      	ldr	r3, [pc, #324]	; (8005680 <HAL_RCC_OscConfig+0x240>)
 800553c:	681b      	ldr	r3, [r3, #0]
 800553e:	f403 3300 	and.w	r3, r3, #131072	; 0x20000
 8005542:	2b00      	cmp	r3, #0
 8005544:	d1f0      	bne.n	8005528 <HAL_RCC_OscConfig+0xe8>
 8005546:	e000      	b.n	800554a <HAL_RCC_OscConfig+0x10a>
 8005548:	bf00      	nop
 800554a:	687b      	ldr	r3, [r7, #4]
 800554c:	681b      	ldr	r3, [r3, #0]
 800554e:	f003 0302 	and.w	r3, r3, #2
 8005552:	2b00      	cmp	r3, #0
 8005554:	d063      	beq.n	800561e <HAL_RCC_OscConfig+0x1de>
 8005556:	4b4a      	ldr	r3, [pc, #296]	; (8005680 <HAL_RCC_OscConfig+0x240>)
 8005558:	689b      	ldr	r3, [r3, #8]
 800555a:	f003 030c 	and.w	r3, r3, #12
 800555e:	2b00      	cmp	r3, #0
 8005560:	d00b      	beq.n	800557a <HAL_RCC_OscConfig+0x13a>
 8005562:	4b47      	ldr	r3, [pc, #284]	; (8005680 <HAL_RCC_OscConfig+0x240>)
 8005564:	689b      	ldr	r3, [r3, #8]
 8005566:	f003 030c 	and.w	r3, r3, #12
 800556a:	2b08      	cmp	r3, #8
 800556c:	d11c      	bne.n	80055a8 <HAL_RCC_OscConfig+0x168>
 800556e:	4b44      	ldr	r3, [pc, #272]	; (8005680 <HAL_RCC_OscConfig+0x240>)
 8005570:	685b      	ldr	r3, [r3, #4]
 8005572:	f403 0380 	and.w	r3, r3, #4194304	; 0x400000
 8005576:	2b00      	cmp	r3, #0
 8005578:	d116      	bne.n	80055a8 <HAL_RCC_OscConfig+0x168>
 800557a:	4b41      	ldr	r3, [pc, #260]	; (8005680 <HAL_RCC_OscConfig+0x240>)
 800557c:	681b      	ldr	r3, [r3, #0]
 800557e:	f003 0302 	and.w	r3, r3, #2
 8005582:	2b00      	cmp	r3, #0
 8005584:	d005      	beq.n	8005592 <HAL_RCC_OscConfig+0x152>
 8005586:	687b      	ldr	r3, [r7, #4]
 8005588:	68db      	ldr	r3, [r3, #12]
 800558a:	2b01      	cmp	r3, #1
 800558c:	d001      	beq.n	8005592 <HAL_RCC_OscConfig+0x152>
 800558e:	2301      	movs	r3, #1
 8005590:	e1c7      	b.n	8005922 <HAL_RCC_OscConfig+0x4e2>
 8005592:	4b3b      	ldr	r3, [pc, #236]	; (8005680 <HAL_RCC_OscConfig+0x240>)
 8005594:	681b      	ldr	r3, [r3, #0]
 8005596:	f023 02f8 	bic.w	r2, r3, #248	; 0xf8
 800559a:	687b      	ldr	r3, [r7, #4]
 800559c:	691b      	ldr	r3, [r3, #16]
 800559e:	00db      	lsls	r3, r3, #3
 80055a0:	4937      	ldr	r1, [pc, #220]	; (8005680 <HAL_RCC_OscConfig+0x240>)
 80055a2:	4313      	orrs	r3, r2
 80055a4:	600b      	str	r3, [r1, #0]
 80055a6:	e03a      	b.n	800561e <HAL_RCC_OscConfig+0x1de>
 80055a8:	687b      	ldr	r3, [r7, #4]
 80055aa:	68db      	ldr	r3, [r3, #12]
 80055ac:	2b00      	cmp	r3, #0
 80055ae:	d020      	beq.n	80055f2 <HAL_RCC_OscConfig+0x1b2>
 80055b0:	4b34      	ldr	r3, [pc, #208]	; (8005684 <HAL_RCC_OscConfig+0x244>)
 80055b2:	2201      	movs	r2, #1
 80055b4:	601a      	str	r2, [r3, #0]
 80055b6:	f7fc fbcb 	bl	8001d50 <HAL_GetTick>
 80055ba:	6138      	str	r0, [r7, #16]
 80055bc:	e008      	b.n	80055d0 <HAL_RCC_OscConfig+0x190>
 80055be:	f7fc fbc7 	bl	8001d50 <HAL_GetTick>
 80055c2:	4602      	mov	r2, r0
 80055c4:	693b      	ldr	r3, [r7, #16]
 80055c6:	1ad3      	subs	r3, r2, r3
 80055c8:	2b02      	cmp	r3, #2
 80055ca:	d901      	bls.n	80055d0 <HAL_RCC_OscConfig+0x190>
 80055cc:	2303      	movs	r3, #3
 80055ce:	e1a8      	b.n	8005922 <HAL_RCC_OscConfig+0x4e2>
 80055d0:	4b2b      	ldr	r3, [pc, #172]	; (8005680 <HAL_RCC_OscConfig+0x240>)
 80055d2:	681b      	ldr	r3, [r3, #0]
 80055d4:	f003 0302 	and.w	r3, r3, #2
 80055d8:	2b00      	cmp	r3, #0
 80055da:	d0f0      	beq.n	80055be <HAL_RCC_OscConfig+0x17e>
 80055dc:	4b28      	ldr	r3, [pc, #160]	; (8005680 <HAL_RCC_OscConfig+0x240>)
 80055de:	681b      	ldr	r3, [r3, #0]
 80055e0:	f023 02f8 	bic.w	r2, r3, #248	; 0xf8
 80055e4:	687b      	ldr	r3, [r7, #4]
 80055e6:	691b      	ldr	r3, [r3, #16]
 80055e8:	00db      	lsls	r3, r3, #3
 80055ea:	4925      	ldr	r1, [pc, #148]	; (8005680 <HAL_RCC_OscConfig+0x240>)
 80055ec:	4313      	orrs	r3, r2
 80055ee:	600b      	str	r3, [r1, #0]
 80055f0:	e015      	b.n	800561e <HAL_RCC_OscConfig+0x1de>
 80055f2:	4b24      	ldr	r3, [pc, #144]	; (8005684 <HAL_RCC_OscConfig+0x244>)
 80055f4:	2200      	movs	r2, #0
 80055f6:	601a      	str	r2, [r3, #0]
 80055f8:	f7fc fbaa 	bl	8001d50 <HAL_GetTick>
 80055fc:	6138      	str	r0, [r7, #16]
 80055fe:	e008      	b.n	8005612 <HAL_RCC_OscConfig+0x1d2>
 8005600:	f7fc fba6 	bl	8001d50 <HAL_GetTick>
 8005604:	4602      	mov	r2, r0
 8005606:	693b      	ldr	r3, [r7, #16]
 8005608:	1ad3      	subs	r3, r2, r3
 800560a:	2b02      	cmp	r3, #2
 800560c:	d901      	bls.n	8005612 <HAL_RCC_OscConfig+0x1d2>
 800560e:	2303      	movs	r3, #3
 8005610:	e187      	b.n	8005922 <HAL_RCC_OscConfig+0x4e2>
 8005612:	4b1b      	ldr	r3, [pc, #108]	; (8005680 <HAL_RCC_OscConfig+0x240>)
 8005614:	681b      	ldr	r3, [r3, #0]
 8005616:	f003 0302 	and.w	r3, r3, #2
 800561a:	2b00      	cmp	r3, #0
 800561c:	d1f0      	bne.n	8005600 <HAL_RCC_OscConfig+0x1c0>
 800561e:	687b      	ldr	r3, [r7, #4]
 8005620:	681b      	ldr	r3, [r3, #0]
 8005622:	f003 0308 	and.w	r3, r3, #8
 8005626:	2b00      	cmp	r3, #0
 8005628:	d036      	beq.n	8005698 <HAL_RCC_OscConfig+0x258>
 800562a:	687b      	ldr	r3, [r7, #4]
 800562c:	695b      	ldr	r3, [r3, #20]
 800562e:	2b00      	cmp	r3, #0
 8005630:	d016      	beq.n	8005660 <HAL_RCC_OscConfig+0x220>
 8005632:	4b15      	ldr	r3, [pc, #84]	; (8005688 <HAL_RCC_OscConfig+0x248>)
 8005634:	2201      	movs	r2, #1
 8005636:	601a      	str	r2, [r3, #0]
 8005638:	f7fc fb8a 	bl	8001d50 <HAL_GetTick>
 800563c:	6138      	str	r0, [r7, #16]
 800563e:	e008      	b.n	8005652 <HAL_RCC_OscConfig+0x212>
 8005640:	f7fc fb86 	bl	8001d50 <HAL_GetTick>
 8005644:	4602      	mov	r2, r0
 8005646:	693b      	ldr	r3, [r7, #16]
 8005648:	1ad3      	subs	r3, r2, r3
 800564a:	2b02      	cmp	r3, #2
 800564c:	d901      	bls.n	8005652 <HAL_RCC_OscConfig+0x212>
 800564e:	2303      	movs	r3, #3
 8005650:	e167      	b.n	8005922 <HAL_RCC_OscConfig+0x4e2>
 8005652:	4b0b      	ldr	r3, [pc, #44]	; (8005680 <HAL_RCC_OscConfig+0x240>)
 8005654:	6f5b      	ldr	r3, [r3, #116]	; 0x74
 8005656:	f003 0302 	and.w	r3, r3, #2
 800565a:	2b00      	cmp	r3, #0
 800565c:	d0f0      	beq.n	8005640 <HAL_RCC_OscConfig+0x200>
 800565e:	e01b      	b.n	8005698 <HAL_RCC_OscConfig+0x258>
 8005660:	4b09      	ldr	r3, [pc, #36]	; (8005688 <HAL_RCC_OscConfig+0x248>)
 8005662:	2200      	movs	r2, #0
 8005664:	601a      	str	r2, [r3, #0]
 8005666:	f7fc fb73 	bl	8001d50 <HAL_GetTick>
 800566a:	6138      	str	r0, [r7, #16]
 800566c:	e00e      	b.n	800568c <HAL_RCC_OscConfig+0x24c>
 800566e:	f7fc fb6f 	bl	8001d50 <HAL_GetTick>
 8005672:	4602      	mov	r2, r0
 8005674:	693b      	ldr	r3, [r7, #16]
 8005676:	1ad3      	subs	r3, r2, r3
 8005678:	2b02      	cmp	r3, #2
 800567a:	d907      	bls.n	800568c <HAL_RCC_OscConfig+0x24c>
 800567c:	2303      	movs	r3, #3
 800567e:	e150      	b.n	8005922 <HAL_RCC_OscConfig+0x4e2>
 8005680:	40023800 	.word	0x40023800
 8005684:	42470000 	.word	0x42470000
 8005688:	42470e80 	.word	0x42470e80
 800568c:	4b88      	ldr	r3, [pc, #544]	; (80058b0 <HAL_RCC_OscConfig+0x470>)
 800568e:	6f5b      	ldr	r3, [r3, #116]	; 0x74
 8005690:	f003 0302 	and.w	r3, r3, #2
 8005694:	2b00      	cmp	r3, #0
 8005696:	d1ea      	bne.n	800566e <HAL_RCC_OscConfig+0x22e>
 8005698:	687b      	ldr	r3, [r7, #4]
 800569a:	681b      	ldr	r3, [r3, #0]
 800569c:	f003 0304 	and.w	r3, r3, #4
 80056a0:	2b00      	cmp	r3, #0
 80056a2:	f000 8097 	beq.w	80057d4 <HAL_RCC_OscConfig+0x394>
 80056a6:	2300      	movs	r3, #0
 80056a8:	75fb      	strb	r3, [r7, #23]
 80056aa:	4b81      	ldr	r3, [pc, #516]	; (80058b0 <HAL_RCC_OscConfig+0x470>)
 80056ac:	6c1b      	ldr	r3, [r3, #64]	; 0x40
 80056ae:	f003 5380 	and.w	r3, r3, #268435456	; 0x10000000
 80056b2:	2b00      	cmp	r3, #0
 80056b4:	d10f      	bne.n	80056d6 <HAL_RCC_OscConfig+0x296>
 80056b6:	2300      	movs	r3, #0
 80056b8:	60bb      	str	r3, [r7, #8]
 80056ba:	4b7d      	ldr	r3, [pc, #500]	; (80058b0 <HAL_RCC_OscConfig+0x470>)
 80056bc:	6c1b      	ldr	r3, [r3, #64]	; 0x40
 80056be:	4a7c      	ldr	r2, [pc, #496]	; (80058b0 <HAL_RCC_OscConfig+0x470>)
 80056c0:	f043 5380 	orr.w	r3, r3, #268435456	; 0x10000000
 80056c4:	6413      	str	r3, [r2, #64]	; 0x40
 80056c6:	4b7a      	ldr	r3, [pc, #488]	; (80058b0 <HAL_RCC_OscConfig+0x470>)
 80056c8:	6c1b      	ldr	r3, [r3, #64]	; 0x40
 80056ca:	f003 5380 	and.w	r3, r3, #268435456	; 0x10000000
 80056ce:	60bb      	str	r3, [r7, #8]
 80056d0:	68bb      	ldr	r3, [r7, #8]
 80056d2:	2301      	movs	r3, #1
 80056d4:	75fb      	strb	r3, [r7, #23]
 80056d6:	4b77      	ldr	r3, [pc, #476]	; (80058b4 <HAL_RCC_OscConfig+0x474>)
 80056d8:	681b      	ldr	r3, [r3, #0]
 80056da:	f403 7380 	and.w	r3, r3, #256	; 0x100
 80056de:	2b00      	cmp	r3, #0
 80056e0:	d118      	bne.n	8005714 <HAL_RCC_OscConfig+0x2d4>
 80056e2:	4b74      	ldr	r3, [pc, #464]	; (80058b4 <HAL_RCC_OscConfig+0x474>)
 80056e4:	681b      	ldr	r3, [r3, #0]
 80056e6:	4a73      	ldr	r2, [pc, #460]	; (80058b4 <HAL_RCC_OscConfig+0x474>)
 80056e8:	f443 7380 	orr.w	r3, r3, #256	; 0x100
 80056ec:	6013      	str	r3, [r2, #0]
 80056ee:	f7fc fb2f 	bl	8001d50 <HAL_GetTick>
 80056f2:	6138      	str	r0, [r7, #16]
 80056f4:	e008      	b.n	8005708 <HAL_RCC_OscConfig+0x2c8>
 80056f6:	f7fc fb2b 	bl	8001d50 <HAL_GetTick>
 80056fa:	4602      	mov	r2, r0
 80056fc:	693b      	ldr	r3, [r7, #16]
 80056fe:	1ad3      	subs	r3, r2, r3
 8005700:	2b02      	cmp	r3, #2
 8005702:	d901      	bls.n	8005708 <HAL_RCC_OscConfig+0x2c8>
 8005704:	2303      	movs	r3, #3
 8005706:	e10c      	b.n	8005922 <HAL_RCC_OscConfig+0x4e2>
 8005708:	4b6a      	ldr	r3, [pc, #424]	; (80058b4 <HAL_RCC_OscConfig+0x474>)
 800570a:	681b      	ldr	r3, [r3, #0]
 800570c:	f403 7380 	and.w	r3, r3, #256	; 0x100
 8005710:	2b00      	cmp	r3, #0
 8005712:	d0f0      	beq.n	80056f6 <HAL_RCC_OscConfig+0x2b6>
 8005714:	687b      	ldr	r3, [r7, #4]
 8005716:	689b      	ldr	r3, [r3, #8]
 8005718:	2b01      	cmp	r3, #1
 800571a:	d106      	bne.n	800572a <HAL_RCC_OscConfig+0x2ea>
 800571c:	4b64      	ldr	r3, [pc, #400]	; (80058b0 <HAL_RCC_OscConfig+0x470>)
 800571e:	6f1b      	ldr	r3, [r3, #112]	; 0x70
 8005720:	4a63      	ldr	r2, [pc, #396]	; (80058b0 <HAL_RCC_OscConfig+0x470>)
 8005722:	f043 0301 	orr.w	r3, r3, #1
 8005726:	6713      	str	r3, [r2, #112]	; 0x70
 8005728:	e01c      	b.n	8005764 <HAL_RCC_OscConfig+0x324>
 800572a:	687b      	ldr	r3, [r7, #4]
 800572c:	689b      	ldr	r3, [r3, #8]
 800572e:	2b05      	cmp	r3, #5
 8005730:	d10c      	bne.n	800574c <HAL_RCC_OscConfig+0x30c>
 8005732:	4b5f      	ldr	r3, [pc, #380]	; (80058b0 <HAL_RCC_OscConfig+0x470>)
 8005734:	6f1b      	ldr	r3, [r3, #112]	; 0x70
 8005736:	4a5e      	ldr	r2, [pc, #376]	; (80058b0 <HAL_RCC_OscConfig+0x470>)
 8005738:	f043 0304 	orr.w	r3, r3, #4
 800573c:	6713      	str	r3, [r2, #112]	; 0x70
 800573e:	4b5c      	ldr	r3, [pc, #368]	; (80058b0 <HAL_RCC_OscConfig+0x470>)
 8005740:	6f1b      	ldr	r3, [r3, #112]	; 0x70
 8005742:	4a5b      	ldr	r2, [pc, #364]	; (80058b0 <HAL_RCC_OscConfig+0x470>)
 8005744:	f043 0301 	orr.w	r3, r3, #1
 8005748:	6713      	str	r3, [r2, #112]	; 0x70
 800574a:	e00b      	b.n	8005764 <HAL_RCC_OscConfig+0x324>
 800574c:	4b58      	ldr	r3, [pc, #352]	; (80058b0 <HAL_RCC_OscConfig+0x470>)
 800574e:	6f1b      	ldr	r3, [r3, #112]	; 0x70
 8005750:	4a57      	ldr	r2, [pc, #348]	; (80058b0 <HAL_RCC_OscConfig+0x470>)
 8005752:	f023 0301 	bic.w	r3, r3, #1
 8005756:	6713      	str	r3, [r2, #112]	; 0x70
 8005758:	4b55      	ldr	r3, [pc, #340]	; (80058b0 <HAL_RCC_OscConfig+0x470>)
 800575a:	6f1b      	ldr	r3, [r3, #112]	; 0x70
 800575c:	4a54      	ldr	r2, [pc, #336]	; (80058b0 <HAL_RCC_OscConfig+0x470>)
 800575e:	f023 0304 	bic.w	r3, r3, #4
 8005762:	6713      	str	r3, [r2, #112]	; 0x70
 8005764:	687b      	ldr	r3, [r7, #4]
 8005766:	689b      	ldr	r3, [r3, #8]
 8005768:	2b00      	cmp	r3, #0
 800576a:	d015      	beq.n	8005798 <HAL_RCC_OscConfig+0x358>
 800576c:	f7fc faf0 	bl	8001d50 <HAL_GetTick>
 8005770:	6138      	str	r0, [r7, #16]
 8005772:	e00a      	b.n	800578a <HAL_RCC_OscConfig+0x34a>
 8005774:	f7fc faec 	bl	8001d50 <HAL_GetTick>
 8005778:	4602      	mov	r2, r0
 800577a:	693b      	ldr	r3, [r7, #16]
 800577c:	1ad3      	subs	r3, r2, r3
 800577e:	f241 3288 	movw	r2, #5000	; 0x1388
 8005782:	4293      	cmp	r3, r2
 8005784:	d901      	bls.n	800578a <HAL_RCC_OscConfig+0x34a>
 8005786:	2303      	movs	r3, #3
 8005788:	e0cb      	b.n	8005922 <HAL_RCC_OscConfig+0x4e2>
 800578a:	4b49      	ldr	r3, [pc, #292]	; (80058b0 <HAL_RCC_OscConfig+0x470>)
 800578c:	6f1b      	ldr	r3, [r3, #112]	; 0x70
 800578e:	f003 0302 	and.w	r3, r3, #2
 8005792:	2b00      	cmp	r3, #0
 8005794:	d0ee      	beq.n	8005774 <HAL_RCC_OscConfig+0x334>
 8005796:	e014      	b.n	80057c2 <HAL_RCC_OscConfig+0x382>
 8005798:	f7fc fada 	bl	8001d50 <HAL_GetTick>
 800579c:	6138      	str	r0, [r7, #16]
 800579e:	e00a      	b.n	80057b6 <HAL_RCC_OscConfig+0x376>
 80057a0:	f7fc fad6 	bl	8001d50 <HAL_GetTick>
 80057a4:	4602      	mov	r2, r0
 80057a6:	693b      	ldr	r3, [r7, #16]
 80057a8:	1ad3      	subs	r3, r2, r3
 80057aa:	f241 3288 	movw	r2, #5000	; 0x1388
 80057ae:	4293      	cmp	r3, r2
 80057b0:	d901      	bls.n	80057b6 <HAL_RCC_OscConfig+0x376>
 80057b2:	2303      	movs	r3, #3
 80057b4:	e0b5      	b.n	8005922 <HAL_RCC_OscConfig+0x4e2>
 80057b6:	4b3e      	ldr	r3, [pc, #248]	; (80058b0 <HAL_RCC_OscConfig+0x470>)
 80057b8:	6f1b      	ldr	r3, [r3, #112]	; 0x70
 80057ba:	f003 0302 	and.w	r3, r3, #2
 80057be:	2b00      	cmp	r3, #0
 80057c0:	d1ee      	bne.n	80057a0 <HAL_RCC_OscConfig+0x360>
 80057c2:	7dfb      	ldrb	r3, [r7, #23]
 80057c4:	2b01      	cmp	r3, #1
 80057c6:	d105      	bne.n	80057d4 <HAL_RCC_OscConfig+0x394>
 80057c8:	4b39      	ldr	r3, [pc, #228]	; (80058b0 <HAL_RCC_OscConfig+0x470>)
 80057ca:	6c1b      	ldr	r3, [r3, #64]	; 0x40
 80057cc:	4a38      	ldr	r2, [pc, #224]	; (80058b0 <HAL_RCC_OscConfig+0x470>)
 80057ce:	f023 5380 	bic.w	r3, r3, #268435456	; 0x10000000
 80057d2:	6413      	str	r3, [r2, #64]	; 0x40
 80057d4:	687b      	ldr	r3, [r7, #4]
 80057d6:	699b      	ldr	r3, [r3, #24]
 80057d8:	2b00      	cmp	r3, #0
 80057da:	f000 80a1 	beq.w	8005920 <HAL_RCC_OscConfig+0x4e0>
 80057de:	4b34      	ldr	r3, [pc, #208]	; (80058b0 <HAL_RCC_OscConfig+0x470>)
 80057e0:	689b      	ldr	r3, [r3, #8]
 80057e2:	f003 030c 	and.w	r3, r3, #12
 80057e6:	2b08      	cmp	r3, #8
 80057e8:	d05c      	beq.n	80058a4 <HAL_RCC_OscConfig+0x464>
 80057ea:	687b      	ldr	r3, [r7, #4]
 80057ec:	699b      	ldr	r3, [r3, #24]
 80057ee:	2b02      	cmp	r3, #2
 80057f0:	d141      	bne.n	8005876 <HAL_RCC_OscConfig+0x436>
 80057f2:	4b31      	ldr	r3, [pc, #196]	; (80058b8 <HAL_RCC_OscConfig+0x478>)
 80057f4:	2200      	movs	r2, #0
 80057f6:	601a      	str	r2, [r3, #0]
 80057f8:	f7fc faaa 	bl	8001d50 <HAL_GetTick>
 80057fc:	6138      	str	r0, [r7, #16]
 80057fe:	e008      	b.n	8005812 <HAL_RCC_OscConfig+0x3d2>
 8005800:	f7fc faa6 	bl	8001d50 <HAL_GetTick>
 8005804:	4602      	mov	r2, r0
 8005806:	693b      	ldr	r3, [r7, #16]
 8005808:	1ad3      	subs	r3, r2, r3
 800580a:	2b02      	cmp	r3, #2
 800580c:	d901      	bls.n	8005812 <HAL_RCC_OscConfig+0x3d2>
 800580e:	2303      	movs	r3, #3
 8005810:	e087      	b.n	8005922 <HAL_RCC_OscConfig+0x4e2>
 8005812:	4b27      	ldr	r3, [pc, #156]	; (80058b0 <HAL_RCC_OscConfig+0x470>)
 8005814:	681b      	ldr	r3, [r3, #0]
 8005816:	f003 7300 	and.w	r3, r3, #33554432	; 0x2000000
 800581a:	2b00      	cmp	r3, #0
 800581c:	d1f0      	bne.n	8005800 <HAL_RCC_OscConfig+0x3c0>
 800581e:	687b      	ldr	r3, [r7, #4]
 8005820:	69da      	ldr	r2, [r3, #28]
 8005822:	687b      	ldr	r3, [r7, #4]
 8005824:	6a1b      	ldr	r3, [r3, #32]
 8005826:	431a      	orrs	r2, r3
 8005828:	687b      	ldr	r3, [r7, #4]
 800582a:	6a5b      	ldr	r3, [r3, #36]	; 0x24
 800582c:	019b      	lsls	r3, r3, #6
 800582e:	431a      	orrs	r2, r3
 8005830:	687b      	ldr	r3, [r7, #4]
 8005832:	6a9b      	ldr	r3, [r3, #40]	; 0x28
 8005834:	085b      	lsrs	r3, r3, #1
 8005836:	3b01      	subs	r3, #1
 8005838:	041b      	lsls	r3, r3, #16
 800583a:	431a      	orrs	r2, r3
 800583c:	687b      	ldr	r3, [r7, #4]
 800583e:	6adb      	ldr	r3, [r3, #44]	; 0x2c
 8005840:	061b      	lsls	r3, r3, #24
 8005842:	491b      	ldr	r1, [pc, #108]	; (80058b0 <HAL_RCC_OscConfig+0x470>)
 8005844:	4313      	orrs	r3, r2
 8005846:	604b      	str	r3, [r1, #4]
 8005848:	4b1b      	ldr	r3, [pc, #108]	; (80058b8 <HAL_RCC_OscConfig+0x478>)
 800584a:	2201      	movs	r2, #1
 800584c:	601a      	str	r2, [r3, #0]
 800584e:	f7fc fa7f 	bl	8001d50 <HAL_GetTick>
 8005852:	6138      	str	r0, [r7, #16]
 8005854:	e008      	b.n	8005868 <HAL_RCC_OscConfig+0x428>
 8005856:	f7fc fa7b 	bl	8001d50 <HAL_GetTick>
 800585a:	4602      	mov	r2, r0
 800585c:	693b      	ldr	r3, [r7, #16]
 800585e:	1ad3      	subs	r3, r2, r3
 8005860:	2b02      	cmp	r3, #2
 8005862:	d901      	bls.n	8005868 <HAL_RCC_OscConfig+0x428>
 8005864:	2303      	movs	r3, #3
 8005866:	e05c      	b.n	8005922 <HAL_RCC_OscConfig+0x4e2>
 8005868:	4b11      	ldr	r3, [pc, #68]	; (80058b0 <HAL_RCC_OscConfig+0x470>)
 800586a:	681b      	ldr	r3, [r3, #0]
 800586c:	f003 7300 	and.w	r3, r3, #33554432	; 0x2000000
 8005870:	2b00      	cmp	r3, #0
 8005872:	d0f0      	beq.n	8005856 <HAL_RCC_OscConfig+0x416>
 8005874:	e054      	b.n	8005920 <HAL_RCC_OscConfig+0x4e0>
 8005876:	4b10      	ldr	r3, [pc, #64]	; (80058b8 <HAL_RCC_OscConfig+0x478>)
 8005878:	2200      	movs	r2, #0
 800587a:	601a      	str	r2, [r3, #0]
 800587c:	f7fc fa68 	bl	8001d50 <HAL_GetTick>
 8005880:	6138      	str	r0, [r7, #16]
 8005882:	e008      	b.n	8005896 <HAL_RCC_OscConfig+0x456>
 8005884:	f7fc fa64 	bl	8001d50 <HAL_GetTick>
 8005888:	4602      	mov	r2, r0
 800588a:	693b      	ldr	r3, [r7, #16]
 800588c:	1ad3      	subs	r3, r2, r3
 800588e:	2b02      	cmp	r3, #2
 8005890:	d901      	bls.n	8005896 <HAL_RCC_OscConfig+0x456>
 8005892:	2303      	movs	r3, #3
 8005894:	e045      	b.n	8005922 <HAL_RCC_OscConfig+0x4e2>
 8005896:	4b06      	ldr	r3, [pc, #24]	; (80058b0 <HAL_RCC_OscConfig+0x470>)
 8005898:	681b      	ldr	r3, [r3, #0]
 800589a:	f003 7300 	and.w	r3, r3, #33554432	; 0x2000000
 800589e:	2b00      	cmp	r3, #0
 80058a0:	d1f0      	bne.n	8005884 <HAL_RCC_OscConfig+0x444>
 80058a2:	e03d      	b.n	8005920 <HAL_RCC_OscConfig+0x4e0>
 80058a4:	687b      	ldr	r3, [r7, #4]
 80058a6:	699b      	ldr	r3, [r3, #24]
 80058a8:	2b01      	cmp	r3, #1
 80058aa:	d107      	bne.n	80058bc <HAL_RCC_OscConfig+0x47c>
 80058ac:	2301      	movs	r3, #1
 80058ae:	e038      	b.n	8005922 <HAL_RCC_OscConfig+0x4e2>
 80058b0:	40023800 	.word	0x40023800
 80058b4:	40007000 	.word	0x40007000
 80058b8:	42470060 	.word	0x42470060
 80058bc:	4b1b      	ldr	r3, [pc, #108]	; (800592c <HAL_RCC_OscConfig+0x4ec>)
 80058be:	685b      	ldr	r3, [r3, #4]
 80058c0:	60fb      	str	r3, [r7, #12]
 80058c2:	687b      	ldr	r3, [r7, #4]
 80058c4:	699b      	ldr	r3, [r3, #24]
 80058c6:	2b01      	cmp	r3, #1
 80058c8:	d028      	beq.n	800591c <HAL_RCC_OscConfig+0x4dc>
 80058ca:	68fb      	ldr	r3, [r7, #12]
 80058cc:	f403 0280 	and.w	r2, r3, #4194304	; 0x400000
 80058d0:	687b      	ldr	r3, [r7, #4]
 80058d2:	69db      	ldr	r3, [r3, #28]
 80058d4:	429a      	cmp	r2, r3
 80058d6:	d121      	bne.n	800591c <HAL_RCC_OscConfig+0x4dc>
 80058d8:	68fb      	ldr	r3, [r7, #12]
 80058da:	f003 023f 	and.w	r2, r3, #63	; 0x3f
 80058de:	687b      	ldr	r3, [r7, #4]
 80058e0:	6a1b      	ldr	r3, [r3, #32]
 80058e2:	429a      	cmp	r2, r3
 80058e4:	d11a      	bne.n	800591c <HAL_RCC_OscConfig+0x4dc>
 80058e6:	68fa      	ldr	r2, [r7, #12]
 80058e8:	f647 73c0 	movw	r3, #32704	; 0x7fc0
 80058ec:	4013      	ands	r3, r2
 80058ee:	687a      	ldr	r2, [r7, #4]
 80058f0:	6a52      	ldr	r2, [r2, #36]	; 0x24
 80058f2:	0192      	lsls	r2, r2, #6
 80058f4:	4293      	cmp	r3, r2
 80058f6:	d111      	bne.n	800591c <HAL_RCC_OscConfig+0x4dc>
 80058f8:	68fb      	ldr	r3, [r7, #12]
 80058fa:	f403 3240 	and.w	r2, r3, #196608	; 0x30000
 80058fe:	687b      	ldr	r3, [r7, #4]
 8005900:	6a9b      	ldr	r3, [r3, #40]	; 0x28
 8005902:	085b      	lsrs	r3, r3, #1
 8005904:	3b01      	subs	r3, #1
 8005906:	041b      	lsls	r3, r3, #16
 8005908:	429a      	cmp	r2, r3
 800590a:	d107      	bne.n	800591c <HAL_RCC_OscConfig+0x4dc>
 800590c:	68fb      	ldr	r3, [r7, #12]
 800590e:	f003 6270 	and.w	r2, r3, #251658240	; 0xf000000
 8005912:	687b      	ldr	r3, [r7, #4]
 8005914:	6adb      	ldr	r3, [r3, #44]	; 0x2c
 8005916:	061b      	lsls	r3, r3, #24
 8005918:	429a      	cmp	r2, r3
 800591a:	d001      	beq.n	8005920 <HAL_RCC_OscConfig+0x4e0>
 800591c:	2301      	movs	r3, #1
 800591e:	e000      	b.n	8005922 <HAL_RCC_OscConfig+0x4e2>
 8005920:	2300      	movs	r3, #0
 8005922:	4618      	mov	r0, r3
 8005924:	3718      	adds	r7, #24
 8005926:	46bd      	mov	sp, r7
 8005928:	bd80      	pop	{r7, pc}
 800592a:	bf00      	nop
 800592c:	40023800 	.word	0x40023800

08005930 <HAL_RCC_ClockConfig>:
 8005930:	b580      	push	{r7, lr}
 8005932:	b084      	sub	sp, #16
 8005934:	af00      	add	r7, sp, #0
 8005936:	6078      	str	r0, [r7, #4]
 8005938:	6039      	str	r1, [r7, #0]
 800593a:	687b      	ldr	r3, [r7, #4]
 800593c:	2b00      	cmp	r3, #0
 800593e:	d101      	bne.n	8005944 <HAL_RCC_ClockConfig+0x14>
 8005940:	2301      	movs	r3, #1
 8005942:	e0cc      	b.n	8005ade <HAL_RCC_ClockConfig+0x1ae>
 8005944:	4b68      	ldr	r3, [pc, #416]	; (8005ae8 <HAL_RCC_ClockConfig+0x1b8>)
 8005946:	681b      	ldr	r3, [r3, #0]
 8005948:	f003 0307 	and.w	r3, r3, #7
 800594c:	683a      	ldr	r2, [r7, #0]
 800594e:	429a      	cmp	r2, r3
 8005950:	d90c      	bls.n	800596c <HAL_RCC_ClockConfig+0x3c>
 8005952:	4b65      	ldr	r3, [pc, #404]	; (8005ae8 <HAL_RCC_ClockConfig+0x1b8>)
 8005954:	683a      	ldr	r2, [r7, #0]
 8005956:	b2d2      	uxtb	r2, r2
 8005958:	701a      	strb	r2, [r3, #0]
 800595a:	4b63      	ldr	r3, [pc, #396]	; (8005ae8 <HAL_RCC_ClockConfig+0x1b8>)
 800595c:	681b      	ldr	r3, [r3, #0]
 800595e:	f003 0307 	and.w	r3, r3, #7
 8005962:	683a      	ldr	r2, [r7, #0]
 8005964:	429a      	cmp	r2, r3
 8005966:	d001      	beq.n	800596c <HAL_RCC_ClockConfig+0x3c>
 8005968:	2301      	movs	r3, #1
 800596a:	e0b8      	b.n	8005ade <HAL_RCC_ClockConfig+0x1ae>
 800596c:	687b      	ldr	r3, [r7, #4]
 800596e:	681b      	ldr	r3, [r3, #0]
 8005970:	f003 0302 	and.w	r3, r3, #2
 8005974:	2b00      	cmp	r3, #0
 8005976:	d020      	beq.n	80059ba <HAL_RCC_ClockConfig+0x8a>
 8005978:	687b      	ldr	r3, [r7, #4]
 800597a:	681b      	ldr	r3, [r3, #0]
 800597c:	f003 0304 	and.w	r3, r3, #4
 8005980:	2b00      	cmp	r3, #0
 8005982:	d005      	beq.n	8005990 <HAL_RCC_ClockConfig+0x60>
 8005984:	4b59      	ldr	r3, [pc, #356]	; (8005aec <HAL_RCC_ClockConfig+0x1bc>)
 8005986:	689b      	ldr	r3, [r3, #8]
 8005988:	4a58      	ldr	r2, [pc, #352]	; (8005aec <HAL_RCC_ClockConfig+0x1bc>)
 800598a:	f443 53e0 	orr.w	r3, r3, #7168	; 0x1c00
 800598e:	6093      	str	r3, [r2, #8]
 8005990:	687b      	ldr	r3, [r7, #4]
 8005992:	681b      	ldr	r3, [r3, #0]
 8005994:	f003 0308 	and.w	r3, r3, #8
 8005998:	2b00      	cmp	r3, #0
 800599a:	d005      	beq.n	80059a8 <HAL_RCC_ClockConfig+0x78>
 800599c:	4b53      	ldr	r3, [pc, #332]	; (8005aec <HAL_RCC_ClockConfig+0x1bc>)
 800599e:	689b      	ldr	r3, [r3, #8]
 80059a0:	4a52      	ldr	r2, [pc, #328]	; (8005aec <HAL_RCC_ClockConfig+0x1bc>)
 80059a2:	f443 4360 	orr.w	r3, r3, #57344	; 0xe000
 80059a6:	6093      	str	r3, [r2, #8]
 80059a8:	4b50      	ldr	r3, [pc, #320]	; (8005aec <HAL_RCC_ClockConfig+0x1bc>)
 80059aa:	689b      	ldr	r3, [r3, #8]
 80059ac:	f023 02f0 	bic.w	r2, r3, #240	; 0xf0
 80059b0:	687b      	ldr	r3, [r7, #4]
 80059b2:	689b      	ldr	r3, [r3, #8]
 80059b4:	494d      	ldr	r1, [pc, #308]	; (8005aec <HAL_RCC_ClockConfig+0x1bc>)
 80059b6:	4313      	orrs	r3, r2
 80059b8:	608b      	str	r3, [r1, #8]
 80059ba:	687b      	ldr	r3, [r7, #4]
 80059bc:	681b      	ldr	r3, [r3, #0]
 80059be:	f003 0301 	and.w	r3, r3, #1
 80059c2:	2b00      	cmp	r3, #0
 80059c4:	d044      	beq.n	8005a50 <HAL_RCC_ClockConfig+0x120>
 80059c6:	687b      	ldr	r3, [r7, #4]
 80059c8:	685b      	ldr	r3, [r3, #4]
 80059ca:	2b01      	cmp	r3, #1
 80059cc:	d107      	bne.n	80059de <HAL_RCC_ClockConfig+0xae>
 80059ce:	4b47      	ldr	r3, [pc, #284]	; (8005aec <HAL_RCC_ClockConfig+0x1bc>)
 80059d0:	681b      	ldr	r3, [r3, #0]
 80059d2:	f403 3300 	and.w	r3, r3, #131072	; 0x20000
 80059d6:	2b00      	cmp	r3, #0
 80059d8:	d119      	bne.n	8005a0e <HAL_RCC_ClockConfig+0xde>
 80059da:	2301      	movs	r3, #1
 80059dc:	e07f      	b.n	8005ade <HAL_RCC_ClockConfig+0x1ae>
 80059de:	687b      	ldr	r3, [r7, #4]
 80059e0:	685b      	ldr	r3, [r3, #4]
 80059e2:	2b02      	cmp	r3, #2
 80059e4:	d003      	beq.n	80059ee <HAL_RCC_ClockConfig+0xbe>
 80059e6:	687b      	ldr	r3, [r7, #4]
 80059e8:	685b      	ldr	r3, [r3, #4]
 80059ea:	2b03      	cmp	r3, #3
 80059ec:	d107      	bne.n	80059fe <HAL_RCC_ClockConfig+0xce>
 80059ee:	4b3f      	ldr	r3, [pc, #252]	; (8005aec <HAL_RCC_ClockConfig+0x1bc>)
 80059f0:	681b      	ldr	r3, [r3, #0]
 80059f2:	f003 7300 	and.w	r3, r3, #33554432	; 0x2000000
 80059f6:	2b00      	cmp	r3, #0
 80059f8:	d109      	bne.n	8005a0e <HAL_RCC_ClockConfig+0xde>
 80059fa:	2301      	movs	r3, #1
 80059fc:	e06f      	b.n	8005ade <HAL_RCC_ClockConfig+0x1ae>
 80059fe:	4b3b      	ldr	r3, [pc, #236]	; (8005aec <HAL_RCC_ClockConfig+0x1bc>)
 8005a00:	681b      	ldr	r3, [r3, #0]
 8005a02:	f003 0302 	and.w	r3, r3, #2
 8005a06:	2b00      	cmp	r3, #0
 8005a08:	d101      	bne.n	8005a0e <HAL_RCC_ClockConfig+0xde>
 8005a0a:	2301      	movs	r3, #1
 8005a0c:	e067      	b.n	8005ade <HAL_RCC_ClockConfig+0x1ae>
 8005a0e:	4b37      	ldr	r3, [pc, #220]	; (8005aec <HAL_RCC_ClockConfig+0x1bc>)
 8005a10:	689b      	ldr	r3, [r3, #8]
 8005a12:	f023 0203 	bic.w	r2, r3, #3
 8005a16:	687b      	ldr	r3, [r7, #4]
 8005a18:	685b      	ldr	r3, [r3, #4]
 8005a1a:	4934      	ldr	r1, [pc, #208]	; (8005aec <HAL_RCC_ClockConfig+0x1bc>)
 8005a1c:	4313      	orrs	r3, r2
 8005a1e:	608b      	str	r3, [r1, #8]
 8005a20:	f7fc f996 	bl	8001d50 <HAL_GetTick>
 8005a24:	60f8      	str	r0, [r7, #12]
 8005a26:	e00a      	b.n	8005a3e <HAL_RCC_ClockConfig+0x10e>
 8005a28:	f7fc f992 	bl	8001d50 <HAL_GetTick>
 8005a2c:	4602      	mov	r2, r0
 8005a2e:	68fb      	ldr	r3, [r7, #12]
 8005a30:	1ad3      	subs	r3, r2, r3
 8005a32:	f241 3288 	movw	r2, #5000	; 0x1388
 8005a36:	4293      	cmp	r3, r2
 8005a38:	d901      	bls.n	8005a3e <HAL_RCC_ClockConfig+0x10e>
 8005a3a:	2303      	movs	r3, #3
 8005a3c:	e04f      	b.n	8005ade <HAL_RCC_ClockConfig+0x1ae>
 8005a3e:	4b2b      	ldr	r3, [pc, #172]	; (8005aec <HAL_RCC_ClockConfig+0x1bc>)
 8005a40:	689b      	ldr	r3, [r3, #8]
 8005a42:	f003 020c 	and.w	r2, r3, #12
 8005a46:	687b      	ldr	r3, [r7, #4]
 8005a48:	685b      	ldr	r3, [r3, #4]
 8005a4a:	009b      	lsls	r3, r3, #2
 8005a4c:	429a      	cmp	r2, r3
 8005a4e:	d1eb      	bne.n	8005a28 <HAL_RCC_ClockConfig+0xf8>
 8005a50:	4b25      	ldr	r3, [pc, #148]	; (8005ae8 <HAL_RCC_ClockConfig+0x1b8>)
 8005a52:	681b      	ldr	r3, [r3, #0]
 8005a54:	f003 0307 	and.w	r3, r3, #7
 8005a58:	683a      	ldr	r2, [r7, #0]
 8005a5a:	429a      	cmp	r2, r3
 8005a5c:	d20c      	bcs.n	8005a78 <HAL_RCC_ClockConfig+0x148>
 8005a5e:	4b22      	ldr	r3, [pc, #136]	; (8005ae8 <HAL_RCC_ClockConfig+0x1b8>)
 8005a60:	683a      	ldr	r2, [r7, #0]
 8005a62:	b2d2      	uxtb	r2, r2
 8005a64:	701a      	strb	r2, [r3, #0]
 8005a66:	4b20      	ldr	r3, [pc, #128]	; (8005ae8 <HAL_RCC_ClockConfig+0x1b8>)
 8005a68:	681b      	ldr	r3, [r3, #0]
 8005a6a:	f003 0307 	and.w	r3, r3, #7
 8005a6e:	683a      	ldr	r2, [r7, #0]
 8005a70:	429a      	cmp	r2, r3
 8005a72:	d001      	beq.n	8005a78 <HAL_RCC_ClockConfig+0x148>
 8005a74:	2301      	movs	r3, #1
 8005a76:	e032      	b.n	8005ade <HAL_RCC_ClockConfig+0x1ae>
 8005a78:	687b      	ldr	r3, [r7, #4]
 8005a7a:	681b      	ldr	r3, [r3, #0]
 8005a7c:	f003 0304 	and.w	r3, r3, #4
 8005a80:	2b00      	cmp	r3, #0
 8005a82:	d008      	beq.n	8005a96 <HAL_RCC_ClockConfig+0x166>
 8005a84:	4b19      	ldr	r3, [pc, #100]	; (8005aec <HAL_RCC_ClockConfig+0x1bc>)
 8005a86:	689b      	ldr	r3, [r3, #8]
 8005a88:	f423 52e0 	bic.w	r2, r3, #7168	; 0x1c00
 8005a8c:	687b      	ldr	r3, [r7, #4]
 8005a8e:	68db      	ldr	r3, [r3, #12]
 8005a90:	4916      	ldr	r1, [pc, #88]	; (8005aec <HAL_RCC_ClockConfig+0x1bc>)
 8005a92:	4313      	orrs	r3, r2
 8005a94:	608b      	str	r3, [r1, #8]
 8005a96:	687b      	ldr	r3, [r7, #4]
 8005a98:	681b      	ldr	r3, [r3, #0]
 8005a9a:	f003 0308 	and.w	r3, r3, #8
 8005a9e:	2b00      	cmp	r3, #0
 8005aa0:	d009      	beq.n	8005ab6 <HAL_RCC_ClockConfig+0x186>
 8005aa2:	4b12      	ldr	r3, [pc, #72]	; (8005aec <HAL_RCC_ClockConfig+0x1bc>)
 8005aa4:	689b      	ldr	r3, [r3, #8]
 8005aa6:	f423 4260 	bic.w	r2, r3, #57344	; 0xe000
 8005aaa:	687b      	ldr	r3, [r7, #4]
 8005aac:	691b      	ldr	r3, [r3, #16]
 8005aae:	00db      	lsls	r3, r3, #3
 8005ab0:	490e      	ldr	r1, [pc, #56]	; (8005aec <HAL_RCC_ClockConfig+0x1bc>)
 8005ab2:	4313      	orrs	r3, r2
 8005ab4:	608b      	str	r3, [r1, #8]
 8005ab6:	f000 f821 	bl	8005afc <HAL_RCC_GetSysClockFreq>
 8005aba:	4602      	mov	r2, r0
 8005abc:	4b0b      	ldr	r3, [pc, #44]	; (8005aec <HAL_RCC_ClockConfig+0x1bc>)
 8005abe:	689b      	ldr	r3, [r3, #8]
 8005ac0:	091b      	lsrs	r3, r3, #4
 8005ac2:	f003 030f 	and.w	r3, r3, #15
 8005ac6:	490a      	ldr	r1, [pc, #40]	; (8005af0 <HAL_RCC_ClockConfig+0x1c0>)
 8005ac8:	5ccb      	ldrb	r3, [r1, r3]
 8005aca:	fa22 f303 	lsr.w	r3, r2, r3
 8005ace:	4a09      	ldr	r2, [pc, #36]	; (8005af4 <HAL_RCC_ClockConfig+0x1c4>)
 8005ad0:	6013      	str	r3, [r2, #0]
 8005ad2:	4b09      	ldr	r3, [pc, #36]	; (8005af8 <HAL_RCC_ClockConfig+0x1c8>)
 8005ad4:	681b      	ldr	r3, [r3, #0]
 8005ad6:	4618      	mov	r0, r3
 8005ad8:	f7fc f8f6 	bl	8001cc8 <HAL_InitTick>
 8005adc:	2300      	movs	r3, #0
 8005ade:	4618      	mov	r0, r3
 8005ae0:	3710      	adds	r7, #16
 8005ae2:	46bd      	mov	sp, r7
 8005ae4:	bd80      	pop	{r7, pc}
 8005ae6:	bf00      	nop
 8005ae8:	40023c00 	.word	0x40023c00
 8005aec:	40023800 	.word	0x40023800
 8005af0:	0800ae60 	.word	0x0800ae60
 8005af4:	20000000 	.word	0x20000000
 8005af8:	20000004 	.word	0x20000004

08005afc <HAL_RCC_GetSysClockFreq>:
 8005afc:	e92d 4fb0 	stmdb	sp!, {r4, r5, r7, r8, r9, sl, fp, lr}
 8005b00:	b090      	sub	sp, #64	; 0x40
 8005b02:	af00      	add	r7, sp, #0
 8005b04:	2300      	movs	r3, #0
 8005b06:	637b      	str	r3, [r7, #52]	; 0x34
 8005b08:	2300      	movs	r3, #0
 8005b0a:	63fb      	str	r3, [r7, #60]	; 0x3c
 8005b0c:	2300      	movs	r3, #0
 8005b0e:	633b      	str	r3, [r7, #48]	; 0x30
 8005b10:	2300      	movs	r3, #0
 8005b12:	63bb      	str	r3, [r7, #56]	; 0x38
 8005b14:	4b59      	ldr	r3, [pc, #356]	; (8005c7c <HAL_RCC_GetSysClockFreq+0x180>)
 8005b16:	689b      	ldr	r3, [r3, #8]
 8005b18:	f003 030c 	and.w	r3, r3, #12
 8005b1c:	2b08      	cmp	r3, #8
 8005b1e:	d00d      	beq.n	8005b3c <HAL_RCC_GetSysClockFreq+0x40>
 8005b20:	2b08      	cmp	r3, #8
 8005b22:	f200 80a1 	bhi.w	8005c68 <HAL_RCC_GetSysClockFreq+0x16c>
 8005b26:	2b00      	cmp	r3, #0
 8005b28:	d002      	beq.n	8005b30 <HAL_RCC_GetSysClockFreq+0x34>
 8005b2a:	2b04      	cmp	r3, #4
 8005b2c:	d003      	beq.n	8005b36 <HAL_RCC_GetSysClockFreq+0x3a>
 8005b2e:	e09b      	b.n	8005c68 <HAL_RCC_GetSysClockFreq+0x16c>
 8005b30:	4b53      	ldr	r3, [pc, #332]	; (8005c80 <HAL_RCC_GetSysClockFreq+0x184>)
 8005b32:	63bb      	str	r3, [r7, #56]	; 0x38
 8005b34:	e09b      	b.n	8005c6e <HAL_RCC_GetSysClockFreq+0x172>
 8005b36:	4b53      	ldr	r3, [pc, #332]	; (8005c84 <HAL_RCC_GetSysClockFreq+0x188>)
 8005b38:	63bb      	str	r3, [r7, #56]	; 0x38
 8005b3a:	e098      	b.n	8005c6e <HAL_RCC_GetSysClockFreq+0x172>
 8005b3c:	4b4f      	ldr	r3, [pc, #316]	; (8005c7c <HAL_RCC_GetSysClockFreq+0x180>)
 8005b3e:	685b      	ldr	r3, [r3, #4]
 8005b40:	f003 033f 	and.w	r3, r3, #63	; 0x3f
 8005b44:	637b      	str	r3, [r7, #52]	; 0x34
 8005b46:	4b4d      	ldr	r3, [pc, #308]	; (8005c7c <HAL_RCC_GetSysClockFreq+0x180>)
 8005b48:	685b      	ldr	r3, [r3, #4]
 8005b4a:	f403 0380 	and.w	r3, r3, #4194304	; 0x400000
 8005b4e:	2b00      	cmp	r3, #0
 8005b50:	d028      	beq.n	8005ba4 <HAL_RCC_GetSysClockFreq+0xa8>
 8005b52:	4b4a      	ldr	r3, [pc, #296]	; (8005c7c <HAL_RCC_GetSysClockFreq+0x180>)
 8005b54:	685b      	ldr	r3, [r3, #4]
 8005b56:	099b      	lsrs	r3, r3, #6
 8005b58:	2200      	movs	r2, #0
 8005b5a:	623b      	str	r3, [r7, #32]
 8005b5c:	627a      	str	r2, [r7, #36]	; 0x24
 8005b5e:	6a3b      	ldr	r3, [r7, #32]
 8005b60:	f3c3 0008 	ubfx	r0, r3, #0, #9
 8005b64:	2100      	movs	r1, #0
 8005b66:	4b47      	ldr	r3, [pc, #284]	; (8005c84 <HAL_RCC_GetSysClockFreq+0x188>)
 8005b68:	fb03 f201 	mul.w	r2, r3, r1
 8005b6c:	2300      	movs	r3, #0
 8005b6e:	fb00 f303 	mul.w	r3, r0, r3
 8005b72:	4413      	add	r3, r2
 8005b74:	4a43      	ldr	r2, [pc, #268]	; (8005c84 <HAL_RCC_GetSysClockFreq+0x188>)
 8005b76:	fba0 1202 	umull	r1, r2, r0, r2
 8005b7a:	62fa      	str	r2, [r7, #44]	; 0x2c
 8005b7c:	460a      	mov	r2, r1
 8005b7e:	62ba      	str	r2, [r7, #40]	; 0x28
 8005b80:	6afa      	ldr	r2, [r7, #44]	; 0x2c
 8005b82:	4413      	add	r3, r2
 8005b84:	62fb      	str	r3, [r7, #44]	; 0x2c
 8005b86:	6b7b      	ldr	r3, [r7, #52]	; 0x34
 8005b88:	2200      	movs	r2, #0
 8005b8a:	61bb      	str	r3, [r7, #24]
 8005b8c:	61fa      	str	r2, [r7, #28]
 8005b8e:	e9d7 2306 	ldrd	r2, r3, [r7, #24]
 8005b92:	e9d7 010a 	ldrd	r0, r1, [r7, #40]	; 0x28
 8005b96:	f7fa fb1f 	bl	80001d8 <__aeabi_uldivmod>
 8005b9a:	4602      	mov	r2, r0
 8005b9c:	460b      	mov	r3, r1
 8005b9e:	4613      	mov	r3, r2
 8005ba0:	63fb      	str	r3, [r7, #60]	; 0x3c
 8005ba2:	e053      	b.n	8005c4c <HAL_RCC_GetSysClockFreq+0x150>
 8005ba4:	4b35      	ldr	r3, [pc, #212]	; (8005c7c <HAL_RCC_GetSysClockFreq+0x180>)
 8005ba6:	685b      	ldr	r3, [r3, #4]
 8005ba8:	099b      	lsrs	r3, r3, #6
 8005baa:	2200      	movs	r2, #0
 8005bac:	613b      	str	r3, [r7, #16]
 8005bae:	617a      	str	r2, [r7, #20]
 8005bb0:	693b      	ldr	r3, [r7, #16]
 8005bb2:	f3c3 0a08 	ubfx	sl, r3, #0, #9
 8005bb6:	f04f 0b00 	mov.w	fp, #0
 8005bba:	4652      	mov	r2, sl
 8005bbc:	465b      	mov	r3, fp
 8005bbe:	f04f 0000 	mov.w	r0, #0
 8005bc2:	f04f 0100 	mov.w	r1, #0
 8005bc6:	0159      	lsls	r1, r3, #5
 8005bc8:	ea41 61d2 	orr.w	r1, r1, r2, lsr #27
 8005bcc:	0150      	lsls	r0, r2, #5
 8005bce:	4602      	mov	r2, r0
 8005bd0:	460b      	mov	r3, r1
 8005bd2:	ebb2 080a 	subs.w	r8, r2, sl
 8005bd6:	eb63 090b 	sbc.w	r9, r3, fp
 8005bda:	f04f 0200 	mov.w	r2, #0
 8005bde:	f04f 0300 	mov.w	r3, #0
 8005be2:	ea4f 1389 	mov.w	r3, r9, lsl #6
 8005be6:	ea43 6398 	orr.w	r3, r3, r8, lsr #26
 8005bea:	ea4f 1288 	mov.w	r2, r8, lsl #6
 8005bee:	ebb2 0408 	subs.w	r4, r2, r8
 8005bf2:	eb63 0509 	sbc.w	r5, r3, r9
 8005bf6:	f04f 0200 	mov.w	r2, #0
 8005bfa:	f04f 0300 	mov.w	r3, #0
 8005bfe:	00eb      	lsls	r3, r5, #3
 8005c00:	ea43 7354 	orr.w	r3, r3, r4, lsr #29
 8005c04:	00e2      	lsls	r2, r4, #3
 8005c06:	4614      	mov	r4, r2
 8005c08:	461d      	mov	r5, r3
 8005c0a:	eb14 030a 	adds.w	r3, r4, sl
 8005c0e:	603b      	str	r3, [r7, #0]
 8005c10:	eb45 030b 	adc.w	r3, r5, fp
 8005c14:	607b      	str	r3, [r7, #4]
 8005c16:	f04f 0200 	mov.w	r2, #0
 8005c1a:	f04f 0300 	mov.w	r3, #0
 8005c1e:	e9d7 4500 	ldrd	r4, r5, [r7]
 8005c22:	4629      	mov	r1, r5
 8005c24:	028b      	lsls	r3, r1, #10
 8005c26:	4621      	mov	r1, r4
 8005c28:	ea43 5391 	orr.w	r3, r3, r1, lsr #22
 8005c2c:	4621      	mov	r1, r4
 8005c2e:	028a      	lsls	r2, r1, #10
 8005c30:	4610      	mov	r0, r2
 8005c32:	4619      	mov	r1, r3
 8005c34:	6b7b      	ldr	r3, [r7, #52]	; 0x34
 8005c36:	2200      	movs	r2, #0
 8005c38:	60bb      	str	r3, [r7, #8]
 8005c3a:	60fa      	str	r2, [r7, #12]
 8005c3c:	e9d7 2302 	ldrd	r2, r3, [r7, #8]
 8005c40:	f7fa faca 	bl	80001d8 <__aeabi_uldivmod>
 8005c44:	4602      	mov	r2, r0
 8005c46:	460b      	mov	r3, r1
 8005c48:	4613      	mov	r3, r2
 8005c4a:	63fb      	str	r3, [r7, #60]	; 0x3c
 8005c4c:	4b0b      	ldr	r3, [pc, #44]	; (8005c7c <HAL_RCC_GetSysClockFreq+0x180>)
 8005c4e:	685b      	ldr	r3, [r3, #4]
 8005c50:	0c1b      	lsrs	r3, r3, #16
 8005c52:	f003 0303 	and.w	r3, r3, #3
 8005c56:	3301      	adds	r3, #1
 8005c58:	005b      	lsls	r3, r3, #1
 8005c5a:	633b      	str	r3, [r7, #48]	; 0x30
 8005c5c:	6bfa      	ldr	r2, [r7, #60]	; 0x3c
 8005c5e:	6b3b      	ldr	r3, [r7, #48]	; 0x30
 8005c60:	fbb2 f3f3 	udiv	r3, r2, r3
 8005c64:	63bb      	str	r3, [r7, #56]	; 0x38
 8005c66:	e002      	b.n	8005c6e <HAL_RCC_GetSysClockFreq+0x172>
 8005c68:	4b05      	ldr	r3, [pc, #20]	; (8005c80 <HAL_RCC_GetSysClockFreq+0x184>)
 8005c6a:	63bb      	str	r3, [r7, #56]	; 0x38
 8005c6c:	bf00      	nop
 8005c6e:	6bbb      	ldr	r3, [r7, #56]	; 0x38
 8005c70:	4618      	mov	r0, r3
 8005c72:	3740      	adds	r7, #64	; 0x40
 8005c74:	46bd      	mov	sp, r7
 8005c76:	e8bd 8fb0 	ldmia.w	sp!, {r4, r5, r7, r8, r9, sl, fp, pc}
 8005c7a:	bf00      	nop
 8005c7c:	40023800 	.word	0x40023800
 8005c80:	00f42400 	.word	0x00f42400
 8005c84:	017d7840 	.word	0x017d7840

08005c88 <HAL_RCC_GetHCLKFreq>:
 8005c88:	b480      	push	{r7}
 8005c8a:	af00      	add	r7, sp, #0
 8005c8c:	4b03      	ldr	r3, [pc, #12]	; (8005c9c <HAL_RCC_GetHCLKFreq+0x14>)
 8005c8e:	681b      	ldr	r3, [r3, #0]
 8005c90:	4618      	mov	r0, r3
 8005c92:	46bd      	mov	sp, r7
 8005c94:	f85d 7b04 	ldr.w	r7, [sp], #4
 8005c98:	4770      	bx	lr
 8005c9a:	bf00      	nop
 8005c9c:	20000000 	.word	0x20000000

08005ca0 <HAL_RCC_GetPCLK1Freq>:
 8005ca0:	b580      	push	{r7, lr}
 8005ca2:	af00      	add	r7, sp, #0
 8005ca4:	f7ff fff0 	bl	8005c88 <HAL_RCC_GetHCLKFreq>
 8005ca8:	4602      	mov	r2, r0
 8005caa:	4b05      	ldr	r3, [pc, #20]	; (8005cc0 <HAL_RCC_GetPCLK1Freq+0x20>)
 8005cac:	689b      	ldr	r3, [r3, #8]
 8005cae:	0a9b      	lsrs	r3, r3, #10
 8005cb0:	f003 0307 	and.w	r3, r3, #7
 8005cb4:	4903      	ldr	r1, [pc, #12]	; (8005cc4 <HAL_RCC_GetPCLK1Freq+0x24>)
 8005cb6:	5ccb      	ldrb	r3, [r1, r3]
 8005cb8:	fa22 f303 	lsr.w	r3, r2, r3
 8005cbc:	4618      	mov	r0, r3
 8005cbe:	bd80      	pop	{r7, pc}
 8005cc0:	40023800 	.word	0x40023800
 8005cc4:	0800ae70 	.word	0x0800ae70

08005cc8 <HAL_TIM_Base_Init>:
 8005cc8:	b580      	push	{r7, lr}
 8005cca:	b082      	sub	sp, #8
 8005ccc:	af00      	add	r7, sp, #0
 8005cce:	6078      	str	r0, [r7, #4]
 8005cd0:	687b      	ldr	r3, [r7, #4]
 8005cd2:	2b00      	cmp	r3, #0
 8005cd4:	d101      	bne.n	8005cda <HAL_TIM_Base_Init+0x12>
 8005cd6:	2301      	movs	r3, #1
 8005cd8:	e041      	b.n	8005d5e <HAL_TIM_Base_Init+0x96>
 8005cda:	687b      	ldr	r3, [r7, #4]
 8005cdc:	f893 303d 	ldrb.w	r3, [r3, #61]	; 0x3d
 8005ce0:	b2db      	uxtb	r3, r3
 8005ce2:	2b00      	cmp	r3, #0
 8005ce4:	d106      	bne.n	8005cf4 <HAL_TIM_Base_Init+0x2c>
 8005ce6:	687b      	ldr	r3, [r7, #4]
 8005ce8:	2200      	movs	r2, #0
 8005cea:	f883 203c 	strb.w	r2, [r3, #60]	; 0x3c
 8005cee:	6878      	ldr	r0, [r7, #4]
 8005cf0:	f7fb fea6 	bl	8001a40 <HAL_TIM_Base_MspInit>
 8005cf4:	687b      	ldr	r3, [r7, #4]
 8005cf6:	2202      	movs	r2, #2
 8005cf8:	f883 203d 	strb.w	r2, [r3, #61]	; 0x3d
 8005cfc:	687b      	ldr	r3, [r7, #4]
 8005cfe:	681a      	ldr	r2, [r3, #0]
 8005d00:	687b      	ldr	r3, [r7, #4]
 8005d02:	3304      	adds	r3, #4
 8005d04:	4619      	mov	r1, r3
 8005d06:	4610      	mov	r0, r2
 8005d08:	f000 fc3c 	bl	8006584 <TIM_Base_SetConfig>
 8005d0c:	687b      	ldr	r3, [r7, #4]
 8005d0e:	2201      	movs	r2, #1
 8005d10:	f883 2046 	strb.w	r2, [r3, #70]	; 0x46
 8005d14:	687b      	ldr	r3, [r7, #4]
 8005d16:	2201      	movs	r2, #1
 8005d18:	f883 203e 	strb.w	r2, [r3, #62]	; 0x3e
 8005d1c:	687b      	ldr	r3, [r7, #4]
 8005d1e:	2201      	movs	r2, #1
 8005d20:	f883 203f 	strb.w	r2, [r3, #63]	; 0x3f
 8005d24:	687b      	ldr	r3, [r7, #4]
 8005d26:	2201      	movs	r2, #1
 8005d28:	f883 2040 	strb.w	r2, [r3, #64]	; 0x40
 8005d2c:	687b      	ldr	r3, [r7, #4]
 8005d2e:	2201      	movs	r2, #1
 8005d30:	f883 2041 	strb.w	r2, [r3, #65]	; 0x41
 8005d34:	687b      	ldr	r3, [r7, #4]
 8005d36:	2201      	movs	r2, #1
 8005d38:	f883 2042 	strb.w	r2, [r3, #66]	; 0x42
 8005d3c:	687b      	ldr	r3, [r7, #4]
 8005d3e:	2201      	movs	r2, #1
 8005d40:	f883 2043 	strb.w	r2, [r3, #67]	; 0x43
 8005d44:	687b      	ldr	r3, [r7, #4]
 8005d46:	2201      	movs	r2, #1
 8005d48:	f883 2044 	strb.w	r2, [r3, #68]	; 0x44
 8005d4c:	687b      	ldr	r3, [r7, #4]
 8005d4e:	2201      	movs	r2, #1
 8005d50:	f883 2045 	strb.w	r2, [r3, #69]	; 0x45
 8005d54:	687b      	ldr	r3, [r7, #4]
 8005d56:	2201      	movs	r2, #1
 8005d58:	f883 203d 	strb.w	r2, [r3, #61]	; 0x3d
 8005d5c:	2300      	movs	r3, #0
 8005d5e:	4618      	mov	r0, r3
 8005d60:	3708      	adds	r7, #8
 8005d62:	46bd      	mov	sp, r7
 8005d64:	bd80      	pop	{r7, pc}
	...

08005d68 <HAL_TIM_Base_Start_IT>:
 8005d68:	b480      	push	{r7}
 8005d6a:	b085      	sub	sp, #20
 8005d6c:	af00      	add	r7, sp, #0
 8005d6e:	6078      	str	r0, [r7, #4]
 8005d70:	687b      	ldr	r3, [r7, #4]
 8005d72:	f893 303d 	ldrb.w	r3, [r3, #61]	; 0x3d
 8005d76:	b2db      	uxtb	r3, r3
 8005d78:	2b01      	cmp	r3, #1
 8005d7a:	d001      	beq.n	8005d80 <HAL_TIM_Base_Start_IT+0x18>
 8005d7c:	2301      	movs	r3, #1
 8005d7e:	e044      	b.n	8005e0a <HAL_TIM_Base_Start_IT+0xa2>
 8005d80:	687b      	ldr	r3, [r7, #4]
 8005d82:	2202      	movs	r2, #2
 8005d84:	f883 203d 	strb.w	r2, [r3, #61]	; 0x3d
 8005d88:	687b      	ldr	r3, [r7, #4]
 8005d8a:	681b      	ldr	r3, [r3, #0]
 8005d8c:	68da      	ldr	r2, [r3, #12]
 8005d8e:	687b      	ldr	r3, [r7, #4]
 8005d90:	681b      	ldr	r3, [r3, #0]
 8005d92:	f042 0201 	orr.w	r2, r2, #1
 8005d96:	60da      	str	r2, [r3, #12]
 8005d98:	687b      	ldr	r3, [r7, #4]
 8005d9a:	681b      	ldr	r3, [r3, #0]
 8005d9c:	4a1e      	ldr	r2, [pc, #120]	; (8005e18 <HAL_TIM_Base_Start_IT+0xb0>)
 8005d9e:	4293      	cmp	r3, r2
 8005da0:	d018      	beq.n	8005dd4 <HAL_TIM_Base_Start_IT+0x6c>
 8005da2:	687b      	ldr	r3, [r7, #4]
 8005da4:	681b      	ldr	r3, [r3, #0]
 8005da6:	f1b3 4f80 	cmp.w	r3, #1073741824	; 0x40000000
 8005daa:	d013      	beq.n	8005dd4 <HAL_TIM_Base_Start_IT+0x6c>
 8005dac:	687b      	ldr	r3, [r7, #4]
 8005dae:	681b      	ldr	r3, [r3, #0]
 8005db0:	4a1a      	ldr	r2, [pc, #104]	; (8005e1c <HAL_TIM_Base_Start_IT+0xb4>)
 8005db2:	4293      	cmp	r3, r2
 8005db4:	d00e      	beq.n	8005dd4 <HAL_TIM_Base_Start_IT+0x6c>
 8005db6:	687b      	ldr	r3, [r7, #4]
 8005db8:	681b      	ldr	r3, [r3, #0]
 8005dba:	4a19      	ldr	r2, [pc, #100]	; (8005e20 <HAL_TIM_Base_Start_IT+0xb8>)
 8005dbc:	4293      	cmp	r3, r2
 8005dbe:	d009      	beq.n	8005dd4 <HAL_TIM_Base_Start_IT+0x6c>
 8005dc0:	687b      	ldr	r3, [r7, #4]
 8005dc2:	681b      	ldr	r3, [r3, #0]
 8005dc4:	4a17      	ldr	r2, [pc, #92]	; (8005e24 <HAL_TIM_Base_Start_IT+0xbc>)
 8005dc6:	4293      	cmp	r3, r2
 8005dc8:	d004      	beq.n	8005dd4 <HAL_TIM_Base_Start_IT+0x6c>
 8005dca:	687b      	ldr	r3, [r7, #4]
 8005dcc:	681b      	ldr	r3, [r3, #0]
 8005dce:	4a16      	ldr	r2, [pc, #88]	; (8005e28 <HAL_TIM_Base_Start_IT+0xc0>)
 8005dd0:	4293      	cmp	r3, r2
 8005dd2:	d111      	bne.n	8005df8 <HAL_TIM_Base_Start_IT+0x90>
 8005dd4:	687b      	ldr	r3, [r7, #4]
 8005dd6:	681b      	ldr	r3, [r3, #0]
 8005dd8:	689b      	ldr	r3, [r3, #8]
 8005dda:	f003 0307 	and.w	r3, r3, #7
 8005dde:	60fb      	str	r3, [r7, #12]
 8005de0:	68fb      	ldr	r3, [r7, #12]
 8005de2:	2b06      	cmp	r3, #6
 8005de4:	d010      	beq.n	8005e08 <HAL_TIM_Base_Start_IT+0xa0>
 8005de6:	687b      	ldr	r3, [r7, #4]
 8005de8:	681b      	ldr	r3, [r3, #0]
 8005dea:	681a      	ldr	r2, [r3, #0]
 8005dec:	687b      	ldr	r3, [r7, #4]
 8005dee:	681b      	ldr	r3, [r3, #0]
 8005df0:	f042 0201 	orr.w	r2, r2, #1
 8005df4:	601a      	str	r2, [r3, #0]
 8005df6:	e007      	b.n	8005e08 <HAL_TIM_Base_Start_IT+0xa0>
 8005df8:	687b      	ldr	r3, [r7, #4]
 8005dfa:	681b      	ldr	r3, [r3, #0]
 8005dfc:	681a      	ldr	r2, [r3, #0]
 8005dfe:	687b      	ldr	r3, [r7, #4]
 8005e00:	681b      	ldr	r3, [r3, #0]
 8005e02:	f042 0201 	orr.w	r2, r2, #1
 8005e06:	601a      	str	r2, [r3, #0]
 8005e08:	2300      	movs	r3, #0
 8005e0a:	4618      	mov	r0, r3
 8005e0c:	3714      	adds	r7, #20
 8005e0e:	46bd      	mov	sp, r7
 8005e10:	f85d 7b04 	ldr.w	r7, [sp], #4
 8005e14:	4770      	bx	lr
 8005e16:	bf00      	nop
 8005e18:	40010000 	.word	0x40010000
 8005e1c:	40000400 	.word	0x40000400
 8005e20:	40000800 	.word	0x40000800
 8005e24:	40000c00 	.word	0x40000c00
 8005e28:	40014000 	.word	0x40014000

08005e2c <HAL_TIM_PWM_Init>:
 8005e2c:	b580      	push	{r7, lr}
 8005e2e:	b082      	sub	sp, #8
 8005e30:	af00      	add	r7, sp, #0
 8005e32:	6078      	str	r0, [r7, #4]
 8005e34:	687b      	ldr	r3, [r7, #4]
 8005e36:	2b00      	cmp	r3, #0
 8005e38:	d101      	bne.n	8005e3e <HAL_TIM_PWM_Init+0x12>
 8005e3a:	2301      	movs	r3, #1
 8005e3c:	e041      	b.n	8005ec2 <HAL_TIM_PWM_Init+0x96>
 8005e3e:	687b      	ldr	r3, [r7, #4]
 8005e40:	f893 303d 	ldrb.w	r3, [r3, #61]	; 0x3d
 8005e44:	b2db      	uxtb	r3, r3
 8005e46:	2b00      	cmp	r3, #0
 8005e48:	d106      	bne.n	8005e58 <HAL_TIM_PWM_Init+0x2c>
 8005e4a:	687b      	ldr	r3, [r7, #4]
 8005e4c:	2200      	movs	r2, #0
 8005e4e:	f883 203c 	strb.w	r2, [r3, #60]	; 0x3c
 8005e52:	6878      	ldr	r0, [r7, #4]
 8005e54:	f000 f839 	bl	8005eca <HAL_TIM_PWM_MspInit>
 8005e58:	687b      	ldr	r3, [r7, #4]
 8005e5a:	2202      	movs	r2, #2
 8005e5c:	f883 203d 	strb.w	r2, [r3, #61]	; 0x3d
 8005e60:	687b      	ldr	r3, [r7, #4]
 8005e62:	681a      	ldr	r2, [r3, #0]
 8005e64:	687b      	ldr	r3, [r7, #4]
 8005e66:	3304      	adds	r3, #4
 8005e68:	4619      	mov	r1, r3
 8005e6a:	4610      	mov	r0, r2
 8005e6c:	f000 fb8a 	bl	8006584 <TIM_Base_SetConfig>
 8005e70:	687b      	ldr	r3, [r7, #4]
 8005e72:	2201      	movs	r2, #1
 8005e74:	f883 2046 	strb.w	r2, [r3, #70]	; 0x46
 8005e78:	687b      	ldr	r3, [r7, #4]
 8005e7a:	2201      	movs	r2, #1
 8005e7c:	f883 203e 	strb.w	r2, [r3, #62]	; 0x3e
 8005e80:	687b      	ldr	r3, [r7, #4]
 8005e82:	2201      	movs	r2, #1
 8005e84:	f883 203f 	strb.w	r2, [r3, #63]	; 0x3f
 8005e88:	687b      	ldr	r3, [r7, #4]
 8005e8a:	2201      	movs	r2, #1
 8005e8c:	f883 2040 	strb.w	r2, [r3, #64]	; 0x40
 8005e90:	687b      	ldr	r3, [r7, #4]
 8005e92:	2201      	movs	r2, #1
 8005e94:	f883 2041 	strb.w	r2, [r3, #65]	; 0x41
 8005e98:	687b      	ldr	r3, [r7, #4]
 8005e9a:	2201      	movs	r2, #1
 8005e9c:	f883 2042 	strb.w	r2, [r3, #66]	; 0x42
 8005ea0:	687b      	ldr	r3, [r7, #4]
 8005ea2:	2201      	movs	r2, #1
 8005ea4:	f883 2043 	strb.w	r2, [r3, #67]	; 0x43
 8005ea8:	687b      	ldr	r3, [r7, #4]
 8005eaa:	2201      	movs	r2, #1
 8005eac:	f883 2044 	strb.w	r2, [r3, #68]	; 0x44
 8005eb0:	687b      	ldr	r3, [r7, #4]
 8005eb2:	2201      	movs	r2, #1
 8005eb4:	f883 2045 	strb.w	r2, [r3, #69]	; 0x45
 8005eb8:	687b      	ldr	r3, [r7, #4]
 8005eba:	2201      	movs	r2, #1
 8005ebc:	f883 203d 	strb.w	r2, [r3, #61]	; 0x3d
 8005ec0:	2300      	movs	r3, #0
 8005ec2:	4618      	mov	r0, r3
 8005ec4:	3708      	adds	r7, #8
 8005ec6:	46bd      	mov	sp, r7
 8005ec8:	bd80      	pop	{r7, pc}

08005eca <HAL_TIM_PWM_MspInit>:
 8005eca:	b480      	push	{r7}
 8005ecc:	b083      	sub	sp, #12
 8005ece:	af00      	add	r7, sp, #0
 8005ed0:	6078      	str	r0, [r7, #4]
 8005ed2:	bf00      	nop
 8005ed4:	370c      	adds	r7, #12
 8005ed6:	46bd      	mov	sp, r7
 8005ed8:	f85d 7b04 	ldr.w	r7, [sp], #4
 8005edc:	4770      	bx	lr
	...

08005ee0 <HAL_TIM_PWM_Start>:
 8005ee0:	b580      	push	{r7, lr}
 8005ee2:	b084      	sub	sp, #16
 8005ee4:	af00      	add	r7, sp, #0
 8005ee6:	6078      	str	r0, [r7, #4]
 8005ee8:	6039      	str	r1, [r7, #0]
 8005eea:	683b      	ldr	r3, [r7, #0]
 8005eec:	2b00      	cmp	r3, #0
 8005eee:	d109      	bne.n	8005f04 <HAL_TIM_PWM_Start+0x24>
 8005ef0:	687b      	ldr	r3, [r7, #4]
 8005ef2:	f893 303e 	ldrb.w	r3, [r3, #62]	; 0x3e
 8005ef6:	b2db      	uxtb	r3, r3
 8005ef8:	2b01      	cmp	r3, #1
 8005efa:	bf14      	ite	ne
 8005efc:	2301      	movne	r3, #1
 8005efe:	2300      	moveq	r3, #0
 8005f00:	b2db      	uxtb	r3, r3
 8005f02:	e022      	b.n	8005f4a <HAL_TIM_PWM_Start+0x6a>
 8005f04:	683b      	ldr	r3, [r7, #0]
 8005f06:	2b04      	cmp	r3, #4
 8005f08:	d109      	bne.n	8005f1e <HAL_TIM_PWM_Start+0x3e>
 8005f0a:	687b      	ldr	r3, [r7, #4]
 8005f0c:	f893 303f 	ldrb.w	r3, [r3, #63]	; 0x3f
 8005f10:	b2db      	uxtb	r3, r3
 8005f12:	2b01      	cmp	r3, #1
 8005f14:	bf14      	ite	ne
 8005f16:	2301      	movne	r3, #1
 8005f18:	2300      	moveq	r3, #0
 8005f1a:	b2db      	uxtb	r3, r3
 8005f1c:	e015      	b.n	8005f4a <HAL_TIM_PWM_Start+0x6a>
 8005f1e:	683b      	ldr	r3, [r7, #0]
 8005f20:	2b08      	cmp	r3, #8
 8005f22:	d109      	bne.n	8005f38 <HAL_TIM_PWM_Start+0x58>
 8005f24:	687b      	ldr	r3, [r7, #4]
 8005f26:	f893 3040 	ldrb.w	r3, [r3, #64]	; 0x40
 8005f2a:	b2db      	uxtb	r3, r3
 8005f2c:	2b01      	cmp	r3, #1
 8005f2e:	bf14      	ite	ne
 8005f30:	2301      	movne	r3, #1
 8005f32:	2300      	moveq	r3, #0
 8005f34:	b2db      	uxtb	r3, r3
 8005f36:	e008      	b.n	8005f4a <HAL_TIM_PWM_Start+0x6a>
 8005f38:	687b      	ldr	r3, [r7, #4]
 8005f3a:	f893 3041 	ldrb.w	r3, [r3, #65]	; 0x41
 8005f3e:	b2db      	uxtb	r3, r3
 8005f40:	2b01      	cmp	r3, #1
 8005f42:	bf14      	ite	ne
 8005f44:	2301      	movne	r3, #1
 8005f46:	2300      	moveq	r3, #0
 8005f48:	b2db      	uxtb	r3, r3
 8005f4a:	2b00      	cmp	r3, #0
 8005f4c:	d001      	beq.n	8005f52 <HAL_TIM_PWM_Start+0x72>
 8005f4e:	2301      	movs	r3, #1
 8005f50:	e068      	b.n	8006024 <HAL_TIM_PWM_Start+0x144>
 8005f52:	683b      	ldr	r3, [r7, #0]
 8005f54:	2b00      	cmp	r3, #0
 8005f56:	d104      	bne.n	8005f62 <HAL_TIM_PWM_Start+0x82>
 8005f58:	687b      	ldr	r3, [r7, #4]
 8005f5a:	2202      	movs	r2, #2
 8005f5c:	f883 203e 	strb.w	r2, [r3, #62]	; 0x3e
 8005f60:	e013      	b.n	8005f8a <HAL_TIM_PWM_Start+0xaa>
 8005f62:	683b      	ldr	r3, [r7, #0]
 8005f64:	2b04      	cmp	r3, #4
 8005f66:	d104      	bne.n	8005f72 <HAL_TIM_PWM_Start+0x92>
 8005f68:	687b      	ldr	r3, [r7, #4]
 8005f6a:	2202      	movs	r2, #2
 8005f6c:	f883 203f 	strb.w	r2, [r3, #63]	; 0x3f
 8005f70:	e00b      	b.n	8005f8a <HAL_TIM_PWM_Start+0xaa>
 8005f72:	683b      	ldr	r3, [r7, #0]
 8005f74:	2b08      	cmp	r3, #8
 8005f76:	d104      	bne.n	8005f82 <HAL_TIM_PWM_Start+0xa2>
 8005f78:	687b      	ldr	r3, [r7, #4]
 8005f7a:	2202      	movs	r2, #2
 8005f7c:	f883 2040 	strb.w	r2, [r3, #64]	; 0x40
 8005f80:	e003      	b.n	8005f8a <HAL_TIM_PWM_Start+0xaa>
 8005f82:	687b      	ldr	r3, [r7, #4]
 8005f84:	2202      	movs	r2, #2
 8005f86:	f883 2041 	strb.w	r2, [r3, #65]	; 0x41
 8005f8a:	687b      	ldr	r3, [r7, #4]
 8005f8c:	681b      	ldr	r3, [r3, #0]
 8005f8e:	2201      	movs	r2, #1
 8005f90:	6839      	ldr	r1, [r7, #0]
 8005f92:	4618      	mov	r0, r3
 8005f94:	f000 fda2 	bl	8006adc <TIM_CCxChannelCmd>
 8005f98:	687b      	ldr	r3, [r7, #4]
 8005f9a:	681b      	ldr	r3, [r3, #0]
 8005f9c:	4a23      	ldr	r2, [pc, #140]	; (800602c <HAL_TIM_PWM_Start+0x14c>)
 8005f9e:	4293      	cmp	r3, r2
 8005fa0:	d107      	bne.n	8005fb2 <HAL_TIM_PWM_Start+0xd2>
 8005fa2:	687b      	ldr	r3, [r7, #4]
 8005fa4:	681b      	ldr	r3, [r3, #0]
 8005fa6:	6c5a      	ldr	r2, [r3, #68]	; 0x44
 8005fa8:	687b      	ldr	r3, [r7, #4]
 8005faa:	681b      	ldr	r3, [r3, #0]
 8005fac:	f442 4200 	orr.w	r2, r2, #32768	; 0x8000
 8005fb0:	645a      	str	r2, [r3, #68]	; 0x44
 8005fb2:	687b      	ldr	r3, [r7, #4]
 8005fb4:	681b      	ldr	r3, [r3, #0]
 8005fb6:	4a1d      	ldr	r2, [pc, #116]	; (800602c <HAL_TIM_PWM_Start+0x14c>)
 8005fb8:	4293      	cmp	r3, r2
 8005fba:	d018      	beq.n	8005fee <HAL_TIM_PWM_Start+0x10e>
 8005fbc:	687b      	ldr	r3, [r7, #4]
 8005fbe:	681b      	ldr	r3, [r3, #0]
 8005fc0:	f1b3 4f80 	cmp.w	r3, #1073741824	; 0x40000000
 8005fc4:	d013      	beq.n	8005fee <HAL_TIM_PWM_Start+0x10e>
 8005fc6:	687b      	ldr	r3, [r7, #4]
 8005fc8:	681b      	ldr	r3, [r3, #0]
 8005fca:	4a19      	ldr	r2, [pc, #100]	; (8006030 <HAL_TIM_PWM_Start+0x150>)
 8005fcc:	4293      	cmp	r3, r2
 8005fce:	d00e      	beq.n	8005fee <HAL_TIM_PWM_Start+0x10e>
 8005fd0:	687b      	ldr	r3, [r7, #4]
 8005fd2:	681b      	ldr	r3, [r3, #0]
 8005fd4:	4a17      	ldr	r2, [pc, #92]	; (8006034 <HAL_TIM_PWM_Start+0x154>)
 8005fd6:	4293      	cmp	r3, r2
 8005fd8:	d009      	beq.n	8005fee <HAL_TIM_PWM_Start+0x10e>
 8005fda:	687b      	ldr	r3, [r7, #4]
 8005fdc:	681b      	ldr	r3, [r3, #0]
 8005fde:	4a16      	ldr	r2, [pc, #88]	; (8006038 <HAL_TIM_PWM_Start+0x158>)
 8005fe0:	4293      	cmp	r3, r2
 8005fe2:	d004      	beq.n	8005fee <HAL_TIM_PWM_Start+0x10e>
 8005fe4:	687b      	ldr	r3, [r7, #4]
 8005fe6:	681b      	ldr	r3, [r3, #0]
 8005fe8:	4a14      	ldr	r2, [pc, #80]	; (800603c <HAL_TIM_PWM_Start+0x15c>)
 8005fea:	4293      	cmp	r3, r2
 8005fec:	d111      	bne.n	8006012 <HAL_TIM_PWM_Start+0x132>
 8005fee:	687b      	ldr	r3, [r7, #4]
 8005ff0:	681b      	ldr	r3, [r3, #0]
 8005ff2:	689b      	ldr	r3, [r3, #8]
 8005ff4:	f003 0307 	and.w	r3, r3, #7
 8005ff8:	60fb      	str	r3, [r7, #12]
 8005ffa:	68fb      	ldr	r3, [r7, #12]
 8005ffc:	2b06      	cmp	r3, #6
 8005ffe:	d010      	beq.n	8006022 <HAL_TIM_PWM_Start+0x142>
 8006000:	687b      	ldr	r3, [r7, #4]
 8006002:	681b      	ldr	r3, [r3, #0]
 8006004:	681a      	ldr	r2, [r3, #0]
 8006006:	687b      	ldr	r3, [r7, #4]
 8006008:	681b      	ldr	r3, [r3, #0]
 800600a:	f042 0201 	orr.w	r2, r2, #1
 800600e:	601a      	str	r2, [r3, #0]
 8006010:	e007      	b.n	8006022 <HAL_TIM_PWM_Start+0x142>
 8006012:	687b      	ldr	r3, [r7, #4]
 8006014:	681b      	ldr	r3, [r3, #0]
 8006016:	681a      	ldr	r2, [r3, #0]
 8006018:	687b      	ldr	r3, [r7, #4]
 800601a:	681b      	ldr	r3, [r3, #0]
 800601c:	f042 0201 	orr.w	r2, r2, #1
 8006020:	601a      	str	r2, [r3, #0]
 8006022:	2300      	movs	r3, #0
 8006024:	4618      	mov	r0, r3
 8006026:	3710      	adds	r7, #16
 8006028:	46bd      	mov	sp, r7
 800602a:	bd80      	pop	{r7, pc}
 800602c:	40010000 	.word	0x40010000
 8006030:	40000400 	.word	0x40000400
 8006034:	40000800 	.word	0x40000800
 8006038:	40000c00 	.word	0x40000c00
 800603c:	40014000 	.word	0x40014000

08006040 <HAL_TIM_IRQHandler>:
 8006040:	b580      	push	{r7, lr}
 8006042:	b084      	sub	sp, #16
 8006044:	af00      	add	r7, sp, #0
 8006046:	6078      	str	r0, [r7, #4]
 8006048:	687b      	ldr	r3, [r7, #4]
 800604a:	681b      	ldr	r3, [r3, #0]
 800604c:	68db      	ldr	r3, [r3, #12]
 800604e:	60fb      	str	r3, [r7, #12]
 8006050:	687b      	ldr	r3, [r7, #4]
 8006052:	681b      	ldr	r3, [r3, #0]
 8006054:	691b      	ldr	r3, [r3, #16]
 8006056:	60bb      	str	r3, [r7, #8]
 8006058:	68bb      	ldr	r3, [r7, #8]
 800605a:	f003 0302 	and.w	r3, r3, #2
 800605e:	2b00      	cmp	r3, #0
 8006060:	d020      	beq.n	80060a4 <HAL_TIM_IRQHandler+0x64>
 8006062:	68fb      	ldr	r3, [r7, #12]
 8006064:	f003 0302 	and.w	r3, r3, #2
 8006068:	2b00      	cmp	r3, #0
 800606a:	d01b      	beq.n	80060a4 <HAL_TIM_IRQHandler+0x64>
 800606c:	687b      	ldr	r3, [r7, #4]
 800606e:	681b      	ldr	r3, [r3, #0]
 8006070:	f06f 0202 	mvn.w	r2, #2
 8006074:	611a      	str	r2, [r3, #16]
 8006076:	687b      	ldr	r3, [r7, #4]
 8006078:	2201      	movs	r2, #1
 800607a:	771a      	strb	r2, [r3, #28]
 800607c:	687b      	ldr	r3, [r7, #4]
 800607e:	681b      	ldr	r3, [r3, #0]
 8006080:	699b      	ldr	r3, [r3, #24]
 8006082:	f003 0303 	and.w	r3, r3, #3
 8006086:	2b00      	cmp	r3, #0
 8006088:	d003      	beq.n	8006092 <HAL_TIM_IRQHandler+0x52>
 800608a:	6878      	ldr	r0, [r7, #4]
 800608c:	f000 fa5b 	bl	8006546 <HAL_TIM_IC_CaptureCallback>
 8006090:	e005      	b.n	800609e <HAL_TIM_IRQHandler+0x5e>
 8006092:	6878      	ldr	r0, [r7, #4]
 8006094:	f000 fa4d 	bl	8006532 <HAL_TIM_OC_DelayElapsedCallback>
 8006098:	6878      	ldr	r0, [r7, #4]
 800609a:	f000 fa5e 	bl	800655a <HAL_TIM_PWM_PulseFinishedCallback>
 800609e:	687b      	ldr	r3, [r7, #4]
 80060a0:	2200      	movs	r2, #0
 80060a2:	771a      	strb	r2, [r3, #28]
 80060a4:	68bb      	ldr	r3, [r7, #8]
 80060a6:	f003 0304 	and.w	r3, r3, #4
 80060aa:	2b00      	cmp	r3, #0
 80060ac:	d020      	beq.n	80060f0 <HAL_TIM_IRQHandler+0xb0>
 80060ae:	68fb      	ldr	r3, [r7, #12]
 80060b0:	f003 0304 	and.w	r3, r3, #4
 80060b4:	2b00      	cmp	r3, #0
 80060b6:	d01b      	beq.n	80060f0 <HAL_TIM_IRQHandler+0xb0>
 80060b8:	687b      	ldr	r3, [r7, #4]
 80060ba:	681b      	ldr	r3, [r3, #0]
 80060bc:	f06f 0204 	mvn.w	r2, #4
 80060c0:	611a      	str	r2, [r3, #16]
 80060c2:	687b      	ldr	r3, [r7, #4]
 80060c4:	2202      	movs	r2, #2
 80060c6:	771a      	strb	r2, [r3, #28]
 80060c8:	687b      	ldr	r3, [r7, #4]
 80060ca:	681b      	ldr	r3, [r3, #0]
 80060cc:	699b      	ldr	r3, [r3, #24]
 80060ce:	f403 7340 	and.w	r3, r3, #768	; 0x300
 80060d2:	2b00      	cmp	r3, #0
 80060d4:	d003      	beq.n	80060de <HAL_TIM_IRQHandler+0x9e>
 80060d6:	6878      	ldr	r0, [r7, #4]
 80060d8:	f000 fa35 	bl	8006546 <HAL_TIM_IC_CaptureCallback>
 80060dc:	e005      	b.n	80060ea <HAL_TIM_IRQHandler+0xaa>
 80060de:	6878      	ldr	r0, [r7, #4]
 80060e0:	f000 fa27 	bl	8006532 <HAL_TIM_OC_DelayElapsedCallback>
 80060e4:	6878      	ldr	r0, [r7, #4]
 80060e6:	f000 fa38 	bl	800655a <HAL_TIM_PWM_PulseFinishedCallback>
 80060ea:	687b      	ldr	r3, [r7, #4]
 80060ec:	2200      	movs	r2, #0
 80060ee:	771a      	strb	r2, [r3, #28]
 80060f0:	68bb      	ldr	r3, [r7, #8]
 80060f2:	f003 0308 	and.w	r3, r3, #8
 80060f6:	2b00      	cmp	r3, #0
 80060f8:	d020      	beq.n	800613c <HAL_TIM_IRQHandler+0xfc>
 80060fa:	68fb      	ldr	r3, [r7, #12]
 80060fc:	f003 0308 	and.w	r3, r3, #8
 8006100:	2b00      	cmp	r3, #0
 8006102:	d01b      	beq.n	800613c <HAL_TIM_IRQHandler+0xfc>
 8006104:	687b      	ldr	r3, [r7, #4]
 8006106:	681b      	ldr	r3, [r3, #0]
 8006108:	f06f 0208 	mvn.w	r2, #8
 800610c:	611a      	str	r2, [r3, #16]
 800610e:	687b      	ldr	r3, [r7, #4]
 8006110:	2204      	movs	r2, #4
 8006112:	771a      	strb	r2, [r3, #28]
 8006114:	687b      	ldr	r3, [r7, #4]
 8006116:	681b      	ldr	r3, [r3, #0]
 8006118:	69db      	ldr	r3, [r3, #28]
 800611a:	f003 0303 	and.w	r3, r3, #3
 800611e:	2b00      	cmp	r3, #0
 8006120:	d003      	beq.n	800612a <HAL_TIM_IRQHandler+0xea>
 8006122:	6878      	ldr	r0, [r7, #4]
 8006124:	f000 fa0f 	bl	8006546 <HAL_TIM_IC_CaptureCallback>
 8006128:	e005      	b.n	8006136 <HAL_TIM_IRQHandler+0xf6>
 800612a:	6878      	ldr	r0, [r7, #4]
 800612c:	f000 fa01 	bl	8006532 <HAL_TIM_OC_DelayElapsedCallback>
 8006130:	6878      	ldr	r0, [r7, #4]
 8006132:	f000 fa12 	bl	800655a <HAL_TIM_PWM_PulseFinishedCallback>
 8006136:	687b      	ldr	r3, [r7, #4]
 8006138:	2200      	movs	r2, #0
 800613a:	771a      	strb	r2, [r3, #28]
 800613c:	68bb      	ldr	r3, [r7, #8]
 800613e:	f003 0310 	and.w	r3, r3, #16
 8006142:	2b00      	cmp	r3, #0
 8006144:	d020      	beq.n	8006188 <HAL_TIM_IRQHandler+0x148>
 8006146:	68fb      	ldr	r3, [r7, #12]
 8006148:	f003 0310 	and.w	r3, r3, #16
 800614c:	2b00      	cmp	r3, #0
 800614e:	d01b      	beq.n	8006188 <HAL_TIM_IRQHandler+0x148>
 8006150:	687b      	ldr	r3, [r7, #4]
 8006152:	681b      	ldr	r3, [r3, #0]
 8006154:	f06f 0210 	mvn.w	r2, #16
 8006158:	611a      	str	r2, [r3, #16]
 800615a:	687b      	ldr	r3, [r7, #4]
 800615c:	2208      	movs	r2, #8
 800615e:	771a      	strb	r2, [r3, #28]
 8006160:	687b      	ldr	r3, [r7, #4]
 8006162:	681b      	ldr	r3, [r3, #0]
 8006164:	69db      	ldr	r3, [r3, #28]
 8006166:	f403 7340 	and.w	r3, r3, #768	; 0x300
 800616a:	2b00      	cmp	r3, #0
 800616c:	d003      	beq.n	8006176 <HAL_TIM_IRQHandler+0x136>
 800616e:	6878      	ldr	r0, [r7, #4]
 8006170:	f000 f9e9 	bl	8006546 <HAL_TIM_IC_CaptureCallback>
 8006174:	e005      	b.n	8006182 <HAL_TIM_IRQHandler+0x142>
 8006176:	6878      	ldr	r0, [r7, #4]
 8006178:	f000 f9db 	bl	8006532 <HAL_TIM_OC_DelayElapsedCallback>
 800617c:	6878      	ldr	r0, [r7, #4]
 800617e:	f000 f9ec 	bl	800655a <HAL_TIM_PWM_PulseFinishedCallback>
 8006182:	687b      	ldr	r3, [r7, #4]
 8006184:	2200      	movs	r2, #0
 8006186:	771a      	strb	r2, [r3, #28]
 8006188:	68bb      	ldr	r3, [r7, #8]
 800618a:	f003 0301 	and.w	r3, r3, #1
 800618e:	2b00      	cmp	r3, #0
 8006190:	d00c      	beq.n	80061ac <HAL_TIM_IRQHandler+0x16c>
 8006192:	68fb      	ldr	r3, [r7, #12]
 8006194:	f003 0301 	and.w	r3, r3, #1
 8006198:	2b00      	cmp	r3, #0
 800619a:	d007      	beq.n	80061ac <HAL_TIM_IRQHandler+0x16c>
 800619c:	687b      	ldr	r3, [r7, #4]
 800619e:	681b      	ldr	r3, [r3, #0]
 80061a0:	f06f 0201 	mvn.w	r2, #1
 80061a4:	611a      	str	r2, [r3, #16]
 80061a6:	6878      	ldr	r0, [r7, #4]
 80061a8:	f7fa fbde 	bl	8000968 <HAL_TIM_PeriodElapsedCallback>
 80061ac:	68bb      	ldr	r3, [r7, #8]
 80061ae:	f003 0380 	and.w	r3, r3, #128	; 0x80
 80061b2:	2b00      	cmp	r3, #0
 80061b4:	d00c      	beq.n	80061d0 <HAL_TIM_IRQHandler+0x190>
 80061b6:	68fb      	ldr	r3, [r7, #12]
 80061b8:	f003 0380 	and.w	r3, r3, #128	; 0x80
 80061bc:	2b00      	cmp	r3, #0
 80061be:	d007      	beq.n	80061d0 <HAL_TIM_IRQHandler+0x190>
 80061c0:	687b      	ldr	r3, [r7, #4]
 80061c2:	681b      	ldr	r3, [r3, #0]
 80061c4:	f06f 0280 	mvn.w	r2, #128	; 0x80
 80061c8:	611a      	str	r2, [r3, #16]
 80061ca:	6878      	ldr	r0, [r7, #4]
 80061cc:	f000 fd24 	bl	8006c18 <HAL_TIMEx_BreakCallback>
 80061d0:	68bb      	ldr	r3, [r7, #8]
 80061d2:	f003 0340 	and.w	r3, r3, #64	; 0x40
 80061d6:	2b00      	cmp	r3, #0
 80061d8:	d00c      	beq.n	80061f4 <HAL_TIM_IRQHandler+0x1b4>
 80061da:	68fb      	ldr	r3, [r7, #12]
 80061dc:	f003 0340 	and.w	r3, r3, #64	; 0x40
 80061e0:	2b00      	cmp	r3, #0
 80061e2:	d007      	beq.n	80061f4 <HAL_TIM_IRQHandler+0x1b4>
 80061e4:	687b      	ldr	r3, [r7, #4]
 80061e6:	681b      	ldr	r3, [r3, #0]
 80061e8:	f06f 0240 	mvn.w	r2, #64	; 0x40
 80061ec:	611a      	str	r2, [r3, #16]
 80061ee:	6878      	ldr	r0, [r7, #4]
 80061f0:	f000 f9bd 	bl	800656e <HAL_TIM_TriggerCallback>
 80061f4:	68bb      	ldr	r3, [r7, #8]
 80061f6:	f003 0320 	and.w	r3, r3, #32
 80061fa:	2b00      	cmp	r3, #0
 80061fc:	d00c      	beq.n	8006218 <HAL_TIM_IRQHandler+0x1d8>
 80061fe:	68fb      	ldr	r3, [r7, #12]
 8006200:	f003 0320 	and.w	r3, r3, #32
 8006204:	2b00      	cmp	r3, #0
 8006206:	d007      	beq.n	8006218 <HAL_TIM_IRQHandler+0x1d8>
 8006208:	687b      	ldr	r3, [r7, #4]
 800620a:	681b      	ldr	r3, [r3, #0]
 800620c:	f06f 0220 	mvn.w	r2, #32
 8006210:	611a      	str	r2, [r3, #16]
 8006212:	6878      	ldr	r0, [r7, #4]
 8006214:	f000 fcf6 	bl	8006c04 <HAL_TIMEx_CommutCallback>
 8006218:	bf00      	nop
 800621a:	3710      	adds	r7, #16
 800621c:	46bd      	mov	sp, r7
 800621e:	bd80      	pop	{r7, pc}

08006220 <HAL_TIM_PWM_ConfigChannel>:
 8006220:	b580      	push	{r7, lr}
 8006222:	b086      	sub	sp, #24
 8006224:	af00      	add	r7, sp, #0
 8006226:	60f8      	str	r0, [r7, #12]
 8006228:	60b9      	str	r1, [r7, #8]
 800622a:	607a      	str	r2, [r7, #4]
 800622c:	2300      	movs	r3, #0
 800622e:	75fb      	strb	r3, [r7, #23]
 8006230:	68fb      	ldr	r3, [r7, #12]
 8006232:	f893 303c 	ldrb.w	r3, [r3, #60]	; 0x3c
 8006236:	2b01      	cmp	r3, #1
 8006238:	d101      	bne.n	800623e <HAL_TIM_PWM_ConfigChannel+0x1e>
 800623a:	2302      	movs	r3, #2
 800623c:	e0ae      	b.n	800639c <HAL_TIM_PWM_ConfigChannel+0x17c>
 800623e:	68fb      	ldr	r3, [r7, #12]
 8006240:	2201      	movs	r2, #1
 8006242:	f883 203c 	strb.w	r2, [r3, #60]	; 0x3c
 8006246:	687b      	ldr	r3, [r7, #4]
 8006248:	2b0c      	cmp	r3, #12
 800624a:	f200 809f 	bhi.w	800638c <HAL_TIM_PWM_ConfigChannel+0x16c>
 800624e:	a201      	add	r2, pc, #4	; (adr r2, 8006254 <HAL_TIM_PWM_ConfigChannel+0x34>)
 8006250:	f852 f023 	ldr.w	pc, [r2, r3, lsl #2]
 8006254:	08006289 	.word	0x08006289
 8006258:	0800638d 	.word	0x0800638d
 800625c:	0800638d 	.word	0x0800638d
 8006260:	0800638d 	.word	0x0800638d
 8006264:	080062c9 	.word	0x080062c9
 8006268:	0800638d 	.word	0x0800638d
 800626c:	0800638d 	.word	0x0800638d
 8006270:	0800638d 	.word	0x0800638d
 8006274:	0800630b 	.word	0x0800630b
 8006278:	0800638d 	.word	0x0800638d
 800627c:	0800638d 	.word	0x0800638d
 8006280:	0800638d 	.word	0x0800638d
 8006284:	0800634b 	.word	0x0800634b
 8006288:	68fb      	ldr	r3, [r7, #12]
 800628a:	681b      	ldr	r3, [r3, #0]
 800628c:	68b9      	ldr	r1, [r7, #8]
 800628e:	4618      	mov	r0, r3
 8006290:	f000 f9fe 	bl	8006690 <TIM_OC1_SetConfig>
 8006294:	68fb      	ldr	r3, [r7, #12]
 8006296:	681b      	ldr	r3, [r3, #0]
 8006298:	699a      	ldr	r2, [r3, #24]
 800629a:	68fb      	ldr	r3, [r7, #12]
 800629c:	681b      	ldr	r3, [r3, #0]
 800629e:	f042 0208 	orr.w	r2, r2, #8
 80062a2:	619a      	str	r2, [r3, #24]
 80062a4:	68fb      	ldr	r3, [r7, #12]
 80062a6:	681b      	ldr	r3, [r3, #0]
 80062a8:	699a      	ldr	r2, [r3, #24]
 80062aa:	68fb      	ldr	r3, [r7, #12]
 80062ac:	681b      	ldr	r3, [r3, #0]
 80062ae:	f022 0204 	bic.w	r2, r2, #4
 80062b2:	619a      	str	r2, [r3, #24]
 80062b4:	68fb      	ldr	r3, [r7, #12]
 80062b6:	681b      	ldr	r3, [r3, #0]
 80062b8:	6999      	ldr	r1, [r3, #24]
 80062ba:	68bb      	ldr	r3, [r7, #8]
 80062bc:	691a      	ldr	r2, [r3, #16]
 80062be:	68fb      	ldr	r3, [r7, #12]
 80062c0:	681b      	ldr	r3, [r3, #0]
 80062c2:	430a      	orrs	r2, r1
 80062c4:	619a      	str	r2, [r3, #24]
 80062c6:	e064      	b.n	8006392 <HAL_TIM_PWM_ConfigChannel+0x172>
 80062c8:	68fb      	ldr	r3, [r7, #12]
 80062ca:	681b      	ldr	r3, [r3, #0]
 80062cc:	68b9      	ldr	r1, [r7, #8]
 80062ce:	4618      	mov	r0, r3
 80062d0:	f000 fa44 	bl	800675c <TIM_OC2_SetConfig>
 80062d4:	68fb      	ldr	r3, [r7, #12]
 80062d6:	681b      	ldr	r3, [r3, #0]
 80062d8:	699a      	ldr	r2, [r3, #24]
 80062da:	68fb      	ldr	r3, [r7, #12]
 80062dc:	681b      	ldr	r3, [r3, #0]
 80062de:	f442 6200 	orr.w	r2, r2, #2048	; 0x800
 80062e2:	619a      	str	r2, [r3, #24]
 80062e4:	68fb      	ldr	r3, [r7, #12]
 80062e6:	681b      	ldr	r3, [r3, #0]
 80062e8:	699a      	ldr	r2, [r3, #24]
 80062ea:	68fb      	ldr	r3, [r7, #12]
 80062ec:	681b      	ldr	r3, [r3, #0]
 80062ee:	f422 6280 	bic.w	r2, r2, #1024	; 0x400
 80062f2:	619a      	str	r2, [r3, #24]
 80062f4:	68fb      	ldr	r3, [r7, #12]
 80062f6:	681b      	ldr	r3, [r3, #0]
 80062f8:	6999      	ldr	r1, [r3, #24]
 80062fa:	68bb      	ldr	r3, [r7, #8]
 80062fc:	691b      	ldr	r3, [r3, #16]
 80062fe:	021a      	lsls	r2, r3, #8
 8006300:	68fb      	ldr	r3, [r7, #12]
 8006302:	681b      	ldr	r3, [r3, #0]
 8006304:	430a      	orrs	r2, r1
 8006306:	619a      	str	r2, [r3, #24]
 8006308:	e043      	b.n	8006392 <HAL_TIM_PWM_ConfigChannel+0x172>
 800630a:	68fb      	ldr	r3, [r7, #12]
 800630c:	681b      	ldr	r3, [r3, #0]
 800630e:	68b9      	ldr	r1, [r7, #8]
 8006310:	4618      	mov	r0, r3
 8006312:	f000 fa8f 	bl	8006834 <TIM_OC3_SetConfig>
 8006316:	68fb      	ldr	r3, [r7, #12]
 8006318:	681b      	ldr	r3, [r3, #0]
 800631a:	69da      	ldr	r2, [r3, #28]
 800631c:	68fb      	ldr	r3, [r7, #12]
 800631e:	681b      	ldr	r3, [r3, #0]
 8006320:	f042 0208 	orr.w	r2, r2, #8
 8006324:	61da      	str	r2, [r3, #28]
 8006326:	68fb      	ldr	r3, [r7, #12]
 8006328:	681b      	ldr	r3, [r3, #0]
 800632a:	69da      	ldr	r2, [r3, #28]
 800632c:	68fb      	ldr	r3, [r7, #12]
 800632e:	681b      	ldr	r3, [r3, #0]
 8006330:	f022 0204 	bic.w	r2, r2, #4
 8006334:	61da      	str	r2, [r3, #28]
 8006336:	68fb      	ldr	r3, [r7, #12]
 8006338:	681b      	ldr	r3, [r3, #0]
 800633a:	69d9      	ldr	r1, [r3, #28]
 800633c:	68bb      	ldr	r3, [r7, #8]
 800633e:	691a      	ldr	r2, [r3, #16]
 8006340:	68fb      	ldr	r3, [r7, #12]
 8006342:	681b      	ldr	r3, [r3, #0]
 8006344:	430a      	orrs	r2, r1
 8006346:	61da      	str	r2, [r3, #28]
 8006348:	e023      	b.n	8006392 <HAL_TIM_PWM_ConfigChannel+0x172>
 800634a:	68fb      	ldr	r3, [r7, #12]
 800634c:	681b      	ldr	r3, [r3, #0]
 800634e:	68b9      	ldr	r1, [r7, #8]
 8006350:	4618      	mov	r0, r3
 8006352:	f000 fad9 	bl	8006908 <TIM_OC4_SetConfig>
 8006356:	68fb      	ldr	r3, [r7, #12]
 8006358:	681b      	ldr	r3, [r3, #0]
 800635a:	69da      	ldr	r2, [r3, #28]
 800635c:	68fb      	ldr	r3, [r7, #12]
 800635e:	681b      	ldr	r3, [r3, #0]
 8006360:	f442 6200 	orr.w	r2, r2, #2048	; 0x800
 8006364:	61da      	str	r2, [r3, #28]
 8006366:	68fb      	ldr	r3, [r7, #12]
 8006368:	681b      	ldr	r3, [r3, #0]
 800636a:	69da      	ldr	r2, [r3, #28]
 800636c:	68fb      	ldr	r3, [r7, #12]
 800636e:	681b      	ldr	r3, [r3, #0]
 8006370:	f422 6280 	bic.w	r2, r2, #1024	; 0x400
 8006374:	61da      	str	r2, [r3, #28]
 8006376:	68fb      	ldr	r3, [r7, #12]
 8006378:	681b      	ldr	r3, [r3, #0]
 800637a:	69d9      	ldr	r1, [r3, #28]
 800637c:	68bb      	ldr	r3, [r7, #8]
 800637e:	691b      	ldr	r3, [r3, #16]
 8006380:	021a      	lsls	r2, r3, #8
 8006382:	68fb      	ldr	r3, [r7, #12]
 8006384:	681b      	ldr	r3, [r3, #0]
 8006386:	430a      	orrs	r2, r1
 8006388:	61da      	str	r2, [r3, #28]
 800638a:	e002      	b.n	8006392 <HAL_TIM_PWM_ConfigChannel+0x172>
 800638c:	2301      	movs	r3, #1
 800638e:	75fb      	strb	r3, [r7, #23]
 8006390:	bf00      	nop
 8006392:	68fb      	ldr	r3, [r7, #12]
 8006394:	2200      	movs	r2, #0
 8006396:	f883 203c 	strb.w	r2, [r3, #60]	; 0x3c
 800639a:	7dfb      	ldrb	r3, [r7, #23]
 800639c:	4618      	mov	r0, r3
 800639e:	3718      	adds	r7, #24
 80063a0:	46bd      	mov	sp, r7
 80063a2:	bd80      	pop	{r7, pc}

080063a4 <HAL_TIM_ConfigClockSource>:
 80063a4:	b580      	push	{r7, lr}
 80063a6:	b084      	sub	sp, #16
 80063a8:	af00      	add	r7, sp, #0
 80063aa:	6078      	str	r0, [r7, #4]
 80063ac:	6039      	str	r1, [r7, #0]
 80063ae:	2300      	movs	r3, #0
 80063b0:	73fb      	strb	r3, [r7, #15]
 80063b2:	687b      	ldr	r3, [r7, #4]
 80063b4:	f893 303c 	ldrb.w	r3, [r3, #60]	; 0x3c
 80063b8:	2b01      	cmp	r3, #1
 80063ba:	d101      	bne.n	80063c0 <HAL_TIM_ConfigClockSource+0x1c>
 80063bc:	2302      	movs	r3, #2
 80063be:	e0b4      	b.n	800652a <HAL_TIM_ConfigClockSource+0x186>
 80063c0:	687b      	ldr	r3, [r7, #4]
 80063c2:	2201      	movs	r2, #1
 80063c4:	f883 203c 	strb.w	r2, [r3, #60]	; 0x3c
 80063c8:	687b      	ldr	r3, [r7, #4]
 80063ca:	2202      	movs	r2, #2
 80063cc:	f883 203d 	strb.w	r2, [r3, #61]	; 0x3d
 80063d0:	687b      	ldr	r3, [r7, #4]
 80063d2:	681b      	ldr	r3, [r3, #0]
 80063d4:	689b      	ldr	r3, [r3, #8]
 80063d6:	60bb      	str	r3, [r7, #8]
 80063d8:	68bb      	ldr	r3, [r7, #8]
 80063da:	f023 0377 	bic.w	r3, r3, #119	; 0x77
 80063de:	60bb      	str	r3, [r7, #8]
 80063e0:	68bb      	ldr	r3, [r7, #8]
 80063e2:	f423 437f 	bic.w	r3, r3, #65280	; 0xff00
 80063e6:	60bb      	str	r3, [r7, #8]
 80063e8:	687b      	ldr	r3, [r7, #4]
 80063ea:	681b      	ldr	r3, [r3, #0]
 80063ec:	68ba      	ldr	r2, [r7, #8]
 80063ee:	609a      	str	r2, [r3, #8]
 80063f0:	683b      	ldr	r3, [r7, #0]
 80063f2:	681b      	ldr	r3, [r3, #0]
 80063f4:	f5b3 5f00 	cmp.w	r3, #8192	; 0x2000
 80063f8:	d03e      	beq.n	8006478 <HAL_TIM_ConfigClockSource+0xd4>
 80063fa:	f5b3 5f00 	cmp.w	r3, #8192	; 0x2000
 80063fe:	f200 8087 	bhi.w	8006510 <HAL_TIM_ConfigClockSource+0x16c>
 8006402:	f5b3 5f80 	cmp.w	r3, #4096	; 0x1000
 8006406:	f000 8086 	beq.w	8006516 <HAL_TIM_ConfigClockSource+0x172>
 800640a:	f5b3 5f80 	cmp.w	r3, #4096	; 0x1000
 800640e:	d87f      	bhi.n	8006510 <HAL_TIM_ConfigClockSource+0x16c>
 8006410:	2b70      	cmp	r3, #112	; 0x70
 8006412:	d01a      	beq.n	800644a <HAL_TIM_ConfigClockSource+0xa6>
 8006414:	2b70      	cmp	r3, #112	; 0x70
 8006416:	d87b      	bhi.n	8006510 <HAL_TIM_ConfigClockSource+0x16c>
 8006418:	2b60      	cmp	r3, #96	; 0x60
 800641a:	d050      	beq.n	80064be <HAL_TIM_ConfigClockSource+0x11a>
 800641c:	2b60      	cmp	r3, #96	; 0x60
 800641e:	d877      	bhi.n	8006510 <HAL_TIM_ConfigClockSource+0x16c>
 8006420:	2b50      	cmp	r3, #80	; 0x50
 8006422:	d03c      	beq.n	800649e <HAL_TIM_ConfigClockSource+0xfa>
 8006424:	2b50      	cmp	r3, #80	; 0x50
 8006426:	d873      	bhi.n	8006510 <HAL_TIM_ConfigClockSource+0x16c>
 8006428:	2b40      	cmp	r3, #64	; 0x40
 800642a:	d058      	beq.n	80064de <HAL_TIM_ConfigClockSource+0x13a>
 800642c:	2b40      	cmp	r3, #64	; 0x40
 800642e:	d86f      	bhi.n	8006510 <HAL_TIM_ConfigClockSource+0x16c>
 8006430:	2b30      	cmp	r3, #48	; 0x30
 8006432:	d064      	beq.n	80064fe <HAL_TIM_ConfigClockSource+0x15a>
 8006434:	2b30      	cmp	r3, #48	; 0x30
 8006436:	d86b      	bhi.n	8006510 <HAL_TIM_ConfigClockSource+0x16c>
 8006438:	2b20      	cmp	r3, #32
 800643a:	d060      	beq.n	80064fe <HAL_TIM_ConfigClockSource+0x15a>
 800643c:	2b20      	cmp	r3, #32
 800643e:	d867      	bhi.n	8006510 <HAL_TIM_ConfigClockSource+0x16c>
 8006440:	2b00      	cmp	r3, #0
 8006442:	d05c      	beq.n	80064fe <HAL_TIM_ConfigClockSource+0x15a>
 8006444:	2b10      	cmp	r3, #16
 8006446:	d05a      	beq.n	80064fe <HAL_TIM_ConfigClockSource+0x15a>
 8006448:	e062      	b.n	8006510 <HAL_TIM_ConfigClockSource+0x16c>
 800644a:	687b      	ldr	r3, [r7, #4]
 800644c:	6818      	ldr	r0, [r3, #0]
 800644e:	683b      	ldr	r3, [r7, #0]
 8006450:	6899      	ldr	r1, [r3, #8]
 8006452:	683b      	ldr	r3, [r7, #0]
 8006454:	685a      	ldr	r2, [r3, #4]
 8006456:	683b      	ldr	r3, [r7, #0]
 8006458:	68db      	ldr	r3, [r3, #12]
 800645a:	f000 fb1f 	bl	8006a9c <TIM_ETR_SetConfig>
 800645e:	687b      	ldr	r3, [r7, #4]
 8006460:	681b      	ldr	r3, [r3, #0]
 8006462:	689b      	ldr	r3, [r3, #8]
 8006464:	60bb      	str	r3, [r7, #8]
 8006466:	68bb      	ldr	r3, [r7, #8]
 8006468:	f043 0377 	orr.w	r3, r3, #119	; 0x77
 800646c:	60bb      	str	r3, [r7, #8]
 800646e:	687b      	ldr	r3, [r7, #4]
 8006470:	681b      	ldr	r3, [r3, #0]
 8006472:	68ba      	ldr	r2, [r7, #8]
 8006474:	609a      	str	r2, [r3, #8]
 8006476:	e04f      	b.n	8006518 <HAL_TIM_ConfigClockSource+0x174>
 8006478:	687b      	ldr	r3, [r7, #4]
 800647a:	6818      	ldr	r0, [r3, #0]
 800647c:	683b      	ldr	r3, [r7, #0]
 800647e:	6899      	ldr	r1, [r3, #8]
 8006480:	683b      	ldr	r3, [r7, #0]
 8006482:	685a      	ldr	r2, [r3, #4]
 8006484:	683b      	ldr	r3, [r7, #0]
 8006486:	68db      	ldr	r3, [r3, #12]
 8006488:	f000 fb08 	bl	8006a9c <TIM_ETR_SetConfig>
 800648c:	687b      	ldr	r3, [r7, #4]
 800648e:	681b      	ldr	r3, [r3, #0]
 8006490:	689a      	ldr	r2, [r3, #8]
 8006492:	687b      	ldr	r3, [r7, #4]
 8006494:	681b      	ldr	r3, [r3, #0]
 8006496:	f442 4280 	orr.w	r2, r2, #16384	; 0x4000
 800649a:	609a      	str	r2, [r3, #8]
 800649c:	e03c      	b.n	8006518 <HAL_TIM_ConfigClockSource+0x174>
 800649e:	687b      	ldr	r3, [r7, #4]
 80064a0:	6818      	ldr	r0, [r3, #0]
 80064a2:	683b      	ldr	r3, [r7, #0]
 80064a4:	6859      	ldr	r1, [r3, #4]
 80064a6:	683b      	ldr	r3, [r7, #0]
 80064a8:	68db      	ldr	r3, [r3, #12]
 80064aa:	461a      	mov	r2, r3
 80064ac:	f000 fa7c 	bl	80069a8 <TIM_TI1_ConfigInputStage>
 80064b0:	687b      	ldr	r3, [r7, #4]
 80064b2:	681b      	ldr	r3, [r3, #0]
 80064b4:	2150      	movs	r1, #80	; 0x50
 80064b6:	4618      	mov	r0, r3
 80064b8:	f000 fad5 	bl	8006a66 <TIM_ITRx_SetConfig>
 80064bc:	e02c      	b.n	8006518 <HAL_TIM_ConfigClockSource+0x174>
 80064be:	687b      	ldr	r3, [r7, #4]
 80064c0:	6818      	ldr	r0, [r3, #0]
 80064c2:	683b      	ldr	r3, [r7, #0]
 80064c4:	6859      	ldr	r1, [r3, #4]
 80064c6:	683b      	ldr	r3, [r7, #0]
 80064c8:	68db      	ldr	r3, [r3, #12]
 80064ca:	461a      	mov	r2, r3
 80064cc:	f000 fa9b 	bl	8006a06 <TIM_TI2_ConfigInputStage>
 80064d0:	687b      	ldr	r3, [r7, #4]
 80064d2:	681b      	ldr	r3, [r3, #0]
 80064d4:	2160      	movs	r1, #96	; 0x60
 80064d6:	4618      	mov	r0, r3
 80064d8:	f000 fac5 	bl	8006a66 <TIM_ITRx_SetConfig>
 80064dc:	e01c      	b.n	8006518 <HAL_TIM_ConfigClockSource+0x174>
 80064de:	687b      	ldr	r3, [r7, #4]
 80064e0:	6818      	ldr	r0, [r3, #0]
 80064e2:	683b      	ldr	r3, [r7, #0]
 80064e4:	6859      	ldr	r1, [r3, #4]
 80064e6:	683b      	ldr	r3, [r7, #0]
 80064e8:	68db      	ldr	r3, [r3, #12]
 80064ea:	461a      	mov	r2, r3
 80064ec:	f000 fa5c 	bl	80069a8 <TIM_TI1_ConfigInputStage>
 80064f0:	687b      	ldr	r3, [r7, #4]
 80064f2:	681b      	ldr	r3, [r3, #0]
 80064f4:	2140      	movs	r1, #64	; 0x40
 80064f6:	4618      	mov	r0, r3
 80064f8:	f000 fab5 	bl	8006a66 <TIM_ITRx_SetConfig>
 80064fc:	e00c      	b.n	8006518 <HAL_TIM_ConfigClockSource+0x174>
 80064fe:	687b      	ldr	r3, [r7, #4]
 8006500:	681a      	ldr	r2, [r3, #0]
 8006502:	683b      	ldr	r3, [r7, #0]
 8006504:	681b      	ldr	r3, [r3, #0]
 8006506:	4619      	mov	r1, r3
 8006508:	4610      	mov	r0, r2
 800650a:	f000 faac 	bl	8006a66 <TIM_ITRx_SetConfig>
 800650e:	e003      	b.n	8006518 <HAL_TIM_ConfigClockSource+0x174>
 8006510:	2301      	movs	r3, #1
 8006512:	73fb      	strb	r3, [r7, #15]
 8006514:	e000      	b.n	8006518 <HAL_TIM_ConfigClockSource+0x174>
 8006516:	bf00      	nop
 8006518:	687b      	ldr	r3, [r7, #4]
 800651a:	2201      	movs	r2, #1
 800651c:	f883 203d 	strb.w	r2, [r3, #61]	; 0x3d
 8006520:	687b      	ldr	r3, [r7, #4]
 8006522:	2200      	movs	r2, #0
 8006524:	f883 203c 	strb.w	r2, [r3, #60]	; 0x3c
 8006528:	7bfb      	ldrb	r3, [r7, #15]
 800652a:	4618      	mov	r0, r3
 800652c:	3710      	adds	r7, #16
 800652e:	46bd      	mov	sp, r7
 8006530:	bd80      	pop	{r7, pc}

08006532 <HAL_TIM_OC_DelayElapsedCallback>:
 8006532:	b480      	push	{r7}
 8006534:	b083      	sub	sp, #12
 8006536:	af00      	add	r7, sp, #0
 8006538:	6078      	str	r0, [r7, #4]
 800653a:	bf00      	nop
 800653c:	370c      	adds	r7, #12
 800653e:	46bd      	mov	sp, r7
 8006540:	f85d 7b04 	ldr.w	r7, [sp], #4
 8006544:	4770      	bx	lr

08006546 <HAL_TIM_IC_CaptureCallback>:
 8006546:	b480      	push	{r7}
 8006548:	b083      	sub	sp, #12
 800654a:	af00      	add	r7, sp, #0
 800654c:	6078      	str	r0, [r7, #4]
 800654e:	bf00      	nop
 8006550:	370c      	adds	r7, #12
 8006552:	46bd      	mov	sp, r7
 8006554:	f85d 7b04 	ldr.w	r7, [sp], #4
 8006558:	4770      	bx	lr

0800655a <HAL_TIM_PWM_PulseFinishedCallback>:
 800655a:	b480      	push	{r7}
 800655c:	b083      	sub	sp, #12
 800655e:	af00      	add	r7, sp, #0
 8006560:	6078      	str	r0, [r7, #4]
 8006562:	bf00      	nop
 8006564:	370c      	adds	r7, #12
 8006566:	46bd      	mov	sp, r7
 8006568:	f85d 7b04 	ldr.w	r7, [sp], #4
 800656c:	4770      	bx	lr

0800656e <HAL_TIM_TriggerCallback>:
 800656e:	b480      	push	{r7}
 8006570:	b083      	sub	sp, #12
 8006572:	af00      	add	r7, sp, #0
 8006574:	6078      	str	r0, [r7, #4]
 8006576:	bf00      	nop
 8006578:	370c      	adds	r7, #12
 800657a:	46bd      	mov	sp, r7
 800657c:	f85d 7b04 	ldr.w	r7, [sp], #4
 8006580:	4770      	bx	lr
	...

08006584 <TIM_Base_SetConfig>:
 8006584:	b480      	push	{r7}
 8006586:	b085      	sub	sp, #20
 8006588:	af00      	add	r7, sp, #0
 800658a:	6078      	str	r0, [r7, #4]
 800658c:	6039      	str	r1, [r7, #0]
 800658e:	687b      	ldr	r3, [r7, #4]
 8006590:	681b      	ldr	r3, [r3, #0]
 8006592:	60fb      	str	r3, [r7, #12]
 8006594:	687b      	ldr	r3, [r7, #4]
 8006596:	4a37      	ldr	r2, [pc, #220]	; (8006674 <TIM_Base_SetConfig+0xf0>)
 8006598:	4293      	cmp	r3, r2
 800659a:	d00f      	beq.n	80065bc <TIM_Base_SetConfig+0x38>
 800659c:	687b      	ldr	r3, [r7, #4]
 800659e:	f1b3 4f80 	cmp.w	r3, #1073741824	; 0x40000000
 80065a2:	d00b      	beq.n	80065bc <TIM_Base_SetConfig+0x38>
 80065a4:	687b      	ldr	r3, [r7, #4]
 80065a6:	4a34      	ldr	r2, [pc, #208]	; (8006678 <TIM_Base_SetConfig+0xf4>)
 80065a8:	4293      	cmp	r3, r2
 80065aa:	d007      	beq.n	80065bc <TIM_Base_SetConfig+0x38>
 80065ac:	687b      	ldr	r3, [r7, #4]
 80065ae:	4a33      	ldr	r2, [pc, #204]	; (800667c <TIM_Base_SetConfig+0xf8>)
 80065b0:	4293      	cmp	r3, r2
 80065b2:	d003      	beq.n	80065bc <TIM_Base_SetConfig+0x38>
 80065b4:	687b      	ldr	r3, [r7, #4]
 80065b6:	4a32      	ldr	r2, [pc, #200]	; (8006680 <TIM_Base_SetConfig+0xfc>)
 80065b8:	4293      	cmp	r3, r2
 80065ba:	d108      	bne.n	80065ce <TIM_Base_SetConfig+0x4a>
 80065bc:	68fb      	ldr	r3, [r7, #12]
 80065be:	f023 0370 	bic.w	r3, r3, #112	; 0x70
 80065c2:	60fb      	str	r3, [r7, #12]
 80065c4:	683b      	ldr	r3, [r7, #0]
 80065c6:	685b      	ldr	r3, [r3, #4]
 80065c8:	68fa      	ldr	r2, [r7, #12]
 80065ca:	4313      	orrs	r3, r2
 80065cc:	60fb      	str	r3, [r7, #12]
 80065ce:	687b      	ldr	r3, [r7, #4]
 80065d0:	4a28      	ldr	r2, [pc, #160]	; (8006674 <TIM_Base_SetConfig+0xf0>)
 80065d2:	4293      	cmp	r3, r2
 80065d4:	d01b      	beq.n	800660e <TIM_Base_SetConfig+0x8a>
 80065d6:	687b      	ldr	r3, [r7, #4]
 80065d8:	f1b3 4f80 	cmp.w	r3, #1073741824	; 0x40000000
 80065dc:	d017      	beq.n	800660e <TIM_Base_SetConfig+0x8a>
 80065de:	687b      	ldr	r3, [r7, #4]
 80065e0:	4a25      	ldr	r2, [pc, #148]	; (8006678 <TIM_Base_SetConfig+0xf4>)
 80065e2:	4293      	cmp	r3, r2
 80065e4:	d013      	beq.n	800660e <TIM_Base_SetConfig+0x8a>
 80065e6:	687b      	ldr	r3, [r7, #4]
 80065e8:	4a24      	ldr	r2, [pc, #144]	; (800667c <TIM_Base_SetConfig+0xf8>)
 80065ea:	4293      	cmp	r3, r2
 80065ec:	d00f      	beq.n	800660e <TIM_Base_SetConfig+0x8a>
 80065ee:	687b      	ldr	r3, [r7, #4]
 80065f0:	4a23      	ldr	r2, [pc, #140]	; (8006680 <TIM_Base_SetConfig+0xfc>)
 80065f2:	4293      	cmp	r3, r2
 80065f4:	d00b      	beq.n	800660e <TIM_Base_SetConfig+0x8a>
 80065f6:	687b      	ldr	r3, [r7, #4]
 80065f8:	4a22      	ldr	r2, [pc, #136]	; (8006684 <TIM_Base_SetConfig+0x100>)
 80065fa:	4293      	cmp	r3, r2
 80065fc:	d007      	beq.n	800660e <TIM_Base_SetConfig+0x8a>
 80065fe:	687b      	ldr	r3, [r7, #4]
 8006600:	4a21      	ldr	r2, [pc, #132]	; (8006688 <TIM_Base_SetConfig+0x104>)
 8006602:	4293      	cmp	r3, r2
 8006604:	d003      	beq.n	800660e <TIM_Base_SetConfig+0x8a>
 8006606:	687b      	ldr	r3, [r7, #4]
 8006608:	4a20      	ldr	r2, [pc, #128]	; (800668c <TIM_Base_SetConfig+0x108>)
 800660a:	4293      	cmp	r3, r2
 800660c:	d108      	bne.n	8006620 <TIM_Base_SetConfig+0x9c>
 800660e:	68fb      	ldr	r3, [r7, #12]
 8006610:	f423 7340 	bic.w	r3, r3, #768	; 0x300
 8006614:	60fb      	str	r3, [r7, #12]
 8006616:	683b      	ldr	r3, [r7, #0]
 8006618:	68db      	ldr	r3, [r3, #12]
 800661a:	68fa      	ldr	r2, [r7, #12]
 800661c:	4313      	orrs	r3, r2
 800661e:	60fb      	str	r3, [r7, #12]
 8006620:	68fb      	ldr	r3, [r7, #12]
 8006622:	f023 0280 	bic.w	r2, r3, #128	; 0x80
 8006626:	683b      	ldr	r3, [r7, #0]
 8006628:	695b      	ldr	r3, [r3, #20]
 800662a:	4313      	orrs	r3, r2
 800662c:	60fb      	str	r3, [r7, #12]
 800662e:	683b      	ldr	r3, [r7, #0]
 8006630:	689a      	ldr	r2, [r3, #8]
 8006632:	687b      	ldr	r3, [r7, #4]
 8006634:	62da      	str	r2, [r3, #44]	; 0x2c
 8006636:	683b      	ldr	r3, [r7, #0]
 8006638:	681a      	ldr	r2, [r3, #0]
 800663a:	687b      	ldr	r3, [r7, #4]
 800663c:	629a      	str	r2, [r3, #40]	; 0x28
 800663e:	687b      	ldr	r3, [r7, #4]
 8006640:	4a0c      	ldr	r2, [pc, #48]	; (8006674 <TIM_Base_SetConfig+0xf0>)
 8006642:	4293      	cmp	r3, r2
 8006644:	d103      	bne.n	800664e <TIM_Base_SetConfig+0xca>
 8006646:	683b      	ldr	r3, [r7, #0]
 8006648:	691a      	ldr	r2, [r3, #16]
 800664a:	687b      	ldr	r3, [r7, #4]
 800664c:	631a      	str	r2, [r3, #48]	; 0x30
 800664e:	687b      	ldr	r3, [r7, #4]
 8006650:	681b      	ldr	r3, [r3, #0]
 8006652:	f043 0204 	orr.w	r2, r3, #4
 8006656:	687b      	ldr	r3, [r7, #4]
 8006658:	601a      	str	r2, [r3, #0]
 800665a:	687b      	ldr	r3, [r7, #4]
 800665c:	2201      	movs	r2, #1
 800665e:	615a      	str	r2, [r3, #20]
 8006660:	687b      	ldr	r3, [r7, #4]
 8006662:	68fa      	ldr	r2, [r7, #12]
 8006664:	601a      	str	r2, [r3, #0]
 8006666:	bf00      	nop
 8006668:	3714      	adds	r7, #20
 800666a:	46bd      	mov	sp, r7
 800666c:	f85d 7b04 	ldr.w	r7, [sp], #4
 8006670:	4770      	bx	lr
 8006672:	bf00      	nop
 8006674:	40010000 	.word	0x40010000
 8006678:	40000400 	.word	0x40000400
 800667c:	40000800 	.word	0x40000800
 8006680:	40000c00 	.word	0x40000c00
 8006684:	40014000 	.word	0x40014000
 8006688:	40014400 	.word	0x40014400
 800668c:	40014800 	.word	0x40014800

08006690 <TIM_OC1_SetConfig>:
 8006690:	b480      	push	{r7}
 8006692:	b087      	sub	sp, #28
 8006694:	af00      	add	r7, sp, #0
 8006696:	6078      	str	r0, [r7, #4]
 8006698:	6039      	str	r1, [r7, #0]
 800669a:	687b      	ldr	r3, [r7, #4]
 800669c:	6a1b      	ldr	r3, [r3, #32]
 800669e:	617b      	str	r3, [r7, #20]
 80066a0:	687b      	ldr	r3, [r7, #4]
 80066a2:	6a1b      	ldr	r3, [r3, #32]
 80066a4:	f023 0201 	bic.w	r2, r3, #1
 80066a8:	687b      	ldr	r3, [r7, #4]
 80066aa:	621a      	str	r2, [r3, #32]
 80066ac:	687b      	ldr	r3, [r7, #4]
 80066ae:	685b      	ldr	r3, [r3, #4]
 80066b0:	613b      	str	r3, [r7, #16]
 80066b2:	687b      	ldr	r3, [r7, #4]
 80066b4:	699b      	ldr	r3, [r3, #24]
 80066b6:	60fb      	str	r3, [r7, #12]
 80066b8:	68fb      	ldr	r3, [r7, #12]
 80066ba:	f023 0370 	bic.w	r3, r3, #112	; 0x70
 80066be:	60fb      	str	r3, [r7, #12]
 80066c0:	68fb      	ldr	r3, [r7, #12]
 80066c2:	f023 0303 	bic.w	r3, r3, #3
 80066c6:	60fb      	str	r3, [r7, #12]
 80066c8:	683b      	ldr	r3, [r7, #0]
 80066ca:	681b      	ldr	r3, [r3, #0]
 80066cc:	68fa      	ldr	r2, [r7, #12]
 80066ce:	4313      	orrs	r3, r2
 80066d0:	60fb      	str	r3, [r7, #12]
 80066d2:	697b      	ldr	r3, [r7, #20]
 80066d4:	f023 0302 	bic.w	r3, r3, #2
 80066d8:	617b      	str	r3, [r7, #20]
 80066da:	683b      	ldr	r3, [r7, #0]
 80066dc:	689b      	ldr	r3, [r3, #8]
 80066de:	697a      	ldr	r2, [r7, #20]
 80066e0:	4313      	orrs	r3, r2
 80066e2:	617b      	str	r3, [r7, #20]
 80066e4:	687b      	ldr	r3, [r7, #4]
 80066e6:	4a1c      	ldr	r2, [pc, #112]	; (8006758 <TIM_OC1_SetConfig+0xc8>)
 80066e8:	4293      	cmp	r3, r2
 80066ea:	d10c      	bne.n	8006706 <TIM_OC1_SetConfig+0x76>
 80066ec:	697b      	ldr	r3, [r7, #20]
 80066ee:	f023 0308 	bic.w	r3, r3, #8
 80066f2:	617b      	str	r3, [r7, #20]
 80066f4:	683b      	ldr	r3, [r7, #0]
 80066f6:	68db      	ldr	r3, [r3, #12]
 80066f8:	697a      	ldr	r2, [r7, #20]
 80066fa:	4313      	orrs	r3, r2
 80066fc:	617b      	str	r3, [r7, #20]
 80066fe:	697b      	ldr	r3, [r7, #20]
 8006700:	f023 0304 	bic.w	r3, r3, #4
 8006704:	617b      	str	r3, [r7, #20]
 8006706:	687b      	ldr	r3, [r7, #4]
 8006708:	4a13      	ldr	r2, [pc, #76]	; (8006758 <TIM_OC1_SetConfig+0xc8>)
 800670a:	4293      	cmp	r3, r2
 800670c:	d111      	bne.n	8006732 <TIM_OC1_SetConfig+0xa2>
 800670e:	693b      	ldr	r3, [r7, #16]
 8006710:	f423 7380 	bic.w	r3, r3, #256	; 0x100
 8006714:	613b      	str	r3, [r7, #16]
 8006716:	693b      	ldr	r3, [r7, #16]
 8006718:	f423 7300 	bic.w	r3, r3, #512	; 0x200
 800671c:	613b      	str	r3, [r7, #16]
 800671e:	683b      	ldr	r3, [r7, #0]
 8006720:	695b      	ldr	r3, [r3, #20]
 8006722:	693a      	ldr	r2, [r7, #16]
 8006724:	4313      	orrs	r3, r2
 8006726:	613b      	str	r3, [r7, #16]
 8006728:	683b      	ldr	r3, [r7, #0]
 800672a:	699b      	ldr	r3, [r3, #24]
 800672c:	693a      	ldr	r2, [r7, #16]
 800672e:	4313      	orrs	r3, r2
 8006730:	613b      	str	r3, [r7, #16]
 8006732:	687b      	ldr	r3, [r7, #4]
 8006734:	693a      	ldr	r2, [r7, #16]
 8006736:	605a      	str	r2, [r3, #4]
 8006738:	687b      	ldr	r3, [r7, #4]
 800673a:	68fa      	ldr	r2, [r7, #12]
 800673c:	619a      	str	r2, [r3, #24]
 800673e:	683b      	ldr	r3, [r7, #0]
 8006740:	685a      	ldr	r2, [r3, #4]
 8006742:	687b      	ldr	r3, [r7, #4]
 8006744:	635a      	str	r2, [r3, #52]	; 0x34
 8006746:	687b      	ldr	r3, [r7, #4]
 8006748:	697a      	ldr	r2, [r7, #20]
 800674a:	621a      	str	r2, [r3, #32]
 800674c:	bf00      	nop
 800674e:	371c      	adds	r7, #28
 8006750:	46bd      	mov	sp, r7
 8006752:	f85d 7b04 	ldr.w	r7, [sp], #4
 8006756:	4770      	bx	lr
 8006758:	40010000 	.word	0x40010000

0800675c <TIM_OC2_SetConfig>:
 800675c:	b480      	push	{r7}
 800675e:	b087      	sub	sp, #28
 8006760:	af00      	add	r7, sp, #0
 8006762:	6078      	str	r0, [r7, #4]
 8006764:	6039      	str	r1, [r7, #0]
 8006766:	687b      	ldr	r3, [r7, #4]
 8006768:	6a1b      	ldr	r3, [r3, #32]
 800676a:	617b      	str	r3, [r7, #20]
 800676c:	687b      	ldr	r3, [r7, #4]
 800676e:	6a1b      	ldr	r3, [r3, #32]
 8006770:	f023 0210 	bic.w	r2, r3, #16
 8006774:	687b      	ldr	r3, [r7, #4]
 8006776:	621a      	str	r2, [r3, #32]
 8006778:	687b      	ldr	r3, [r7, #4]
 800677a:	685b      	ldr	r3, [r3, #4]
 800677c:	613b      	str	r3, [r7, #16]
 800677e:	687b      	ldr	r3, [r7, #4]
 8006780:	699b      	ldr	r3, [r3, #24]
 8006782:	60fb      	str	r3, [r7, #12]
 8006784:	68fb      	ldr	r3, [r7, #12]
 8006786:	f423 43e0 	bic.w	r3, r3, #28672	; 0x7000
 800678a:	60fb      	str	r3, [r7, #12]
 800678c:	68fb      	ldr	r3, [r7, #12]
 800678e:	f423 7340 	bic.w	r3, r3, #768	; 0x300
 8006792:	60fb      	str	r3, [r7, #12]
 8006794:	683b      	ldr	r3, [r7, #0]
 8006796:	681b      	ldr	r3, [r3, #0]
 8006798:	021b      	lsls	r3, r3, #8
 800679a:	68fa      	ldr	r2, [r7, #12]
 800679c:	4313      	orrs	r3, r2
 800679e:	60fb      	str	r3, [r7, #12]
 80067a0:	697b      	ldr	r3, [r7, #20]
 80067a2:	f023 0320 	bic.w	r3, r3, #32
 80067a6:	617b      	str	r3, [r7, #20]
 80067a8:	683b      	ldr	r3, [r7, #0]
 80067aa:	689b      	ldr	r3, [r3, #8]
 80067ac:	011b      	lsls	r3, r3, #4
 80067ae:	697a      	ldr	r2, [r7, #20]
 80067b0:	4313      	orrs	r3, r2
 80067b2:	617b      	str	r3, [r7, #20]
 80067b4:	687b      	ldr	r3, [r7, #4]
 80067b6:	4a1e      	ldr	r2, [pc, #120]	; (8006830 <TIM_OC2_SetConfig+0xd4>)
 80067b8:	4293      	cmp	r3, r2
 80067ba:	d10d      	bne.n	80067d8 <TIM_OC2_SetConfig+0x7c>
 80067bc:	697b      	ldr	r3, [r7, #20]
 80067be:	f023 0380 	bic.w	r3, r3, #128	; 0x80
 80067c2:	617b      	str	r3, [r7, #20]
 80067c4:	683b      	ldr	r3, [r7, #0]
 80067c6:	68db      	ldr	r3, [r3, #12]
 80067c8:	011b      	lsls	r3, r3, #4
 80067ca:	697a      	ldr	r2, [r7, #20]
 80067cc:	4313      	orrs	r3, r2
 80067ce:	617b      	str	r3, [r7, #20]
 80067d0:	697b      	ldr	r3, [r7, #20]
 80067d2:	f023 0340 	bic.w	r3, r3, #64	; 0x40
 80067d6:	617b      	str	r3, [r7, #20]
 80067d8:	687b      	ldr	r3, [r7, #4]
 80067da:	4a15      	ldr	r2, [pc, #84]	; (8006830 <TIM_OC2_SetConfig+0xd4>)
 80067dc:	4293      	cmp	r3, r2
 80067de:	d113      	bne.n	8006808 <TIM_OC2_SetConfig+0xac>
 80067e0:	693b      	ldr	r3, [r7, #16]
 80067e2:	f423 6380 	bic.w	r3, r3, #1024	; 0x400
 80067e6:	613b      	str	r3, [r7, #16]
 80067e8:	693b      	ldr	r3, [r7, #16]
 80067ea:	f423 6300 	bic.w	r3, r3, #2048	; 0x800
 80067ee:	613b      	str	r3, [r7, #16]
 80067f0:	683b      	ldr	r3, [r7, #0]
 80067f2:	695b      	ldr	r3, [r3, #20]
 80067f4:	009b      	lsls	r3, r3, #2
 80067f6:	693a      	ldr	r2, [r7, #16]
 80067f8:	4313      	orrs	r3, r2
 80067fa:	613b      	str	r3, [r7, #16]
 80067fc:	683b      	ldr	r3, [r7, #0]
 80067fe:	699b      	ldr	r3, [r3, #24]
 8006800:	009b      	lsls	r3, r3, #2
 8006802:	693a      	ldr	r2, [r7, #16]
 8006804:	4313      	orrs	r3, r2
 8006806:	613b      	str	r3, [r7, #16]
 8006808:	687b      	ldr	r3, [r7, #4]
 800680a:	693a      	ldr	r2, [r7, #16]
 800680c:	605a      	str	r2, [r3, #4]
 800680e:	687b      	ldr	r3, [r7, #4]
 8006810:	68fa      	ldr	r2, [r7, #12]
 8006812:	619a      	str	r2, [r3, #24]
 8006814:	683b      	ldr	r3, [r7, #0]
 8006816:	685a      	ldr	r2, [r3, #4]
 8006818:	687b      	ldr	r3, [r7, #4]
 800681a:	639a      	str	r2, [r3, #56]	; 0x38
 800681c:	687b      	ldr	r3, [r7, #4]
 800681e:	697a      	ldr	r2, [r7, #20]
 8006820:	621a      	str	r2, [r3, #32]
 8006822:	bf00      	nop
 8006824:	371c      	adds	r7, #28
 8006826:	46bd      	mov	sp, r7
 8006828:	f85d 7b04 	ldr.w	r7, [sp], #4
 800682c:	4770      	bx	lr
 800682e:	bf00      	nop
 8006830:	40010000 	.word	0x40010000

08006834 <TIM_OC3_SetConfig>:
 8006834:	b480      	push	{r7}
 8006836:	b087      	sub	sp, #28
 8006838:	af00      	add	r7, sp, #0
 800683a:	6078      	str	r0, [r7, #4]
 800683c:	6039      	str	r1, [r7, #0]
 800683e:	687b      	ldr	r3, [r7, #4]
 8006840:	6a1b      	ldr	r3, [r3, #32]
 8006842:	617b      	str	r3, [r7, #20]
 8006844:	687b      	ldr	r3, [r7, #4]
 8006846:	6a1b      	ldr	r3, [r3, #32]
 8006848:	f423 7280 	bic.w	r2, r3, #256	; 0x100
 800684c:	687b      	ldr	r3, [r7, #4]
 800684e:	621a      	str	r2, [r3, #32]
 8006850:	687b      	ldr	r3, [r7, #4]
 8006852:	685b      	ldr	r3, [r3, #4]
 8006854:	613b      	str	r3, [r7, #16]
 8006856:	687b      	ldr	r3, [r7, #4]
 8006858:	69db      	ldr	r3, [r3, #28]
 800685a:	60fb      	str	r3, [r7, #12]
 800685c:	68fb      	ldr	r3, [r7, #12]
 800685e:	f023 0370 	bic.w	r3, r3, #112	; 0x70
 8006862:	60fb      	str	r3, [r7, #12]
 8006864:	68fb      	ldr	r3, [r7, #12]
 8006866:	f023 0303 	bic.w	r3, r3, #3
 800686a:	60fb      	str	r3, [r7, #12]
 800686c:	683b      	ldr	r3, [r7, #0]
 800686e:	681b      	ldr	r3, [r3, #0]
 8006870:	68fa      	ldr	r2, [r7, #12]
 8006872:	4313      	orrs	r3, r2
 8006874:	60fb      	str	r3, [r7, #12]
 8006876:	697b      	ldr	r3, [r7, #20]
 8006878:	f423 7300 	bic.w	r3, r3, #512	; 0x200
 800687c:	617b      	str	r3, [r7, #20]
 800687e:	683b      	ldr	r3, [r7, #0]
 8006880:	689b      	ldr	r3, [r3, #8]
 8006882:	021b      	lsls	r3, r3, #8
 8006884:	697a      	ldr	r2, [r7, #20]
 8006886:	4313      	orrs	r3, r2
 8006888:	617b      	str	r3, [r7, #20]
 800688a:	687b      	ldr	r3, [r7, #4]
 800688c:	4a1d      	ldr	r2, [pc, #116]	; (8006904 <TIM_OC3_SetConfig+0xd0>)
 800688e:	4293      	cmp	r3, r2
 8006890:	d10d      	bne.n	80068ae <TIM_OC3_SetConfig+0x7a>
 8006892:	697b      	ldr	r3, [r7, #20]
 8006894:	f423 6300 	bic.w	r3, r3, #2048	; 0x800
 8006898:	617b      	str	r3, [r7, #20]
 800689a:	683b      	ldr	r3, [r7, #0]
 800689c:	68db      	ldr	r3, [r3, #12]
 800689e:	021b      	lsls	r3, r3, #8
 80068a0:	697a      	ldr	r2, [r7, #20]
 80068a2:	4313      	orrs	r3, r2
 80068a4:	617b      	str	r3, [r7, #20]
 80068a6:	697b      	ldr	r3, [r7, #20]
 80068a8:	f423 6380 	bic.w	r3, r3, #1024	; 0x400
 80068ac:	617b      	str	r3, [r7, #20]
 80068ae:	687b      	ldr	r3, [r7, #4]
 80068b0:	4a14      	ldr	r2, [pc, #80]	; (8006904 <TIM_OC3_SetConfig+0xd0>)
 80068b2:	4293      	cmp	r3, r2
 80068b4:	d113      	bne.n	80068de <TIM_OC3_SetConfig+0xaa>
 80068b6:	693b      	ldr	r3, [r7, #16]
 80068b8:	f423 5380 	bic.w	r3, r3, #4096	; 0x1000
 80068bc:	613b      	str	r3, [r7, #16]
 80068be:	693b      	ldr	r3, [r7, #16]
 80068c0:	f423 5300 	bic.w	r3, r3, #8192	; 0x2000
 80068c4:	613b      	str	r3, [r7, #16]
 80068c6:	683b      	ldr	r3, [r7, #0]
 80068c8:	695b      	ldr	r3, [r3, #20]
 80068ca:	011b      	lsls	r3, r3, #4
 80068cc:	693a      	ldr	r2, [r7, #16]
 80068ce:	4313      	orrs	r3, r2
 80068d0:	613b      	str	r3, [r7, #16]
 80068d2:	683b      	ldr	r3, [r7, #0]
 80068d4:	699b      	ldr	r3, [r3, #24]
 80068d6:	011b      	lsls	r3, r3, #4
 80068d8:	693a      	ldr	r2, [r7, #16]
 80068da:	4313      	orrs	r3, r2
 80068dc:	613b      	str	r3, [r7, #16]
 80068de:	687b      	ldr	r3, [r7, #4]
 80068e0:	693a      	ldr	r2, [r7, #16]
 80068e2:	605a      	str	r2, [r3, #4]
 80068e4:	687b      	ldr	r3, [r7, #4]
 80068e6:	68fa      	ldr	r2, [r7, #12]
 80068e8:	61da      	str	r2, [r3, #28]
 80068ea:	683b      	ldr	r3, [r7, #0]
 80068ec:	685a      	ldr	r2, [r3, #4]
 80068ee:	687b      	ldr	r3, [r7, #4]
 80068f0:	63da      	str	r2, [r3, #60]	; 0x3c
 80068f2:	687b      	ldr	r3, [r7, #4]
 80068f4:	697a      	ldr	r2, [r7, #20]
 80068f6:	621a      	str	r2, [r3, #32]
 80068f8:	bf00      	nop
 80068fa:	371c      	adds	r7, #28
 80068fc:	46bd      	mov	sp, r7
 80068fe:	f85d 7b04 	ldr.w	r7, [sp], #4
 8006902:	4770      	bx	lr
 8006904:	40010000 	.word	0x40010000

08006908 <TIM_OC4_SetConfig>:
 8006908:	b480      	push	{r7}
 800690a:	b087      	sub	sp, #28
 800690c:	af00      	add	r7, sp, #0
 800690e:	6078      	str	r0, [r7, #4]
 8006910:	6039      	str	r1, [r7, #0]
 8006912:	687b      	ldr	r3, [r7, #4]
 8006914:	6a1b      	ldr	r3, [r3, #32]
 8006916:	613b      	str	r3, [r7, #16]
 8006918:	687b      	ldr	r3, [r7, #4]
 800691a:	6a1b      	ldr	r3, [r3, #32]
 800691c:	f423 5280 	bic.w	r2, r3, #4096	; 0x1000
 8006920:	687b      	ldr	r3, [r7, #4]
 8006922:	621a      	str	r2, [r3, #32]
 8006924:	687b      	ldr	r3, [r7, #4]
 8006926:	685b      	ldr	r3, [r3, #4]
 8006928:	617b      	str	r3, [r7, #20]
 800692a:	687b      	ldr	r3, [r7, #4]
 800692c:	69db      	ldr	r3, [r3, #28]
 800692e:	60fb      	str	r3, [r7, #12]
 8006930:	68fb      	ldr	r3, [r7, #12]
 8006932:	f423 43e0 	bic.w	r3, r3, #28672	; 0x7000
 8006936:	60fb      	str	r3, [r7, #12]
 8006938:	68fb      	ldr	r3, [r7, #12]
 800693a:	f423 7340 	bic.w	r3, r3, #768	; 0x300
 800693e:	60fb      	str	r3, [r7, #12]
 8006940:	683b      	ldr	r3, [r7, #0]
 8006942:	681b      	ldr	r3, [r3, #0]
 8006944:	021b      	lsls	r3, r3, #8
 8006946:	68fa      	ldr	r2, [r7, #12]
 8006948:	4313      	orrs	r3, r2
 800694a:	60fb      	str	r3, [r7, #12]
 800694c:	693b      	ldr	r3, [r7, #16]
 800694e:	f423 5300 	bic.w	r3, r3, #8192	; 0x2000
 8006952:	613b      	str	r3, [r7, #16]
 8006954:	683b      	ldr	r3, [r7, #0]
 8006956:	689b      	ldr	r3, [r3, #8]
 8006958:	031b      	lsls	r3, r3, #12
 800695a:	693a      	ldr	r2, [r7, #16]
 800695c:	4313      	orrs	r3, r2
 800695e:	613b      	str	r3, [r7, #16]
 8006960:	687b      	ldr	r3, [r7, #4]
 8006962:	4a10      	ldr	r2, [pc, #64]	; (80069a4 <TIM_OC4_SetConfig+0x9c>)
 8006964:	4293      	cmp	r3, r2
 8006966:	d109      	bne.n	800697c <TIM_OC4_SetConfig+0x74>
 8006968:	697b      	ldr	r3, [r7, #20]
 800696a:	f423 4380 	bic.w	r3, r3, #16384	; 0x4000
 800696e:	617b      	str	r3, [r7, #20]
 8006970:	683b      	ldr	r3, [r7, #0]
 8006972:	695b      	ldr	r3, [r3, #20]
 8006974:	019b      	lsls	r3, r3, #6
 8006976:	697a      	ldr	r2, [r7, #20]
 8006978:	4313      	orrs	r3, r2
 800697a:	617b      	str	r3, [r7, #20]
 800697c:	687b      	ldr	r3, [r7, #4]
 800697e:	697a      	ldr	r2, [r7, #20]
 8006980:	605a      	str	r2, [r3, #4]
 8006982:	687b      	ldr	r3, [r7, #4]
 8006984:	68fa      	ldr	r2, [r7, #12]
 8006986:	61da      	str	r2, [r3, #28]
 8006988:	683b      	ldr	r3, [r7, #0]
 800698a:	685a      	ldr	r2, [r3, #4]
 800698c:	687b      	ldr	r3, [r7, #4]
 800698e:	641a      	str	r2, [r3, #64]	; 0x40
 8006990:	687b      	ldr	r3, [r7, #4]
 8006992:	693a      	ldr	r2, [r7, #16]
 8006994:	621a      	str	r2, [r3, #32]
 8006996:	bf00      	nop
 8006998:	371c      	adds	r7, #28
 800699a:	46bd      	mov	sp, r7
 800699c:	f85d 7b04 	ldr.w	r7, [sp], #4
 80069a0:	4770      	bx	lr
 80069a2:	bf00      	nop
 80069a4:	40010000 	.word	0x40010000

080069a8 <TIM_TI1_ConfigInputStage>:
 80069a8:	b480      	push	{r7}
 80069aa:	b087      	sub	sp, #28
 80069ac:	af00      	add	r7, sp, #0
 80069ae:	60f8      	str	r0, [r7, #12]
 80069b0:	60b9      	str	r1, [r7, #8]
 80069b2:	607a      	str	r2, [r7, #4]
 80069b4:	68fb      	ldr	r3, [r7, #12]
 80069b6:	6a1b      	ldr	r3, [r3, #32]
 80069b8:	617b      	str	r3, [r7, #20]
 80069ba:	68fb      	ldr	r3, [r7, #12]
 80069bc:	6a1b      	ldr	r3, [r3, #32]
 80069be:	f023 0201 	bic.w	r2, r3, #1
 80069c2:	68fb      	ldr	r3, [r7, #12]
 80069c4:	621a      	str	r2, [r3, #32]
 80069c6:	68fb      	ldr	r3, [r7, #12]
 80069c8:	699b      	ldr	r3, [r3, #24]
 80069ca:	613b      	str	r3, [r7, #16]
 80069cc:	693b      	ldr	r3, [r7, #16]
 80069ce:	f023 03f0 	bic.w	r3, r3, #240	; 0xf0
 80069d2:	613b      	str	r3, [r7, #16]
 80069d4:	687b      	ldr	r3, [r7, #4]
 80069d6:	011b      	lsls	r3, r3, #4
 80069d8:	693a      	ldr	r2, [r7, #16]
 80069da:	4313      	orrs	r3, r2
 80069dc:	613b      	str	r3, [r7, #16]
 80069de:	697b      	ldr	r3, [r7, #20]
 80069e0:	f023 030a 	bic.w	r3, r3, #10
 80069e4:	617b      	str	r3, [r7, #20]
 80069e6:	697a      	ldr	r2, [r7, #20]
 80069e8:	68bb      	ldr	r3, [r7, #8]
 80069ea:	4313      	orrs	r3, r2
 80069ec:	617b      	str	r3, [r7, #20]
 80069ee:	68fb      	ldr	r3, [r7, #12]
 80069f0:	693a      	ldr	r2, [r7, #16]
 80069f2:	619a      	str	r2, [r3, #24]
 80069f4:	68fb      	ldr	r3, [r7, #12]
 80069f6:	697a      	ldr	r2, [r7, #20]
 80069f8:	621a      	str	r2, [r3, #32]
 80069fa:	bf00      	nop
 80069fc:	371c      	adds	r7, #28
 80069fe:	46bd      	mov	sp, r7
 8006a00:	f85d 7b04 	ldr.w	r7, [sp], #4
 8006a04:	4770      	bx	lr

08006a06 <TIM_TI2_ConfigInputStage>:
 8006a06:	b480      	push	{r7}
 8006a08:	b087      	sub	sp, #28
 8006a0a:	af00      	add	r7, sp, #0
 8006a0c:	60f8      	str	r0, [r7, #12]
 8006a0e:	60b9      	str	r1, [r7, #8]
 8006a10:	607a      	str	r2, [r7, #4]
 8006a12:	68fb      	ldr	r3, [r7, #12]
 8006a14:	6a1b      	ldr	r3, [r3, #32]
 8006a16:	617b      	str	r3, [r7, #20]
 8006a18:	68fb      	ldr	r3, [r7, #12]
 8006a1a:	6a1b      	ldr	r3, [r3, #32]
 8006a1c:	f023 0210 	bic.w	r2, r3, #16
 8006a20:	68fb      	ldr	r3, [r7, #12]
 8006a22:	621a      	str	r2, [r3, #32]
 8006a24:	68fb      	ldr	r3, [r7, #12]
 8006a26:	699b      	ldr	r3, [r3, #24]
 8006a28:	613b      	str	r3, [r7, #16]
 8006a2a:	693b      	ldr	r3, [r7, #16]
 8006a2c:	f423 4370 	bic.w	r3, r3, #61440	; 0xf000
 8006a30:	613b      	str	r3, [r7, #16]
 8006a32:	687b      	ldr	r3, [r7, #4]
 8006a34:	031b      	lsls	r3, r3, #12
 8006a36:	693a      	ldr	r2, [r7, #16]
 8006a38:	4313      	orrs	r3, r2
 8006a3a:	613b      	str	r3, [r7, #16]
 8006a3c:	697b      	ldr	r3, [r7, #20]
 8006a3e:	f023 03a0 	bic.w	r3, r3, #160	; 0xa0
 8006a42:	617b      	str	r3, [r7, #20]
 8006a44:	68bb      	ldr	r3, [r7, #8]
 8006a46:	011b      	lsls	r3, r3, #4
 8006a48:	697a      	ldr	r2, [r7, #20]
 8006a4a:	4313      	orrs	r3, r2
 8006a4c:	617b      	str	r3, [r7, #20]
 8006a4e:	68fb      	ldr	r3, [r7, #12]
 8006a50:	693a      	ldr	r2, [r7, #16]
 8006a52:	619a      	str	r2, [r3, #24]
 8006a54:	68fb      	ldr	r3, [r7, #12]
 8006a56:	697a      	ldr	r2, [r7, #20]
 8006a58:	621a      	str	r2, [r3, #32]
 8006a5a:	bf00      	nop
 8006a5c:	371c      	adds	r7, #28
 8006a5e:	46bd      	mov	sp, r7
 8006a60:	f85d 7b04 	ldr.w	r7, [sp], #4
 8006a64:	4770      	bx	lr

08006a66 <TIM_ITRx_SetConfig>:
 8006a66:	b480      	push	{r7}
 8006a68:	b085      	sub	sp, #20
 8006a6a:	af00      	add	r7, sp, #0
 8006a6c:	6078      	str	r0, [r7, #4]
 8006a6e:	6039      	str	r1, [r7, #0]
 8006a70:	687b      	ldr	r3, [r7, #4]
 8006a72:	689b      	ldr	r3, [r3, #8]
 8006a74:	60fb      	str	r3, [r7, #12]
 8006a76:	68fb      	ldr	r3, [r7, #12]
 8006a78:	f023 0370 	bic.w	r3, r3, #112	; 0x70
 8006a7c:	60fb      	str	r3, [r7, #12]
 8006a7e:	683a      	ldr	r2, [r7, #0]
 8006a80:	68fb      	ldr	r3, [r7, #12]
 8006a82:	4313      	orrs	r3, r2
 8006a84:	f043 0307 	orr.w	r3, r3, #7
 8006a88:	60fb      	str	r3, [r7, #12]
 8006a8a:	687b      	ldr	r3, [r7, #4]
 8006a8c:	68fa      	ldr	r2, [r7, #12]
 8006a8e:	609a      	str	r2, [r3, #8]
 8006a90:	bf00      	nop
 8006a92:	3714      	adds	r7, #20
 8006a94:	46bd      	mov	sp, r7
 8006a96:	f85d 7b04 	ldr.w	r7, [sp], #4
 8006a9a:	4770      	bx	lr

08006a9c <TIM_ETR_SetConfig>:
 8006a9c:	b480      	push	{r7}
 8006a9e:	b087      	sub	sp, #28
 8006aa0:	af00      	add	r7, sp, #0
 8006aa2:	60f8      	str	r0, [r7, #12]
 8006aa4:	60b9      	str	r1, [r7, #8]
 8006aa6:	607a      	str	r2, [r7, #4]
 8006aa8:	603b      	str	r3, [r7, #0]
 8006aaa:	68fb      	ldr	r3, [r7, #12]
 8006aac:	689b      	ldr	r3, [r3, #8]
 8006aae:	617b      	str	r3, [r7, #20]
 8006ab0:	697b      	ldr	r3, [r7, #20]
 8006ab2:	f423 437f 	bic.w	r3, r3, #65280	; 0xff00
 8006ab6:	617b      	str	r3, [r7, #20]
 8006ab8:	683b      	ldr	r3, [r7, #0]
 8006aba:	021a      	lsls	r2, r3, #8
 8006abc:	687b      	ldr	r3, [r7, #4]
 8006abe:	431a      	orrs	r2, r3
 8006ac0:	68bb      	ldr	r3, [r7, #8]
 8006ac2:	4313      	orrs	r3, r2
 8006ac4:	697a      	ldr	r2, [r7, #20]
 8006ac6:	4313      	orrs	r3, r2
 8006ac8:	617b      	str	r3, [r7, #20]
 8006aca:	68fb      	ldr	r3, [r7, #12]
 8006acc:	697a      	ldr	r2, [r7, #20]
 8006ace:	609a      	str	r2, [r3, #8]
 8006ad0:	bf00      	nop
 8006ad2:	371c      	adds	r7, #28
 8006ad4:	46bd      	mov	sp, r7
 8006ad6:	f85d 7b04 	ldr.w	r7, [sp], #4
 8006ada:	4770      	bx	lr

08006adc <TIM_CCxChannelCmd>:
 8006adc:	b480      	push	{r7}
 8006ade:	b087      	sub	sp, #28
 8006ae0:	af00      	add	r7, sp, #0
 8006ae2:	60f8      	str	r0, [r7, #12]
 8006ae4:	60b9      	str	r1, [r7, #8]
 8006ae6:	607a      	str	r2, [r7, #4]
 8006ae8:	68bb      	ldr	r3, [r7, #8]
 8006aea:	f003 031f 	and.w	r3, r3, #31
 8006aee:	2201      	movs	r2, #1
 8006af0:	fa02 f303 	lsl.w	r3, r2, r3
 8006af4:	617b      	str	r3, [r7, #20]
 8006af6:	68fb      	ldr	r3, [r7, #12]
 8006af8:	6a1a      	ldr	r2, [r3, #32]
 8006afa:	697b      	ldr	r3, [r7, #20]
 8006afc:	43db      	mvns	r3, r3
 8006afe:	401a      	ands	r2, r3
 8006b00:	68fb      	ldr	r3, [r7, #12]
 8006b02:	621a      	str	r2, [r3, #32]
 8006b04:	68fb      	ldr	r3, [r7, #12]
 8006b06:	6a1a      	ldr	r2, [r3, #32]
 8006b08:	68bb      	ldr	r3, [r7, #8]
 8006b0a:	f003 031f 	and.w	r3, r3, #31
 8006b0e:	6879      	ldr	r1, [r7, #4]
 8006b10:	fa01 f303 	lsl.w	r3, r1, r3
 8006b14:	431a      	orrs	r2, r3
 8006b16:	68fb      	ldr	r3, [r7, #12]
 8006b18:	621a      	str	r2, [r3, #32]
 8006b1a:	bf00      	nop
 8006b1c:	371c      	adds	r7, #28
 8006b1e:	46bd      	mov	sp, r7
 8006b20:	f85d 7b04 	ldr.w	r7, [sp], #4
 8006b24:	4770      	bx	lr
	...

08006b28 <HAL_TIMEx_MasterConfigSynchronization>:
 8006b28:	b480      	push	{r7}
 8006b2a:	b085      	sub	sp, #20
 8006b2c:	af00      	add	r7, sp, #0
 8006b2e:	6078      	str	r0, [r7, #4]
 8006b30:	6039      	str	r1, [r7, #0]
 8006b32:	687b      	ldr	r3, [r7, #4]
 8006b34:	f893 303c 	ldrb.w	r3, [r3, #60]	; 0x3c
 8006b38:	2b01      	cmp	r3, #1
 8006b3a:	d101      	bne.n	8006b40 <HAL_TIMEx_MasterConfigSynchronization+0x18>
 8006b3c:	2302      	movs	r3, #2
 8006b3e:	e050      	b.n	8006be2 <HAL_TIMEx_MasterConfigSynchronization+0xba>
 8006b40:	687b      	ldr	r3, [r7, #4]
 8006b42:	2201      	movs	r2, #1
 8006b44:	f883 203c 	strb.w	r2, [r3, #60]	; 0x3c
 8006b48:	687b      	ldr	r3, [r7, #4]
 8006b4a:	2202      	movs	r2, #2
 8006b4c:	f883 203d 	strb.w	r2, [r3, #61]	; 0x3d
 8006b50:	687b      	ldr	r3, [r7, #4]
 8006b52:	681b      	ldr	r3, [r3, #0]
 8006b54:	685b      	ldr	r3, [r3, #4]
 8006b56:	60fb      	str	r3, [r7, #12]
 8006b58:	687b      	ldr	r3, [r7, #4]
 8006b5a:	681b      	ldr	r3, [r3, #0]
 8006b5c:	689b      	ldr	r3, [r3, #8]
 8006b5e:	60bb      	str	r3, [r7, #8]
 8006b60:	68fb      	ldr	r3, [r7, #12]
 8006b62:	f023 0370 	bic.w	r3, r3, #112	; 0x70
 8006b66:	60fb      	str	r3, [r7, #12]
 8006b68:	683b      	ldr	r3, [r7, #0]
 8006b6a:	681b      	ldr	r3, [r3, #0]
 8006b6c:	68fa      	ldr	r2, [r7, #12]
 8006b6e:	4313      	orrs	r3, r2
 8006b70:	60fb      	str	r3, [r7, #12]
 8006b72:	687b      	ldr	r3, [r7, #4]
 8006b74:	681b      	ldr	r3, [r3, #0]
 8006b76:	68fa      	ldr	r2, [r7, #12]
 8006b78:	605a      	str	r2, [r3, #4]
 8006b7a:	687b      	ldr	r3, [r7, #4]
 8006b7c:	681b      	ldr	r3, [r3, #0]
 8006b7e:	4a1c      	ldr	r2, [pc, #112]	; (8006bf0 <HAL_TIMEx_MasterConfigSynchronization+0xc8>)
 8006b80:	4293      	cmp	r3, r2
 8006b82:	d018      	beq.n	8006bb6 <HAL_TIMEx_MasterConfigSynchronization+0x8e>
 8006b84:	687b      	ldr	r3, [r7, #4]
 8006b86:	681b      	ldr	r3, [r3, #0]
 8006b88:	f1b3 4f80 	cmp.w	r3, #1073741824	; 0x40000000
 8006b8c:	d013      	beq.n	8006bb6 <HAL_TIMEx_MasterConfigSynchronization+0x8e>
 8006b8e:	687b      	ldr	r3, [r7, #4]
 8006b90:	681b      	ldr	r3, [r3, #0]
 8006b92:	4a18      	ldr	r2, [pc, #96]	; (8006bf4 <HAL_TIMEx_MasterConfigSynchronization+0xcc>)
 8006b94:	4293      	cmp	r3, r2
 8006b96:	d00e      	beq.n	8006bb6 <HAL_TIMEx_MasterConfigSynchronization+0x8e>
 8006b98:	687b      	ldr	r3, [r7, #4]
 8006b9a:	681b      	ldr	r3, [r3, #0]
 8006b9c:	4a16      	ldr	r2, [pc, #88]	; (8006bf8 <HAL_TIMEx_MasterConfigSynchronization+0xd0>)
 8006b9e:	4293      	cmp	r3, r2
 8006ba0:	d009      	beq.n	8006bb6 <HAL_TIMEx_MasterConfigSynchronization+0x8e>
 8006ba2:	687b      	ldr	r3, [r7, #4]
 8006ba4:	681b      	ldr	r3, [r3, #0]
 8006ba6:	4a15      	ldr	r2, [pc, #84]	; (8006bfc <HAL_TIMEx_MasterConfigSynchronization+0xd4>)
 8006ba8:	4293      	cmp	r3, r2
 8006baa:	d004      	beq.n	8006bb6 <HAL_TIMEx_MasterConfigSynchronization+0x8e>
 8006bac:	687b      	ldr	r3, [r7, #4]
 8006bae:	681b      	ldr	r3, [r3, #0]
 8006bb0:	4a13      	ldr	r2, [pc, #76]	; (8006c00 <HAL_TIMEx_MasterConfigSynchronization+0xd8>)
 8006bb2:	4293      	cmp	r3, r2
 8006bb4:	d10c      	bne.n	8006bd0 <HAL_TIMEx_MasterConfigSynchronization+0xa8>
 8006bb6:	68bb      	ldr	r3, [r7, #8]
 8006bb8:	f023 0380 	bic.w	r3, r3, #128	; 0x80
 8006bbc:	60bb      	str	r3, [r7, #8]
 8006bbe:	683b      	ldr	r3, [r7, #0]
 8006bc0:	685b      	ldr	r3, [r3, #4]
 8006bc2:	68ba      	ldr	r2, [r7, #8]
 8006bc4:	4313      	orrs	r3, r2
 8006bc6:	60bb      	str	r3, [r7, #8]
 8006bc8:	687b      	ldr	r3, [r7, #4]
 8006bca:	681b      	ldr	r3, [r3, #0]
 8006bcc:	68ba      	ldr	r2, [r7, #8]
 8006bce:	609a      	str	r2, [r3, #8]
 8006bd0:	687b      	ldr	r3, [r7, #4]
 8006bd2:	2201      	movs	r2, #1
 8006bd4:	f883 203d 	strb.w	r2, [r3, #61]	; 0x3d
 8006bd8:	687b      	ldr	r3, [r7, #4]
 8006bda:	2200      	movs	r2, #0
 8006bdc:	f883 203c 	strb.w	r2, [r3, #60]	; 0x3c
 8006be0:	2300      	movs	r3, #0
 8006be2:	4618      	mov	r0, r3
 8006be4:	3714      	adds	r7, #20
 8006be6:	46bd      	mov	sp, r7
 8006be8:	f85d 7b04 	ldr.w	r7, [sp], #4
 8006bec:	4770      	bx	lr
 8006bee:	bf00      	nop
 8006bf0:	40010000 	.word	0x40010000
 8006bf4:	40000400 	.word	0x40000400
 8006bf8:	40000800 	.word	0x40000800
 8006bfc:	40000c00 	.word	0x40000c00
 8006c00:	40014000 	.word	0x40014000

08006c04 <HAL_TIMEx_CommutCallback>:
 8006c04:	b480      	push	{r7}
 8006c06:	b083      	sub	sp, #12
 8006c08:	af00      	add	r7, sp, #0
 8006c0a:	6078      	str	r0, [r7, #4]
 8006c0c:	bf00      	nop
 8006c0e:	370c      	adds	r7, #12
 8006c10:	46bd      	mov	sp, r7
 8006c12:	f85d 7b04 	ldr.w	r7, [sp], #4
 8006c16:	4770      	bx	lr

08006c18 <HAL_TIMEx_BreakCallback>:
 8006c18:	b480      	push	{r7}
 8006c1a:	b083      	sub	sp, #12
 8006c1c:	af00      	add	r7, sp, #0
 8006c1e:	6078      	str	r0, [r7, #4]
 8006c20:	bf00      	nop
 8006c22:	370c      	adds	r7, #12
 8006c24:	46bd      	mov	sp, r7
 8006c26:	f85d 7b04 	ldr.w	r7, [sp], #4
 8006c2a:	4770      	bx	lr

08006c2c <USB_CoreInit>:
 8006c2c:	b084      	sub	sp, #16
 8006c2e:	b580      	push	{r7, lr}
 8006c30:	b084      	sub	sp, #16
 8006c32:	af00      	add	r7, sp, #0
 8006c34:	6078      	str	r0, [r7, #4]
 8006c36:	f107 001c 	add.w	r0, r7, #28
 8006c3a:	e880 000e 	stmia.w	r0, {r1, r2, r3}
 8006c3e:	f897 3021 	ldrb.w	r3, [r7, #33]	; 0x21
 8006c42:	2b01      	cmp	r3, #1
 8006c44:	d123      	bne.n	8006c8e <USB_CoreInit+0x62>
 8006c46:	687b      	ldr	r3, [r7, #4]
 8006c48:	6b9b      	ldr	r3, [r3, #56]	; 0x38
 8006c4a:	f423 3280 	bic.w	r2, r3, #65536	; 0x10000
 8006c4e:	687b      	ldr	r3, [r7, #4]
 8006c50:	639a      	str	r2, [r3, #56]	; 0x38
 8006c52:	687b      	ldr	r3, [r7, #4]
 8006c54:	68db      	ldr	r3, [r3, #12]
 8006c56:	f423 0384 	bic.w	r3, r3, #4325376	; 0x420000
 8006c5a:	f023 0340 	bic.w	r3, r3, #64	; 0x40
 8006c5e:	687a      	ldr	r2, [r7, #4]
 8006c60:	60d3      	str	r3, [r2, #12]
 8006c62:	687b      	ldr	r3, [r7, #4]
 8006c64:	68db      	ldr	r3, [r3, #12]
 8006c66:	f423 1240 	bic.w	r2, r3, #3145728	; 0x300000
 8006c6a:	687b      	ldr	r3, [r7, #4]
 8006c6c:	60da      	str	r2, [r3, #12]
 8006c6e:	f897 3028 	ldrb.w	r3, [r7, #40]	; 0x28
 8006c72:	2b01      	cmp	r3, #1
 8006c74:	d105      	bne.n	8006c82 <USB_CoreInit+0x56>
 8006c76:	687b      	ldr	r3, [r7, #4]
 8006c78:	68db      	ldr	r3, [r3, #12]
 8006c7a:	f443 1280 	orr.w	r2, r3, #1048576	; 0x100000
 8006c7e:	687b      	ldr	r3, [r7, #4]
 8006c80:	60da      	str	r2, [r3, #12]
 8006c82:	6878      	ldr	r0, [r7, #4]
 8006c84:	f001 fae8 	bl	8008258 <USB_CoreReset>
 8006c88:	4603      	mov	r3, r0
 8006c8a:	73fb      	strb	r3, [r7, #15]
 8006c8c:	e01b      	b.n	8006cc6 <USB_CoreInit+0x9a>
 8006c8e:	687b      	ldr	r3, [r7, #4]
 8006c90:	68db      	ldr	r3, [r3, #12]
 8006c92:	f043 0240 	orr.w	r2, r3, #64	; 0x40
 8006c96:	687b      	ldr	r3, [r7, #4]
 8006c98:	60da      	str	r2, [r3, #12]
 8006c9a:	6878      	ldr	r0, [r7, #4]
 8006c9c:	f001 fadc 	bl	8008258 <USB_CoreReset>
 8006ca0:	4603      	mov	r3, r0
 8006ca2:	73fb      	strb	r3, [r7, #15]
 8006ca4:	f897 3025 	ldrb.w	r3, [r7, #37]	; 0x25
 8006ca8:	2b00      	cmp	r3, #0
 8006caa:	d106      	bne.n	8006cba <USB_CoreInit+0x8e>
 8006cac:	687b      	ldr	r3, [r7, #4]
 8006cae:	6b9b      	ldr	r3, [r3, #56]	; 0x38
 8006cb0:	f443 3280 	orr.w	r2, r3, #65536	; 0x10000
 8006cb4:	687b      	ldr	r3, [r7, #4]
 8006cb6:	639a      	str	r2, [r3, #56]	; 0x38
 8006cb8:	e005      	b.n	8006cc6 <USB_CoreInit+0x9a>
 8006cba:	687b      	ldr	r3, [r7, #4]
 8006cbc:	6b9b      	ldr	r3, [r3, #56]	; 0x38
 8006cbe:	f423 3280 	bic.w	r2, r3, #65536	; 0x10000
 8006cc2:	687b      	ldr	r3, [r7, #4]
 8006cc4:	639a      	str	r2, [r3, #56]	; 0x38
 8006cc6:	7fbb      	ldrb	r3, [r7, #30]
 8006cc8:	2b01      	cmp	r3, #1
 8006cca:	d10b      	bne.n	8006ce4 <USB_CoreInit+0xb8>
 8006ccc:	687b      	ldr	r3, [r7, #4]
 8006cce:	689b      	ldr	r3, [r3, #8]
 8006cd0:	f043 0206 	orr.w	r2, r3, #6
 8006cd4:	687b      	ldr	r3, [r7, #4]
 8006cd6:	609a      	str	r2, [r3, #8]
 8006cd8:	687b      	ldr	r3, [r7, #4]
 8006cda:	689b      	ldr	r3, [r3, #8]
 8006cdc:	f043 0220 	orr.w	r2, r3, #32
 8006ce0:	687b      	ldr	r3, [r7, #4]
 8006ce2:	609a      	str	r2, [r3, #8]
 8006ce4:	7bfb      	ldrb	r3, [r7, #15]
 8006ce6:	4618      	mov	r0, r3
 8006ce8:	3710      	adds	r7, #16
 8006cea:	46bd      	mov	sp, r7
 8006cec:	e8bd 4080 	ldmia.w	sp!, {r7, lr}
 8006cf0:	b004      	add	sp, #16
 8006cf2:	4770      	bx	lr

08006cf4 <USB_SetTurnaroundTime>:
 8006cf4:	b480      	push	{r7}
 8006cf6:	b087      	sub	sp, #28
 8006cf8:	af00      	add	r7, sp, #0
 8006cfa:	60f8      	str	r0, [r7, #12]
 8006cfc:	60b9      	str	r1, [r7, #8]
 8006cfe:	4613      	mov	r3, r2
 8006d00:	71fb      	strb	r3, [r7, #7]
 8006d02:	79fb      	ldrb	r3, [r7, #7]
 8006d04:	2b02      	cmp	r3, #2
 8006d06:	d165      	bne.n	8006dd4 <USB_SetTurnaroundTime+0xe0>
 8006d08:	68bb      	ldr	r3, [r7, #8]
 8006d0a:	4a41      	ldr	r2, [pc, #260]	; (8006e10 <USB_SetTurnaroundTime+0x11c>)
 8006d0c:	4293      	cmp	r3, r2
 8006d0e:	d906      	bls.n	8006d1e <USB_SetTurnaroundTime+0x2a>
 8006d10:	68bb      	ldr	r3, [r7, #8]
 8006d12:	4a40      	ldr	r2, [pc, #256]	; (8006e14 <USB_SetTurnaroundTime+0x120>)
 8006d14:	4293      	cmp	r3, r2
 8006d16:	d202      	bcs.n	8006d1e <USB_SetTurnaroundTime+0x2a>
 8006d18:	230f      	movs	r3, #15
 8006d1a:	617b      	str	r3, [r7, #20]
 8006d1c:	e062      	b.n	8006de4 <USB_SetTurnaroundTime+0xf0>
 8006d1e:	68bb      	ldr	r3, [r7, #8]
 8006d20:	4a3c      	ldr	r2, [pc, #240]	; (8006e14 <USB_SetTurnaroundTime+0x120>)
 8006d22:	4293      	cmp	r3, r2
 8006d24:	d306      	bcc.n	8006d34 <USB_SetTurnaroundTime+0x40>
 8006d26:	68bb      	ldr	r3, [r7, #8]
 8006d28:	4a3b      	ldr	r2, [pc, #236]	; (8006e18 <USB_SetTurnaroundTime+0x124>)
 8006d2a:	4293      	cmp	r3, r2
 8006d2c:	d202      	bcs.n	8006d34 <USB_SetTurnaroundTime+0x40>
 8006d2e:	230e      	movs	r3, #14
 8006d30:	617b      	str	r3, [r7, #20]
 8006d32:	e057      	b.n	8006de4 <USB_SetTurnaroundTime+0xf0>
 8006d34:	68bb      	ldr	r3, [r7, #8]
 8006d36:	4a38      	ldr	r2, [pc, #224]	; (8006e18 <USB_SetTurnaroundTime+0x124>)
 8006d38:	4293      	cmp	r3, r2
 8006d3a:	d306      	bcc.n	8006d4a <USB_SetTurnaroundTime+0x56>
 8006d3c:	68bb      	ldr	r3, [r7, #8]
 8006d3e:	4a37      	ldr	r2, [pc, #220]	; (8006e1c <USB_SetTurnaroundTime+0x128>)
 8006d40:	4293      	cmp	r3, r2
 8006d42:	d202      	bcs.n	8006d4a <USB_SetTurnaroundTime+0x56>
 8006d44:	230d      	movs	r3, #13
 8006d46:	617b      	str	r3, [r7, #20]
 8006d48:	e04c      	b.n	8006de4 <USB_SetTurnaroundTime+0xf0>
 8006d4a:	68bb      	ldr	r3, [r7, #8]
 8006d4c:	4a33      	ldr	r2, [pc, #204]	; (8006e1c <USB_SetTurnaroundTime+0x128>)
 8006d4e:	4293      	cmp	r3, r2
 8006d50:	d306      	bcc.n	8006d60 <USB_SetTurnaroundTime+0x6c>
 8006d52:	68bb      	ldr	r3, [r7, #8]
 8006d54:	4a32      	ldr	r2, [pc, #200]	; (8006e20 <USB_SetTurnaroundTime+0x12c>)
 8006d56:	4293      	cmp	r3, r2
 8006d58:	d802      	bhi.n	8006d60 <USB_SetTurnaroundTime+0x6c>
 8006d5a:	230c      	movs	r3, #12
 8006d5c:	617b      	str	r3, [r7, #20]
 8006d5e:	e041      	b.n	8006de4 <USB_SetTurnaroundTime+0xf0>
 8006d60:	68bb      	ldr	r3, [r7, #8]
 8006d62:	4a2f      	ldr	r2, [pc, #188]	; (8006e20 <USB_SetTurnaroundTime+0x12c>)
 8006d64:	4293      	cmp	r3, r2
 8006d66:	d906      	bls.n	8006d76 <USB_SetTurnaroundTime+0x82>
 8006d68:	68bb      	ldr	r3, [r7, #8]
 8006d6a:	4a2e      	ldr	r2, [pc, #184]	; (8006e24 <USB_SetTurnaroundTime+0x130>)
 8006d6c:	4293      	cmp	r3, r2
 8006d6e:	d802      	bhi.n	8006d76 <USB_SetTurnaroundTime+0x82>
 8006d70:	230b      	movs	r3, #11
 8006d72:	617b      	str	r3, [r7, #20]
 8006d74:	e036      	b.n	8006de4 <USB_SetTurnaroundTime+0xf0>
 8006d76:	68bb      	ldr	r3, [r7, #8]
 8006d78:	4a2a      	ldr	r2, [pc, #168]	; (8006e24 <USB_SetTurnaroundTime+0x130>)
 8006d7a:	4293      	cmp	r3, r2
 8006d7c:	d906      	bls.n	8006d8c <USB_SetTurnaroundTime+0x98>
 8006d7e:	68bb      	ldr	r3, [r7, #8]
 8006d80:	4a29      	ldr	r2, [pc, #164]	; (8006e28 <USB_SetTurnaroundTime+0x134>)
 8006d82:	4293      	cmp	r3, r2
 8006d84:	d802      	bhi.n	8006d8c <USB_SetTurnaroundTime+0x98>
 8006d86:	230a      	movs	r3, #10
 8006d88:	617b      	str	r3, [r7, #20]
 8006d8a:	e02b      	b.n	8006de4 <USB_SetTurnaroundTime+0xf0>
 8006d8c:	68bb      	ldr	r3, [r7, #8]
 8006d8e:	4a26      	ldr	r2, [pc, #152]	; (8006e28 <USB_SetTurnaroundTime+0x134>)
 8006d90:	4293      	cmp	r3, r2
 8006d92:	d906      	bls.n	8006da2 <USB_SetTurnaroundTime+0xae>
 8006d94:	68bb      	ldr	r3, [r7, #8]
 8006d96:	4a25      	ldr	r2, [pc, #148]	; (8006e2c <USB_SetTurnaroundTime+0x138>)
 8006d98:	4293      	cmp	r3, r2
 8006d9a:	d202      	bcs.n	8006da2 <USB_SetTurnaroundTime+0xae>
 8006d9c:	2309      	movs	r3, #9
 8006d9e:	617b      	str	r3, [r7, #20]
 8006da0:	e020      	b.n	8006de4 <USB_SetTurnaroundTime+0xf0>
 8006da2:	68bb      	ldr	r3, [r7, #8]
 8006da4:	4a21      	ldr	r2, [pc, #132]	; (8006e2c <USB_SetTurnaroundTime+0x138>)
 8006da6:	4293      	cmp	r3, r2
 8006da8:	d306      	bcc.n	8006db8 <USB_SetTurnaroundTime+0xc4>
 8006daa:	68bb      	ldr	r3, [r7, #8]
 8006dac:	4a20      	ldr	r2, [pc, #128]	; (8006e30 <USB_SetTurnaroundTime+0x13c>)
 8006dae:	4293      	cmp	r3, r2
 8006db0:	d802      	bhi.n	8006db8 <USB_SetTurnaroundTime+0xc4>
 8006db2:	2308      	movs	r3, #8
 8006db4:	617b      	str	r3, [r7, #20]
 8006db6:	e015      	b.n	8006de4 <USB_SetTurnaroundTime+0xf0>
 8006db8:	68bb      	ldr	r3, [r7, #8]
 8006dba:	4a1d      	ldr	r2, [pc, #116]	; (8006e30 <USB_SetTurnaroundTime+0x13c>)
 8006dbc:	4293      	cmp	r3, r2
 8006dbe:	d906      	bls.n	8006dce <USB_SetTurnaroundTime+0xda>
 8006dc0:	68bb      	ldr	r3, [r7, #8]
 8006dc2:	4a1c      	ldr	r2, [pc, #112]	; (8006e34 <USB_SetTurnaroundTime+0x140>)
 8006dc4:	4293      	cmp	r3, r2
 8006dc6:	d202      	bcs.n	8006dce <USB_SetTurnaroundTime+0xda>
 8006dc8:	2307      	movs	r3, #7
 8006dca:	617b      	str	r3, [r7, #20]
 8006dcc:	e00a      	b.n	8006de4 <USB_SetTurnaroundTime+0xf0>
 8006dce:	2306      	movs	r3, #6
 8006dd0:	617b      	str	r3, [r7, #20]
 8006dd2:	e007      	b.n	8006de4 <USB_SetTurnaroundTime+0xf0>
 8006dd4:	79fb      	ldrb	r3, [r7, #7]
 8006dd6:	2b00      	cmp	r3, #0
 8006dd8:	d102      	bne.n	8006de0 <USB_SetTurnaroundTime+0xec>
 8006dda:	2309      	movs	r3, #9
 8006ddc:	617b      	str	r3, [r7, #20]
 8006dde:	e001      	b.n	8006de4 <USB_SetTurnaroundTime+0xf0>
 8006de0:	2309      	movs	r3, #9
 8006de2:	617b      	str	r3, [r7, #20]
 8006de4:	68fb      	ldr	r3, [r7, #12]
 8006de6:	68db      	ldr	r3, [r3, #12]
 8006de8:	f423 5270 	bic.w	r2, r3, #15360	; 0x3c00
 8006dec:	68fb      	ldr	r3, [r7, #12]
 8006dee:	60da      	str	r2, [r3, #12]
 8006df0:	68fb      	ldr	r3, [r7, #12]
 8006df2:	68da      	ldr	r2, [r3, #12]
 8006df4:	697b      	ldr	r3, [r7, #20]
 8006df6:	029b      	lsls	r3, r3, #10
 8006df8:	f403 5370 	and.w	r3, r3, #15360	; 0x3c00
 8006dfc:	431a      	orrs	r2, r3
 8006dfe:	68fb      	ldr	r3, [r7, #12]
 8006e00:	60da      	str	r2, [r3, #12]
 8006e02:	2300      	movs	r3, #0
 8006e04:	4618      	mov	r0, r3
 8006e06:	371c      	adds	r7, #28
 8006e08:	46bd      	mov	sp, r7
 8006e0a:	f85d 7b04 	ldr.w	r7, [sp], #4
 8006e0e:	4770      	bx	lr
 8006e10:	00d8acbf 	.word	0x00d8acbf
 8006e14:	00e4e1c0 	.word	0x00e4e1c0
 8006e18:	00f42400 	.word	0x00f42400
 8006e1c:	01067380 	.word	0x01067380
 8006e20:	011a499f 	.word	0x011a499f
 8006e24:	01312cff 	.word	0x01312cff
 8006e28:	014ca43f 	.word	0x014ca43f
 8006e2c:	016e3600 	.word	0x016e3600
 8006e30:	01a6ab1f 	.word	0x01a6ab1f
 8006e34:	01e84800 	.word	0x01e84800

08006e38 <USB_EnableGlobalInt>:
 8006e38:	b480      	push	{r7}
 8006e3a:	b083      	sub	sp, #12
 8006e3c:	af00      	add	r7, sp, #0
 8006e3e:	6078      	str	r0, [r7, #4]
 8006e40:	687b      	ldr	r3, [r7, #4]
 8006e42:	689b      	ldr	r3, [r3, #8]
 8006e44:	f043 0201 	orr.w	r2, r3, #1
 8006e48:	687b      	ldr	r3, [r7, #4]
 8006e4a:	609a      	str	r2, [r3, #8]
 8006e4c:	2300      	movs	r3, #0
 8006e4e:	4618      	mov	r0, r3
 8006e50:	370c      	adds	r7, #12
 8006e52:	46bd      	mov	sp, r7
 8006e54:	f85d 7b04 	ldr.w	r7, [sp], #4
 8006e58:	4770      	bx	lr

08006e5a <USB_DisableGlobalInt>:
 8006e5a:	b480      	push	{r7}
 8006e5c:	b083      	sub	sp, #12
 8006e5e:	af00      	add	r7, sp, #0
 8006e60:	6078      	str	r0, [r7, #4]
 8006e62:	687b      	ldr	r3, [r7, #4]
 8006e64:	689b      	ldr	r3, [r3, #8]
 8006e66:	f023 0201 	bic.w	r2, r3, #1
 8006e6a:	687b      	ldr	r3, [r7, #4]
 8006e6c:	609a      	str	r2, [r3, #8]
 8006e6e:	2300      	movs	r3, #0
 8006e70:	4618      	mov	r0, r3
 8006e72:	370c      	adds	r7, #12
 8006e74:	46bd      	mov	sp, r7
 8006e76:	f85d 7b04 	ldr.w	r7, [sp], #4
 8006e7a:	4770      	bx	lr

08006e7c <USB_SetCurrentMode>:
 8006e7c:	b580      	push	{r7, lr}
 8006e7e:	b084      	sub	sp, #16
 8006e80:	af00      	add	r7, sp, #0
 8006e82:	6078      	str	r0, [r7, #4]
 8006e84:	460b      	mov	r3, r1
 8006e86:	70fb      	strb	r3, [r7, #3]
 8006e88:	2300      	movs	r3, #0
 8006e8a:	60fb      	str	r3, [r7, #12]
 8006e8c:	687b      	ldr	r3, [r7, #4]
 8006e8e:	68db      	ldr	r3, [r3, #12]
 8006e90:	f023 42c0 	bic.w	r2, r3, #1610612736	; 0x60000000
 8006e94:	687b      	ldr	r3, [r7, #4]
 8006e96:	60da      	str	r2, [r3, #12]
 8006e98:	78fb      	ldrb	r3, [r7, #3]
 8006e9a:	2b01      	cmp	r3, #1
 8006e9c:	d115      	bne.n	8006eca <USB_SetCurrentMode+0x4e>
 8006e9e:	687b      	ldr	r3, [r7, #4]
 8006ea0:	68db      	ldr	r3, [r3, #12]
 8006ea2:	f043 5200 	orr.w	r2, r3, #536870912	; 0x20000000
 8006ea6:	687b      	ldr	r3, [r7, #4]
 8006ea8:	60da      	str	r2, [r3, #12]
 8006eaa:	200a      	movs	r0, #10
 8006eac:	f7fa ff5c 	bl	8001d68 <HAL_Delay>
 8006eb0:	68fb      	ldr	r3, [r7, #12]
 8006eb2:	330a      	adds	r3, #10
 8006eb4:	60fb      	str	r3, [r7, #12]
 8006eb6:	6878      	ldr	r0, [r7, #4]
 8006eb8:	f001 f93f 	bl	800813a <USB_GetMode>
 8006ebc:	4603      	mov	r3, r0
 8006ebe:	2b01      	cmp	r3, #1
 8006ec0:	d01e      	beq.n	8006f00 <USB_SetCurrentMode+0x84>
 8006ec2:	68fb      	ldr	r3, [r7, #12]
 8006ec4:	2bc7      	cmp	r3, #199	; 0xc7
 8006ec6:	d9f0      	bls.n	8006eaa <USB_SetCurrentMode+0x2e>
 8006ec8:	e01a      	b.n	8006f00 <USB_SetCurrentMode+0x84>
 8006eca:	78fb      	ldrb	r3, [r7, #3]
 8006ecc:	2b00      	cmp	r3, #0
 8006ece:	d115      	bne.n	8006efc <USB_SetCurrentMode+0x80>
 8006ed0:	687b      	ldr	r3, [r7, #4]
 8006ed2:	68db      	ldr	r3, [r3, #12]
 8006ed4:	f043 4280 	orr.w	r2, r3, #1073741824	; 0x40000000
 8006ed8:	687b      	ldr	r3, [r7, #4]
 8006eda:	60da      	str	r2, [r3, #12]
 8006edc:	200a      	movs	r0, #10
 8006ede:	f7fa ff43 	bl	8001d68 <HAL_Delay>
 8006ee2:	68fb      	ldr	r3, [r7, #12]
 8006ee4:	330a      	adds	r3, #10
 8006ee6:	60fb      	str	r3, [r7, #12]
 8006ee8:	6878      	ldr	r0, [r7, #4]
 8006eea:	f001 f926 	bl	800813a <USB_GetMode>
 8006eee:	4603      	mov	r3, r0
 8006ef0:	2b00      	cmp	r3, #0
 8006ef2:	d005      	beq.n	8006f00 <USB_SetCurrentMode+0x84>
 8006ef4:	68fb      	ldr	r3, [r7, #12]
 8006ef6:	2bc7      	cmp	r3, #199	; 0xc7
 8006ef8:	d9f0      	bls.n	8006edc <USB_SetCurrentMode+0x60>
 8006efa:	e001      	b.n	8006f00 <USB_SetCurrentMode+0x84>
 8006efc:	2301      	movs	r3, #1
 8006efe:	e005      	b.n	8006f0c <USB_SetCurrentMode+0x90>
 8006f00:	68fb      	ldr	r3, [r7, #12]
 8006f02:	2bc8      	cmp	r3, #200	; 0xc8
 8006f04:	d101      	bne.n	8006f0a <USB_SetCurrentMode+0x8e>
 8006f06:	2301      	movs	r3, #1
 8006f08:	e000      	b.n	8006f0c <USB_SetCurrentMode+0x90>
 8006f0a:	2300      	movs	r3, #0
 8006f0c:	4618      	mov	r0, r3
 8006f0e:	3710      	adds	r7, #16
 8006f10:	46bd      	mov	sp, r7
 8006f12:	bd80      	pop	{r7, pc}

08006f14 <USB_DevInit>:
 8006f14:	b084      	sub	sp, #16
 8006f16:	b580      	push	{r7, lr}
 8006f18:	b086      	sub	sp, #24
 8006f1a:	af00      	add	r7, sp, #0
 8006f1c:	6078      	str	r0, [r7, #4]
 8006f1e:	f107 0024 	add.w	r0, r7, #36	; 0x24
 8006f22:	e880 000e 	stmia.w	r0, {r1, r2, r3}
 8006f26:	2300      	movs	r3, #0
 8006f28:	75fb      	strb	r3, [r7, #23]
 8006f2a:	687b      	ldr	r3, [r7, #4]
 8006f2c:	60fb      	str	r3, [r7, #12]
 8006f2e:	2300      	movs	r3, #0
 8006f30:	613b      	str	r3, [r7, #16]
 8006f32:	e009      	b.n	8006f48 <USB_DevInit+0x34>
 8006f34:	687a      	ldr	r2, [r7, #4]
 8006f36:	693b      	ldr	r3, [r7, #16]
 8006f38:	3340      	adds	r3, #64	; 0x40
 8006f3a:	009b      	lsls	r3, r3, #2
 8006f3c:	4413      	add	r3, r2
 8006f3e:	2200      	movs	r2, #0
 8006f40:	605a      	str	r2, [r3, #4]
 8006f42:	693b      	ldr	r3, [r7, #16]
 8006f44:	3301      	adds	r3, #1
 8006f46:	613b      	str	r3, [r7, #16]
 8006f48:	693b      	ldr	r3, [r7, #16]
 8006f4a:	2b0e      	cmp	r3, #14
 8006f4c:	d9f2      	bls.n	8006f34 <USB_DevInit+0x20>
 8006f4e:	f897 302e 	ldrb.w	r3, [r7, #46]	; 0x2e
 8006f52:	2b00      	cmp	r3, #0
 8006f54:	d11c      	bne.n	8006f90 <USB_DevInit+0x7c>
 8006f56:	68fb      	ldr	r3, [r7, #12]
 8006f58:	f503 6300 	add.w	r3, r3, #2048	; 0x800
 8006f5c:	685b      	ldr	r3, [r3, #4]
 8006f5e:	68fa      	ldr	r2, [r7, #12]
 8006f60:	f502 6200 	add.w	r2, r2, #2048	; 0x800
 8006f64:	f043 0302 	orr.w	r3, r3, #2
 8006f68:	6053      	str	r3, [r2, #4]
 8006f6a:	687b      	ldr	r3, [r7, #4]
 8006f6c:	6b9b      	ldr	r3, [r3, #56]	; 0x38
 8006f6e:	f443 1200 	orr.w	r2, r3, #2097152	; 0x200000
 8006f72:	687b      	ldr	r3, [r7, #4]
 8006f74:	639a      	str	r2, [r3, #56]	; 0x38
 8006f76:	687b      	ldr	r3, [r7, #4]
 8006f78:	6b9b      	ldr	r3, [r3, #56]	; 0x38
 8006f7a:	f423 2200 	bic.w	r2, r3, #524288	; 0x80000
 8006f7e:	687b      	ldr	r3, [r7, #4]
 8006f80:	639a      	str	r2, [r3, #56]	; 0x38
 8006f82:	687b      	ldr	r3, [r7, #4]
 8006f84:	6b9b      	ldr	r3, [r3, #56]	; 0x38
 8006f86:	f423 2280 	bic.w	r2, r3, #262144	; 0x40000
 8006f8a:	687b      	ldr	r3, [r7, #4]
 8006f8c:	639a      	str	r2, [r3, #56]	; 0x38
 8006f8e:	e00b      	b.n	8006fa8 <USB_DevInit+0x94>
 8006f90:	687b      	ldr	r3, [r7, #4]
 8006f92:	6b9b      	ldr	r3, [r3, #56]	; 0x38
 8006f94:	f423 1200 	bic.w	r2, r3, #2097152	; 0x200000
 8006f98:	687b      	ldr	r3, [r7, #4]
 8006f9a:	639a      	str	r2, [r3, #56]	; 0x38
 8006f9c:	687b      	ldr	r3, [r7, #4]
 8006f9e:	6b9b      	ldr	r3, [r3, #56]	; 0x38
 8006fa0:	f443 2200 	orr.w	r2, r3, #524288	; 0x80000
 8006fa4:	687b      	ldr	r3, [r7, #4]
 8006fa6:	639a      	str	r2, [r3, #56]	; 0x38
 8006fa8:	68fb      	ldr	r3, [r7, #12]
 8006faa:	f503 6360 	add.w	r3, r3, #3584	; 0xe00
 8006fae:	461a      	mov	r2, r3
 8006fb0:	2300      	movs	r3, #0
 8006fb2:	6013      	str	r3, [r2, #0]
 8006fb4:	f897 3029 	ldrb.w	r3, [r7, #41]	; 0x29
 8006fb8:	2b01      	cmp	r3, #1
 8006fba:	d10d      	bne.n	8006fd8 <USB_DevInit+0xc4>
 8006fbc:	f897 3027 	ldrb.w	r3, [r7, #39]	; 0x27
 8006fc0:	2b00      	cmp	r3, #0
 8006fc2:	d104      	bne.n	8006fce <USB_DevInit+0xba>
 8006fc4:	2100      	movs	r1, #0
 8006fc6:	6878      	ldr	r0, [r7, #4]
 8006fc8:	f000 f968 	bl	800729c <USB_SetDevSpeed>
 8006fcc:	e008      	b.n	8006fe0 <USB_DevInit+0xcc>
 8006fce:	2101      	movs	r1, #1
 8006fd0:	6878      	ldr	r0, [r7, #4]
 8006fd2:	f000 f963 	bl	800729c <USB_SetDevSpeed>
 8006fd6:	e003      	b.n	8006fe0 <USB_DevInit+0xcc>
 8006fd8:	2103      	movs	r1, #3
 8006fda:	6878      	ldr	r0, [r7, #4]
 8006fdc:	f000 f95e 	bl	800729c <USB_SetDevSpeed>
 8006fe0:	2110      	movs	r1, #16
 8006fe2:	6878      	ldr	r0, [r7, #4]
 8006fe4:	f000 f8fa 	bl	80071dc <USB_FlushTxFifo>
 8006fe8:	4603      	mov	r3, r0
 8006fea:	2b00      	cmp	r3, #0
 8006fec:	d001      	beq.n	8006ff2 <USB_DevInit+0xde>
 8006fee:	2301      	movs	r3, #1
 8006ff0:	75fb      	strb	r3, [r7, #23]
 8006ff2:	6878      	ldr	r0, [r7, #4]
 8006ff4:	f000 f924 	bl	8007240 <USB_FlushRxFifo>
 8006ff8:	4603      	mov	r3, r0
 8006ffa:	2b00      	cmp	r3, #0
 8006ffc:	d001      	beq.n	8007002 <USB_DevInit+0xee>
 8006ffe:	2301      	movs	r3, #1
 8007000:	75fb      	strb	r3, [r7, #23]
 8007002:	68fb      	ldr	r3, [r7, #12]
 8007004:	f503 6300 	add.w	r3, r3, #2048	; 0x800
 8007008:	461a      	mov	r2, r3
 800700a:	2300      	movs	r3, #0
 800700c:	6113      	str	r3, [r2, #16]
 800700e:	68fb      	ldr	r3, [r7, #12]
 8007010:	f503 6300 	add.w	r3, r3, #2048	; 0x800
 8007014:	461a      	mov	r2, r3
 8007016:	2300      	movs	r3, #0
 8007018:	6153      	str	r3, [r2, #20]
 800701a:	68fb      	ldr	r3, [r7, #12]
 800701c:	f503 6300 	add.w	r3, r3, #2048	; 0x800
 8007020:	461a      	mov	r2, r3
 8007022:	2300      	movs	r3, #0
 8007024:	61d3      	str	r3, [r2, #28]
 8007026:	2300      	movs	r3, #0
 8007028:	613b      	str	r3, [r7, #16]
 800702a:	e043      	b.n	80070b4 <USB_DevInit+0x1a0>
 800702c:	693b      	ldr	r3, [r7, #16]
 800702e:	015a      	lsls	r2, r3, #5
 8007030:	68fb      	ldr	r3, [r7, #12]
 8007032:	4413      	add	r3, r2
 8007034:	f503 6310 	add.w	r3, r3, #2304	; 0x900
 8007038:	681b      	ldr	r3, [r3, #0]
 800703a:	f003 4300 	and.w	r3, r3, #2147483648	; 0x80000000
 800703e:	f1b3 4f00 	cmp.w	r3, #2147483648	; 0x80000000
 8007042:	d118      	bne.n	8007076 <USB_DevInit+0x162>
 8007044:	693b      	ldr	r3, [r7, #16]
 8007046:	2b00      	cmp	r3, #0
 8007048:	d10a      	bne.n	8007060 <USB_DevInit+0x14c>
 800704a:	693b      	ldr	r3, [r7, #16]
 800704c:	015a      	lsls	r2, r3, #5
 800704e:	68fb      	ldr	r3, [r7, #12]
 8007050:	4413      	add	r3, r2
 8007052:	f503 6310 	add.w	r3, r3, #2304	; 0x900
 8007056:	461a      	mov	r2, r3
 8007058:	f04f 6300 	mov.w	r3, #134217728	; 0x8000000
 800705c:	6013      	str	r3, [r2, #0]
 800705e:	e013      	b.n	8007088 <USB_DevInit+0x174>
 8007060:	693b      	ldr	r3, [r7, #16]
 8007062:	015a      	lsls	r2, r3, #5
 8007064:	68fb      	ldr	r3, [r7, #12]
 8007066:	4413      	add	r3, r2
 8007068:	f503 6310 	add.w	r3, r3, #2304	; 0x900
 800706c:	461a      	mov	r2, r3
 800706e:	f04f 4390 	mov.w	r3, #1207959552	; 0x48000000
 8007072:	6013      	str	r3, [r2, #0]
 8007074:	e008      	b.n	8007088 <USB_DevInit+0x174>
 8007076:	693b      	ldr	r3, [r7, #16]
 8007078:	015a      	lsls	r2, r3, #5
 800707a:	68fb      	ldr	r3, [r7, #12]
 800707c:	4413      	add	r3, r2
 800707e:	f503 6310 	add.w	r3, r3, #2304	; 0x900
 8007082:	461a      	mov	r2, r3
 8007084:	2300      	movs	r3, #0
 8007086:	6013      	str	r3, [r2, #0]
 8007088:	693b      	ldr	r3, [r7, #16]
 800708a:	015a      	lsls	r2, r3, #5
 800708c:	68fb      	ldr	r3, [r7, #12]
 800708e:	4413      	add	r3, r2
 8007090:	f503 6310 	add.w	r3, r3, #2304	; 0x900
 8007094:	461a      	mov	r2, r3
 8007096:	2300      	movs	r3, #0
 8007098:	6113      	str	r3, [r2, #16]
 800709a:	693b      	ldr	r3, [r7, #16]
 800709c:	015a      	lsls	r2, r3, #5
 800709e:	68fb      	ldr	r3, [r7, #12]
 80070a0:	4413      	add	r3, r2
 80070a2:	f503 6310 	add.w	r3, r3, #2304	; 0x900
 80070a6:	461a      	mov	r2, r3
 80070a8:	f64f 337f 	movw	r3, #64383	; 0xfb7f
 80070ac:	6093      	str	r3, [r2, #8]
 80070ae:	693b      	ldr	r3, [r7, #16]
 80070b0:	3301      	adds	r3, #1
 80070b2:	613b      	str	r3, [r7, #16]
 80070b4:	f897 3024 	ldrb.w	r3, [r7, #36]	; 0x24
 80070b8:	461a      	mov	r2, r3
 80070ba:	693b      	ldr	r3, [r7, #16]
 80070bc:	4293      	cmp	r3, r2
 80070be:	d3b5      	bcc.n	800702c <USB_DevInit+0x118>
 80070c0:	2300      	movs	r3, #0
 80070c2:	613b      	str	r3, [r7, #16]
 80070c4:	e043      	b.n	800714e <USB_DevInit+0x23a>
 80070c6:	693b      	ldr	r3, [r7, #16]
 80070c8:	015a      	lsls	r2, r3, #5
 80070ca:	68fb      	ldr	r3, [r7, #12]
 80070cc:	4413      	add	r3, r2
 80070ce:	f503 6330 	add.w	r3, r3, #2816	; 0xb00
 80070d2:	681b      	ldr	r3, [r3, #0]
 80070d4:	f003 4300 	and.w	r3, r3, #2147483648	; 0x80000000
 80070d8:	f1b3 4f00 	cmp.w	r3, #2147483648	; 0x80000000
 80070dc:	d118      	bne.n	8007110 <USB_DevInit+0x1fc>
 80070de:	693b      	ldr	r3, [r7, #16]
 80070e0:	2b00      	cmp	r3, #0
 80070e2:	d10a      	bne.n	80070fa <USB_DevInit+0x1e6>
 80070e4:	693b      	ldr	r3, [r7, #16]
 80070e6:	015a      	lsls	r2, r3, #5
 80070e8:	68fb      	ldr	r3, [r7, #12]
 80070ea:	4413      	add	r3, r2
 80070ec:	f503 6330 	add.w	r3, r3, #2816	; 0xb00
 80070f0:	461a      	mov	r2, r3
 80070f2:	f04f 6300 	mov.w	r3, #134217728	; 0x8000000
 80070f6:	6013      	str	r3, [r2, #0]
 80070f8:	e013      	b.n	8007122 <USB_DevInit+0x20e>
 80070fa:	693b      	ldr	r3, [r7, #16]
 80070fc:	015a      	lsls	r2, r3, #5
 80070fe:	68fb      	ldr	r3, [r7, #12]
 8007100:	4413      	add	r3, r2
 8007102:	f503 6330 	add.w	r3, r3, #2816	; 0xb00
 8007106:	461a      	mov	r2, r3
 8007108:	f04f 4390 	mov.w	r3, #1207959552	; 0x48000000
 800710c:	6013      	str	r3, [r2, #0]
 800710e:	e008      	b.n	8007122 <USB_DevInit+0x20e>
 8007110:	693b      	ldr	r3, [r7, #16]
 8007112:	015a      	lsls	r2, r3, #5
 8007114:	68fb      	ldr	r3, [r7, #12]
 8007116:	4413      	add	r3, r2
 8007118:	f503 6330 	add.w	r3, r3, #2816	; 0xb00
 800711c:	461a      	mov	r2, r3
 800711e:	2300      	movs	r3, #0
 8007120:	6013      	str	r3, [r2, #0]
 8007122:	693b      	ldr	r3, [r7, #16]
 8007124:	015a      	lsls	r2, r3, #5
 8007126:	68fb      	ldr	r3, [r7, #12]
 8007128:	4413      	add	r3, r2
 800712a:	f503 6330 	add.w	r3, r3, #2816	; 0xb00
 800712e:	461a      	mov	r2, r3
 8007130:	2300      	movs	r3, #0
 8007132:	6113      	str	r3, [r2, #16]
 8007134:	693b      	ldr	r3, [r7, #16]
 8007136:	015a      	lsls	r2, r3, #5
 8007138:	68fb      	ldr	r3, [r7, #12]
 800713a:	4413      	add	r3, r2
 800713c:	f503 6330 	add.w	r3, r3, #2816	; 0xb00
 8007140:	461a      	mov	r2, r3
 8007142:	f64f 337f 	movw	r3, #64383	; 0xfb7f
 8007146:	6093      	str	r3, [r2, #8]
 8007148:	693b      	ldr	r3, [r7, #16]
 800714a:	3301      	adds	r3, #1
 800714c:	613b      	str	r3, [r7, #16]
 800714e:	f897 3024 	ldrb.w	r3, [r7, #36]	; 0x24
 8007152:	461a      	mov	r2, r3
 8007154:	693b      	ldr	r3, [r7, #16]
 8007156:	4293      	cmp	r3, r2
 8007158:	d3b5      	bcc.n	80070c6 <USB_DevInit+0x1b2>
 800715a:	68fb      	ldr	r3, [r7, #12]
 800715c:	f503 6300 	add.w	r3, r3, #2048	; 0x800
 8007160:	691b      	ldr	r3, [r3, #16]
 8007162:	68fa      	ldr	r2, [r7, #12]
 8007164:	f502 6200 	add.w	r2, r2, #2048	; 0x800
 8007168:	f423 7380 	bic.w	r3, r3, #256	; 0x100
 800716c:	6113      	str	r3, [r2, #16]
 800716e:	687b      	ldr	r3, [r7, #4]
 8007170:	2200      	movs	r2, #0
 8007172:	619a      	str	r2, [r3, #24]
 8007174:	687b      	ldr	r3, [r7, #4]
 8007176:	f06f 4280 	mvn.w	r2, #1073741824	; 0x40000000
 800717a:	615a      	str	r2, [r3, #20]
 800717c:	f897 3026 	ldrb.w	r3, [r7, #38]	; 0x26
 8007180:	2b00      	cmp	r3, #0
 8007182:	d105      	bne.n	8007190 <USB_DevInit+0x27c>
 8007184:	687b      	ldr	r3, [r7, #4]
 8007186:	699b      	ldr	r3, [r3, #24]
 8007188:	f043 0210 	orr.w	r2, r3, #16
 800718c:	687b      	ldr	r3, [r7, #4]
 800718e:	619a      	str	r2, [r3, #24]
 8007190:	687b      	ldr	r3, [r7, #4]
 8007192:	699a      	ldr	r2, [r3, #24]
 8007194:	4b10      	ldr	r3, [pc, #64]	; (80071d8 <USB_DevInit+0x2c4>)
 8007196:	4313      	orrs	r3, r2
 8007198:	687a      	ldr	r2, [r7, #4]
 800719a:	6193      	str	r3, [r2, #24]
 800719c:	f897 302a 	ldrb.w	r3, [r7, #42]	; 0x2a
 80071a0:	2b00      	cmp	r3, #0
 80071a2:	d005      	beq.n	80071b0 <USB_DevInit+0x29c>
 80071a4:	687b      	ldr	r3, [r7, #4]
 80071a6:	699b      	ldr	r3, [r3, #24]
 80071a8:	f043 0208 	orr.w	r2, r3, #8
 80071ac:	687b      	ldr	r3, [r7, #4]
 80071ae:	619a      	str	r2, [r3, #24]
 80071b0:	f897 302e 	ldrb.w	r3, [r7, #46]	; 0x2e
 80071b4:	2b01      	cmp	r3, #1
 80071b6:	d107      	bne.n	80071c8 <USB_DevInit+0x2b4>
 80071b8:	687b      	ldr	r3, [r7, #4]
 80071ba:	699b      	ldr	r3, [r3, #24]
 80071bc:	f043 4380 	orr.w	r3, r3, #1073741824	; 0x40000000
 80071c0:	f043 0304 	orr.w	r3, r3, #4
 80071c4:	687a      	ldr	r2, [r7, #4]
 80071c6:	6193      	str	r3, [r2, #24]
 80071c8:	7dfb      	ldrb	r3, [r7, #23]
 80071ca:	4618      	mov	r0, r3
 80071cc:	3718      	adds	r7, #24
 80071ce:	46bd      	mov	sp, r7
 80071d0:	e8bd 4080 	ldmia.w	sp!, {r7, lr}
 80071d4:	b004      	add	sp, #16
 80071d6:	4770      	bx	lr
 80071d8:	803c3800 	.word	0x803c3800

080071dc <USB_FlushTxFifo>:
 80071dc:	b480      	push	{r7}
 80071de:	b085      	sub	sp, #20
 80071e0:	af00      	add	r7, sp, #0
 80071e2:	6078      	str	r0, [r7, #4]
 80071e4:	6039      	str	r1, [r7, #0]
 80071e6:	2300      	movs	r3, #0
 80071e8:	60fb      	str	r3, [r7, #12]
 80071ea:	68fb      	ldr	r3, [r7, #12]
 80071ec:	3301      	adds	r3, #1
 80071ee:	60fb      	str	r3, [r7, #12]
 80071f0:	68fb      	ldr	r3, [r7, #12]
 80071f2:	f1b3 6f70 	cmp.w	r3, #251658240	; 0xf000000
 80071f6:	d901      	bls.n	80071fc <USB_FlushTxFifo+0x20>
 80071f8:	2303      	movs	r3, #3
 80071fa:	e01b      	b.n	8007234 <USB_FlushTxFifo+0x58>
 80071fc:	687b      	ldr	r3, [r7, #4]
 80071fe:	691b      	ldr	r3, [r3, #16]
 8007200:	2b00      	cmp	r3, #0
 8007202:	daf2      	bge.n	80071ea <USB_FlushTxFifo+0xe>
 8007204:	2300      	movs	r3, #0
 8007206:	60fb      	str	r3, [r7, #12]
 8007208:	683b      	ldr	r3, [r7, #0]
 800720a:	019b      	lsls	r3, r3, #6
 800720c:	f043 0220 	orr.w	r2, r3, #32
 8007210:	687b      	ldr	r3, [r7, #4]
 8007212:	611a      	str	r2, [r3, #16]
 8007214:	68fb      	ldr	r3, [r7, #12]
 8007216:	3301      	adds	r3, #1
 8007218:	60fb      	str	r3, [r7, #12]
 800721a:	68fb      	ldr	r3, [r7, #12]
 800721c:	f1b3 6f70 	cmp.w	r3, #251658240	; 0xf000000
 8007220:	d901      	bls.n	8007226 <USB_FlushTxFifo+0x4a>
 8007222:	2303      	movs	r3, #3
 8007224:	e006      	b.n	8007234 <USB_FlushTxFifo+0x58>
 8007226:	687b      	ldr	r3, [r7, #4]
 8007228:	691b      	ldr	r3, [r3, #16]
 800722a:	f003 0320 	and.w	r3, r3, #32
 800722e:	2b20      	cmp	r3, #32
 8007230:	d0f0      	beq.n	8007214 <USB_FlushTxFifo+0x38>
 8007232:	2300      	movs	r3, #0
 8007234:	4618      	mov	r0, r3
 8007236:	3714      	adds	r7, #20
 8007238:	46bd      	mov	sp, r7
 800723a:	f85d 7b04 	ldr.w	r7, [sp], #4
 800723e:	4770      	bx	lr

08007240 <USB_FlushRxFifo>:
 8007240:	b480      	push	{r7}
 8007242:	b085      	sub	sp, #20
 8007244:	af00      	add	r7, sp, #0
 8007246:	6078      	str	r0, [r7, #4]
 8007248:	2300      	movs	r3, #0
 800724a:	60fb      	str	r3, [r7, #12]
 800724c:	68fb      	ldr	r3, [r7, #12]
 800724e:	3301      	adds	r3, #1
 8007250:	60fb      	str	r3, [r7, #12]
 8007252:	68fb      	ldr	r3, [r7, #12]
 8007254:	f1b3 6f70 	cmp.w	r3, #251658240	; 0xf000000
 8007258:	d901      	bls.n	800725e <USB_FlushRxFifo+0x1e>
 800725a:	2303      	movs	r3, #3
 800725c:	e018      	b.n	8007290 <USB_FlushRxFifo+0x50>
 800725e:	687b      	ldr	r3, [r7, #4]
 8007260:	691b      	ldr	r3, [r3, #16]
 8007262:	2b00      	cmp	r3, #0
 8007264:	daf2      	bge.n	800724c <USB_FlushRxFifo+0xc>
 8007266:	2300      	movs	r3, #0
 8007268:	60fb      	str	r3, [r7, #12]
 800726a:	687b      	ldr	r3, [r7, #4]
 800726c:	2210      	movs	r2, #16
 800726e:	611a      	str	r2, [r3, #16]
 8007270:	68fb      	ldr	r3, [r7, #12]
 8007272:	3301      	adds	r3, #1
 8007274:	60fb      	str	r3, [r7, #12]
 8007276:	68fb      	ldr	r3, [r7, #12]
 8007278:	f1b3 6f70 	cmp.w	r3, #251658240	; 0xf000000
 800727c:	d901      	bls.n	8007282 <USB_FlushRxFifo+0x42>
 800727e:	2303      	movs	r3, #3
 8007280:	e006      	b.n	8007290 <USB_FlushRxFifo+0x50>
 8007282:	687b      	ldr	r3, [r7, #4]
 8007284:	691b      	ldr	r3, [r3, #16]
 8007286:	f003 0310 	and.w	r3, r3, #16
 800728a:	2b10      	cmp	r3, #16
 800728c:	d0f0      	beq.n	8007270 <USB_FlushRxFifo+0x30>
 800728e:	2300      	movs	r3, #0
 8007290:	4618      	mov	r0, r3
 8007292:	3714      	adds	r7, #20
 8007294:	46bd      	mov	sp, r7
 8007296:	f85d 7b04 	ldr.w	r7, [sp], #4
 800729a:	4770      	bx	lr

0800729c <USB_SetDevSpeed>:
 800729c:	b480      	push	{r7}
 800729e:	b085      	sub	sp, #20
 80072a0:	af00      	add	r7, sp, #0
 80072a2:	6078      	str	r0, [r7, #4]
 80072a4:	460b      	mov	r3, r1
 80072a6:	70fb      	strb	r3, [r7, #3]
 80072a8:	687b      	ldr	r3, [r7, #4]
 80072aa:	60fb      	str	r3, [r7, #12]
 80072ac:	68fb      	ldr	r3, [r7, #12]
 80072ae:	f503 6300 	add.w	r3, r3, #2048	; 0x800
 80072b2:	681a      	ldr	r2, [r3, #0]
 80072b4:	78fb      	ldrb	r3, [r7, #3]
 80072b6:	68f9      	ldr	r1, [r7, #12]
 80072b8:	f501 6100 	add.w	r1, r1, #2048	; 0x800
 80072bc:	4313      	orrs	r3, r2
 80072be:	600b      	str	r3, [r1, #0]
 80072c0:	2300      	movs	r3, #0
 80072c2:	4618      	mov	r0, r3
 80072c4:	3714      	adds	r7, #20
 80072c6:	46bd      	mov	sp, r7
 80072c8:	f85d 7b04 	ldr.w	r7, [sp], #4
 80072cc:	4770      	bx	lr

080072ce <USB_GetDevSpeed>:
 80072ce:	b480      	push	{r7}
 80072d0:	b087      	sub	sp, #28
 80072d2:	af00      	add	r7, sp, #0
 80072d4:	6078      	str	r0, [r7, #4]
 80072d6:	687b      	ldr	r3, [r7, #4]
 80072d8:	613b      	str	r3, [r7, #16]
 80072da:	693b      	ldr	r3, [r7, #16]
 80072dc:	f503 6300 	add.w	r3, r3, #2048	; 0x800
 80072e0:	689b      	ldr	r3, [r3, #8]
 80072e2:	f003 0306 	and.w	r3, r3, #6
 80072e6:	60fb      	str	r3, [r7, #12]
 80072e8:	68fb      	ldr	r3, [r7, #12]
 80072ea:	2b00      	cmp	r3, #0
 80072ec:	d102      	bne.n	80072f4 <USB_GetDevSpeed+0x26>
 80072ee:	2300      	movs	r3, #0
 80072f0:	75fb      	strb	r3, [r7, #23]
 80072f2:	e00a      	b.n	800730a <USB_GetDevSpeed+0x3c>
 80072f4:	68fb      	ldr	r3, [r7, #12]
 80072f6:	2b02      	cmp	r3, #2
 80072f8:	d002      	beq.n	8007300 <USB_GetDevSpeed+0x32>
 80072fa:	68fb      	ldr	r3, [r7, #12]
 80072fc:	2b06      	cmp	r3, #6
 80072fe:	d102      	bne.n	8007306 <USB_GetDevSpeed+0x38>
 8007300:	2302      	movs	r3, #2
 8007302:	75fb      	strb	r3, [r7, #23]
 8007304:	e001      	b.n	800730a <USB_GetDevSpeed+0x3c>
 8007306:	230f      	movs	r3, #15
 8007308:	75fb      	strb	r3, [r7, #23]
 800730a:	7dfb      	ldrb	r3, [r7, #23]
 800730c:	4618      	mov	r0, r3
 800730e:	371c      	adds	r7, #28
 8007310:	46bd      	mov	sp, r7
 8007312:	f85d 7b04 	ldr.w	r7, [sp], #4
 8007316:	4770      	bx	lr

08007318 <USB_ActivateEndpoint>:
 8007318:	b480      	push	{r7}
 800731a:	b085      	sub	sp, #20
 800731c:	af00      	add	r7, sp, #0
 800731e:	6078      	str	r0, [r7, #4]
 8007320:	6039      	str	r1, [r7, #0]
 8007322:	687b      	ldr	r3, [r7, #4]
 8007324:	60fb      	str	r3, [r7, #12]
 8007326:	683b      	ldr	r3, [r7, #0]
 8007328:	781b      	ldrb	r3, [r3, #0]
 800732a:	60bb      	str	r3, [r7, #8]
 800732c:	683b      	ldr	r3, [r7, #0]
 800732e:	785b      	ldrb	r3, [r3, #1]
 8007330:	2b01      	cmp	r3, #1
 8007332:	d13a      	bne.n	80073aa <USB_ActivateEndpoint+0x92>
 8007334:	68fb      	ldr	r3, [r7, #12]
 8007336:	f503 6300 	add.w	r3, r3, #2048	; 0x800
 800733a:	69da      	ldr	r2, [r3, #28]
 800733c:	683b      	ldr	r3, [r7, #0]
 800733e:	781b      	ldrb	r3, [r3, #0]
 8007340:	f003 030f 	and.w	r3, r3, #15
 8007344:	2101      	movs	r1, #1
 8007346:	fa01 f303 	lsl.w	r3, r1, r3
 800734a:	b29b      	uxth	r3, r3
 800734c:	68f9      	ldr	r1, [r7, #12]
 800734e:	f501 6100 	add.w	r1, r1, #2048	; 0x800
 8007352:	4313      	orrs	r3, r2
 8007354:	61cb      	str	r3, [r1, #28]
 8007356:	68bb      	ldr	r3, [r7, #8]
 8007358:	015a      	lsls	r2, r3, #5
 800735a:	68fb      	ldr	r3, [r7, #12]
 800735c:	4413      	add	r3, r2
 800735e:	f503 6310 	add.w	r3, r3, #2304	; 0x900
 8007362:	681b      	ldr	r3, [r3, #0]
 8007364:	f403 4300 	and.w	r3, r3, #32768	; 0x8000
 8007368:	2b00      	cmp	r3, #0
 800736a:	d155      	bne.n	8007418 <USB_ActivateEndpoint+0x100>
 800736c:	68bb      	ldr	r3, [r7, #8]
 800736e:	015a      	lsls	r2, r3, #5
 8007370:	68fb      	ldr	r3, [r7, #12]
 8007372:	4413      	add	r3, r2
 8007374:	f503 6310 	add.w	r3, r3, #2304	; 0x900
 8007378:	681a      	ldr	r2, [r3, #0]
 800737a:	683b      	ldr	r3, [r7, #0]
 800737c:	689b      	ldr	r3, [r3, #8]
 800737e:	f3c3 010a 	ubfx	r1, r3, #0, #11
 8007382:	683b      	ldr	r3, [r7, #0]
 8007384:	791b      	ldrb	r3, [r3, #4]
 8007386:	049b      	lsls	r3, r3, #18
 8007388:	4319      	orrs	r1, r3
 800738a:	68bb      	ldr	r3, [r7, #8]
 800738c:	059b      	lsls	r3, r3, #22
 800738e:	430b      	orrs	r3, r1
 8007390:	4313      	orrs	r3, r2
 8007392:	68ba      	ldr	r2, [r7, #8]
 8007394:	0151      	lsls	r1, r2, #5
 8007396:	68fa      	ldr	r2, [r7, #12]
 8007398:	440a      	add	r2, r1
 800739a:	f502 6210 	add.w	r2, r2, #2304	; 0x900
 800739e:	f043 5380 	orr.w	r3, r3, #268435456	; 0x10000000
 80073a2:	f443 4300 	orr.w	r3, r3, #32768	; 0x8000
 80073a6:	6013      	str	r3, [r2, #0]
 80073a8:	e036      	b.n	8007418 <USB_ActivateEndpoint+0x100>
 80073aa:	68fb      	ldr	r3, [r7, #12]
 80073ac:	f503 6300 	add.w	r3, r3, #2048	; 0x800
 80073b0:	69da      	ldr	r2, [r3, #28]
 80073b2:	683b      	ldr	r3, [r7, #0]
 80073b4:	781b      	ldrb	r3, [r3, #0]
 80073b6:	f003 030f 	and.w	r3, r3, #15
 80073ba:	2101      	movs	r1, #1
 80073bc:	fa01 f303 	lsl.w	r3, r1, r3
 80073c0:	041b      	lsls	r3, r3, #16
 80073c2:	68f9      	ldr	r1, [r7, #12]
 80073c4:	f501 6100 	add.w	r1, r1, #2048	; 0x800
 80073c8:	4313      	orrs	r3, r2
 80073ca:	61cb      	str	r3, [r1, #28]
 80073cc:	68bb      	ldr	r3, [r7, #8]
 80073ce:	015a      	lsls	r2, r3, #5
 80073d0:	68fb      	ldr	r3, [r7, #12]
 80073d2:	4413      	add	r3, r2
 80073d4:	f503 6330 	add.w	r3, r3, #2816	; 0xb00
 80073d8:	681b      	ldr	r3, [r3, #0]
 80073da:	f403 4300 	and.w	r3, r3, #32768	; 0x8000
 80073de:	2b00      	cmp	r3, #0
 80073e0:	d11a      	bne.n	8007418 <USB_ActivateEndpoint+0x100>
 80073e2:	68bb      	ldr	r3, [r7, #8]
 80073e4:	015a      	lsls	r2, r3, #5
 80073e6:	68fb      	ldr	r3, [r7, #12]
 80073e8:	4413      	add	r3, r2
 80073ea:	f503 6330 	add.w	r3, r3, #2816	; 0xb00
 80073ee:	681a      	ldr	r2, [r3, #0]
 80073f0:	683b      	ldr	r3, [r7, #0]
 80073f2:	689b      	ldr	r3, [r3, #8]
 80073f4:	f3c3 010a 	ubfx	r1, r3, #0, #11
 80073f8:	683b      	ldr	r3, [r7, #0]
 80073fa:	791b      	ldrb	r3, [r3, #4]
 80073fc:	049b      	lsls	r3, r3, #18
 80073fe:	430b      	orrs	r3, r1
 8007400:	4313      	orrs	r3, r2
 8007402:	68ba      	ldr	r2, [r7, #8]
 8007404:	0151      	lsls	r1, r2, #5
 8007406:	68fa      	ldr	r2, [r7, #12]
 8007408:	440a      	add	r2, r1
 800740a:	f502 6230 	add.w	r2, r2, #2816	; 0xb00
 800740e:	f043 5380 	orr.w	r3, r3, #268435456	; 0x10000000
 8007412:	f443 4300 	orr.w	r3, r3, #32768	; 0x8000
 8007416:	6013      	str	r3, [r2, #0]
 8007418:	2300      	movs	r3, #0
 800741a:	4618      	mov	r0, r3
 800741c:	3714      	adds	r7, #20
 800741e:	46bd      	mov	sp, r7
 8007420:	f85d 7b04 	ldr.w	r7, [sp], #4
 8007424:	4770      	bx	lr
	...

08007428 <USB_DeactivateEndpoint>:
 8007428:	b480      	push	{r7}
 800742a:	b085      	sub	sp, #20
 800742c:	af00      	add	r7, sp, #0
 800742e:	6078      	str	r0, [r7, #4]
 8007430:	6039      	str	r1, [r7, #0]
 8007432:	687b      	ldr	r3, [r7, #4]
 8007434:	60fb      	str	r3, [r7, #12]
 8007436:	683b      	ldr	r3, [r7, #0]
 8007438:	781b      	ldrb	r3, [r3, #0]
 800743a:	60bb      	str	r3, [r7, #8]
 800743c:	683b      	ldr	r3, [r7, #0]
 800743e:	785b      	ldrb	r3, [r3, #1]
 8007440:	2b01      	cmp	r3, #1
 8007442:	d161      	bne.n	8007508 <USB_DeactivateEndpoint+0xe0>
 8007444:	68bb      	ldr	r3, [r7, #8]
 8007446:	015a      	lsls	r2, r3, #5
 8007448:	68fb      	ldr	r3, [r7, #12]
 800744a:	4413      	add	r3, r2
 800744c:	f503 6310 	add.w	r3, r3, #2304	; 0x900
 8007450:	681b      	ldr	r3, [r3, #0]
 8007452:	f003 4300 	and.w	r3, r3, #2147483648	; 0x80000000
 8007456:	f1b3 4f00 	cmp.w	r3, #2147483648	; 0x80000000
 800745a:	d11f      	bne.n	800749c <USB_DeactivateEndpoint+0x74>
 800745c:	68bb      	ldr	r3, [r7, #8]
 800745e:	015a      	lsls	r2, r3, #5
 8007460:	68fb      	ldr	r3, [r7, #12]
 8007462:	4413      	add	r3, r2
 8007464:	f503 6310 	add.w	r3, r3, #2304	; 0x900
 8007468:	681b      	ldr	r3, [r3, #0]
 800746a:	68ba      	ldr	r2, [r7, #8]
 800746c:	0151      	lsls	r1, r2, #5
 800746e:	68fa      	ldr	r2, [r7, #12]
 8007470:	440a      	add	r2, r1
 8007472:	f502 6210 	add.w	r2, r2, #2304	; 0x900
 8007476:	f043 6300 	orr.w	r3, r3, #134217728	; 0x8000000
 800747a:	6013      	str	r3, [r2, #0]
 800747c:	68bb      	ldr	r3, [r7, #8]
 800747e:	015a      	lsls	r2, r3, #5
 8007480:	68fb      	ldr	r3, [r7, #12]
 8007482:	4413      	add	r3, r2
 8007484:	f503 6310 	add.w	r3, r3, #2304	; 0x900
 8007488:	681b      	ldr	r3, [r3, #0]
 800748a:	68ba      	ldr	r2, [r7, #8]
 800748c:	0151      	lsls	r1, r2, #5
 800748e:	68fa      	ldr	r2, [r7, #12]
 8007490:	440a      	add	r2, r1
 8007492:	f502 6210 	add.w	r2, r2, #2304	; 0x900
 8007496:	f043 4380 	orr.w	r3, r3, #1073741824	; 0x40000000
 800749a:	6013      	str	r3, [r2, #0]
 800749c:	68fb      	ldr	r3, [r7, #12]
 800749e:	f503 6300 	add.w	r3, r3, #2048	; 0x800
 80074a2:	6bda      	ldr	r2, [r3, #60]	; 0x3c
 80074a4:	683b      	ldr	r3, [r7, #0]
 80074a6:	781b      	ldrb	r3, [r3, #0]
 80074a8:	f003 030f 	and.w	r3, r3, #15
 80074ac:	2101      	movs	r1, #1
 80074ae:	fa01 f303 	lsl.w	r3, r1, r3
 80074b2:	b29b      	uxth	r3, r3
 80074b4:	43db      	mvns	r3, r3
 80074b6:	68f9      	ldr	r1, [r7, #12]
 80074b8:	f501 6100 	add.w	r1, r1, #2048	; 0x800
 80074bc:	4013      	ands	r3, r2
 80074be:	63cb      	str	r3, [r1, #60]	; 0x3c
 80074c0:	68fb      	ldr	r3, [r7, #12]
 80074c2:	f503 6300 	add.w	r3, r3, #2048	; 0x800
 80074c6:	69da      	ldr	r2, [r3, #28]
 80074c8:	683b      	ldr	r3, [r7, #0]
 80074ca:	781b      	ldrb	r3, [r3, #0]
 80074cc:	f003 030f 	and.w	r3, r3, #15
 80074d0:	2101      	movs	r1, #1
 80074d2:	fa01 f303 	lsl.w	r3, r1, r3
 80074d6:	b29b      	uxth	r3, r3
 80074d8:	43db      	mvns	r3, r3
 80074da:	68f9      	ldr	r1, [r7, #12]
 80074dc:	f501 6100 	add.w	r1, r1, #2048	; 0x800
 80074e0:	4013      	ands	r3, r2
 80074e2:	61cb      	str	r3, [r1, #28]
 80074e4:	68bb      	ldr	r3, [r7, #8]
 80074e6:	015a      	lsls	r2, r3, #5
 80074e8:	68fb      	ldr	r3, [r7, #12]
 80074ea:	4413      	add	r3, r2
 80074ec:	f503 6310 	add.w	r3, r3, #2304	; 0x900
 80074f0:	681a      	ldr	r2, [r3, #0]
 80074f2:	68bb      	ldr	r3, [r7, #8]
 80074f4:	0159      	lsls	r1, r3, #5
 80074f6:	68fb      	ldr	r3, [r7, #12]
 80074f8:	440b      	add	r3, r1
 80074fa:	f503 6310 	add.w	r3, r3, #2304	; 0x900
 80074fe:	4619      	mov	r1, r3
 8007500:	4b35      	ldr	r3, [pc, #212]	; (80075d8 <USB_DeactivateEndpoint+0x1b0>)
 8007502:	4013      	ands	r3, r2
 8007504:	600b      	str	r3, [r1, #0]
 8007506:	e060      	b.n	80075ca <USB_DeactivateEndpoint+0x1a2>
 8007508:	68bb      	ldr	r3, [r7, #8]
 800750a:	015a      	lsls	r2, r3, #5
 800750c:	68fb      	ldr	r3, [r7, #12]
 800750e:	4413      	add	r3, r2
 8007510:	f503 6330 	add.w	r3, r3, #2816	; 0xb00
 8007514:	681b      	ldr	r3, [r3, #0]
 8007516:	f003 4300 	and.w	r3, r3, #2147483648	; 0x80000000
 800751a:	f1b3 4f00 	cmp.w	r3, #2147483648	; 0x80000000
 800751e:	d11f      	bne.n	8007560 <USB_DeactivateEndpoint+0x138>
 8007520:	68bb      	ldr	r3, [r7, #8]
 8007522:	015a      	lsls	r2, r3, #5
 8007524:	68fb      	ldr	r3, [r7, #12]
 8007526:	4413      	add	r3, r2
 8007528:	f503 6330 	add.w	r3, r3, #2816	; 0xb00
 800752c:	681b      	ldr	r3, [r3, #0]
 800752e:	68ba      	ldr	r2, [r7, #8]
 8007530:	0151      	lsls	r1, r2, #5
 8007532:	68fa      	ldr	r2, [r7, #12]
 8007534:	440a      	add	r2, r1
 8007536:	f502 6230 	add.w	r2, r2, #2816	; 0xb00
 800753a:	f043 6300 	orr.w	r3, r3, #134217728	; 0x8000000
 800753e:	6013      	str	r3, [r2, #0]
 8007540:	68bb      	ldr	r3, [r7, #8]
 8007542:	015a      	lsls	r2, r3, #5
 8007544:	68fb      	ldr	r3, [r7, #12]
 8007546:	4413      	add	r3, r2
 8007548:	f503 6330 	add.w	r3, r3, #2816	; 0xb00
 800754c:	681b      	ldr	r3, [r3, #0]
 800754e:	68ba      	ldr	r2, [r7, #8]
 8007550:	0151      	lsls	r1, r2, #5
 8007552:	68fa      	ldr	r2, [r7, #12]
 8007554:	440a      	add	r2, r1
 8007556:	f502 6230 	add.w	r2, r2, #2816	; 0xb00
 800755a:	f043 4380 	orr.w	r3, r3, #1073741824	; 0x40000000
 800755e:	6013      	str	r3, [r2, #0]
 8007560:	68fb      	ldr	r3, [r7, #12]
 8007562:	f503 6300 	add.w	r3, r3, #2048	; 0x800
 8007566:	6bda      	ldr	r2, [r3, #60]	; 0x3c
 8007568:	683b      	ldr	r3, [r7, #0]
 800756a:	781b      	ldrb	r3, [r3, #0]
 800756c:	f003 030f 	and.w	r3, r3, #15
 8007570:	2101      	movs	r1, #1
 8007572:	fa01 f303 	lsl.w	r3, r1, r3
 8007576:	041b      	lsls	r3, r3, #16
 8007578:	43db      	mvns	r3, r3
 800757a:	68f9      	ldr	r1, [r7, #12]
 800757c:	f501 6100 	add.w	r1, r1, #2048	; 0x800
 8007580:	4013      	ands	r3, r2
 8007582:	63cb      	str	r3, [r1, #60]	; 0x3c
 8007584:	68fb      	ldr	r3, [r7, #12]
 8007586:	f503 6300 	add.w	r3, r3, #2048	; 0x800
 800758a:	69da      	ldr	r2, [r3, #28]
 800758c:	683b      	ldr	r3, [r7, #0]
 800758e:	781b      	ldrb	r3, [r3, #0]
 8007590:	f003 030f 	and.w	r3, r3, #15
 8007594:	2101      	movs	r1, #1
 8007596:	fa01 f303 	lsl.w	r3, r1, r3
 800759a:	041b      	lsls	r3, r3, #16
 800759c:	43db      	mvns	r3, r3
 800759e:	68f9      	ldr	r1, [r7, #12]
 80075a0:	f501 6100 	add.w	r1, r1, #2048	; 0x800
 80075a4:	4013      	ands	r3, r2
 80075a6:	61cb      	str	r3, [r1, #28]
 80075a8:	68bb      	ldr	r3, [r7, #8]
 80075aa:	015a      	lsls	r2, r3, #5
 80075ac:	68fb      	ldr	r3, [r7, #12]
 80075ae:	4413      	add	r3, r2
 80075b0:	f503 6330 	add.w	r3, r3, #2816	; 0xb00
 80075b4:	681a      	ldr	r2, [r3, #0]
 80075b6:	68bb      	ldr	r3, [r7, #8]
 80075b8:	0159      	lsls	r1, r3, #5
 80075ba:	68fb      	ldr	r3, [r7, #12]
 80075bc:	440b      	add	r3, r1
 80075be:	f503 6330 	add.w	r3, r3, #2816	; 0xb00
 80075c2:	4619      	mov	r1, r3
 80075c4:	4b05      	ldr	r3, [pc, #20]	; (80075dc <USB_DeactivateEndpoint+0x1b4>)
 80075c6:	4013      	ands	r3, r2
 80075c8:	600b      	str	r3, [r1, #0]
 80075ca:	2300      	movs	r3, #0
 80075cc:	4618      	mov	r0, r3
 80075ce:	3714      	adds	r7, #20
 80075d0:	46bd      	mov	sp, r7
 80075d2:	f85d 7b04 	ldr.w	r7, [sp], #4
 80075d6:	4770      	bx	lr
 80075d8:	ec337800 	.word	0xec337800
 80075dc:	eff37800 	.word	0xeff37800

080075e0 <USB_EPStartXfer>:
 80075e0:	b580      	push	{r7, lr}
 80075e2:	b08a      	sub	sp, #40	; 0x28
 80075e4:	af02      	add	r7, sp, #8
 80075e6:	60f8      	str	r0, [r7, #12]
 80075e8:	60b9      	str	r1, [r7, #8]
 80075ea:	4613      	mov	r3, r2
 80075ec:	71fb      	strb	r3, [r7, #7]
 80075ee:	68fb      	ldr	r3, [r7, #12]
 80075f0:	61fb      	str	r3, [r7, #28]
 80075f2:	68bb      	ldr	r3, [r7, #8]
 80075f4:	781b      	ldrb	r3, [r3, #0]
 80075f6:	61bb      	str	r3, [r7, #24]
 80075f8:	68bb      	ldr	r3, [r7, #8]
 80075fa:	785b      	ldrb	r3, [r3, #1]
 80075fc:	2b01      	cmp	r3, #1
 80075fe:	f040 817f 	bne.w	8007900 <USB_EPStartXfer+0x320>
 8007602:	68bb      	ldr	r3, [r7, #8]
 8007604:	691b      	ldr	r3, [r3, #16]
 8007606:	2b00      	cmp	r3, #0
 8007608:	d132      	bne.n	8007670 <USB_EPStartXfer+0x90>
 800760a:	69bb      	ldr	r3, [r7, #24]
 800760c:	015a      	lsls	r2, r3, #5
 800760e:	69fb      	ldr	r3, [r7, #28]
 8007610:	4413      	add	r3, r2
 8007612:	f503 6310 	add.w	r3, r3, #2304	; 0x900
 8007616:	691b      	ldr	r3, [r3, #16]
 8007618:	69ba      	ldr	r2, [r7, #24]
 800761a:	0151      	lsls	r1, r2, #5
 800761c:	69fa      	ldr	r2, [r7, #28]
 800761e:	440a      	add	r2, r1
 8007620:	f502 6210 	add.w	r2, r2, #2304	; 0x900
 8007624:	f023 53ff 	bic.w	r3, r3, #534773760	; 0x1fe00000
 8007628:	f423 13c0 	bic.w	r3, r3, #1572864	; 0x180000
 800762c:	6113      	str	r3, [r2, #16]
 800762e:	69bb      	ldr	r3, [r7, #24]
 8007630:	015a      	lsls	r2, r3, #5
 8007632:	69fb      	ldr	r3, [r7, #28]
 8007634:	4413      	add	r3, r2
 8007636:	f503 6310 	add.w	r3, r3, #2304	; 0x900
 800763a:	691b      	ldr	r3, [r3, #16]
 800763c:	69ba      	ldr	r2, [r7, #24]
 800763e:	0151      	lsls	r1, r2, #5
 8007640:	69fa      	ldr	r2, [r7, #28]
 8007642:	440a      	add	r2, r1
 8007644:	f502 6210 	add.w	r2, r2, #2304	; 0x900
 8007648:	f443 2300 	orr.w	r3, r3, #524288	; 0x80000
 800764c:	6113      	str	r3, [r2, #16]
 800764e:	69bb      	ldr	r3, [r7, #24]
 8007650:	015a      	lsls	r2, r3, #5
 8007652:	69fb      	ldr	r3, [r7, #28]
 8007654:	4413      	add	r3, r2
 8007656:	f503 6310 	add.w	r3, r3, #2304	; 0x900
 800765a:	691b      	ldr	r3, [r3, #16]
 800765c:	69ba      	ldr	r2, [r7, #24]
 800765e:	0151      	lsls	r1, r2, #5
 8007660:	69fa      	ldr	r2, [r7, #28]
 8007662:	440a      	add	r2, r1
 8007664:	f502 6210 	add.w	r2, r2, #2304	; 0x900
 8007668:	0cdb      	lsrs	r3, r3, #19
 800766a:	04db      	lsls	r3, r3, #19
 800766c:	6113      	str	r3, [r2, #16]
 800766e:	e097      	b.n	80077a0 <USB_EPStartXfer+0x1c0>
 8007670:	69bb      	ldr	r3, [r7, #24]
 8007672:	015a      	lsls	r2, r3, #5
 8007674:	69fb      	ldr	r3, [r7, #28]
 8007676:	4413      	add	r3, r2
 8007678:	f503 6310 	add.w	r3, r3, #2304	; 0x900
 800767c:	691b      	ldr	r3, [r3, #16]
 800767e:	69ba      	ldr	r2, [r7, #24]
 8007680:	0151      	lsls	r1, r2, #5
 8007682:	69fa      	ldr	r2, [r7, #28]
 8007684:	440a      	add	r2, r1
 8007686:	f502 6210 	add.w	r2, r2, #2304	; 0x900
 800768a:	0cdb      	lsrs	r3, r3, #19
 800768c:	04db      	lsls	r3, r3, #19
 800768e:	6113      	str	r3, [r2, #16]
 8007690:	69bb      	ldr	r3, [r7, #24]
 8007692:	015a      	lsls	r2, r3, #5
 8007694:	69fb      	ldr	r3, [r7, #28]
 8007696:	4413      	add	r3, r2
 8007698:	f503 6310 	add.w	r3, r3, #2304	; 0x900
 800769c:	691b      	ldr	r3, [r3, #16]
 800769e:	69ba      	ldr	r2, [r7, #24]
 80076a0:	0151      	lsls	r1, r2, #5
 80076a2:	69fa      	ldr	r2, [r7, #28]
 80076a4:	440a      	add	r2, r1
 80076a6:	f502 6210 	add.w	r2, r2, #2304	; 0x900
 80076aa:	f023 53ff 	bic.w	r3, r3, #534773760	; 0x1fe00000
 80076ae:	f423 13c0 	bic.w	r3, r3, #1572864	; 0x180000
 80076b2:	6113      	str	r3, [r2, #16]
 80076b4:	69bb      	ldr	r3, [r7, #24]
 80076b6:	2b00      	cmp	r3, #0
 80076b8:	d11a      	bne.n	80076f0 <USB_EPStartXfer+0x110>
 80076ba:	68bb      	ldr	r3, [r7, #8]
 80076bc:	691a      	ldr	r2, [r3, #16]
 80076be:	68bb      	ldr	r3, [r7, #8]
 80076c0:	689b      	ldr	r3, [r3, #8]
 80076c2:	429a      	cmp	r2, r3
 80076c4:	d903      	bls.n	80076ce <USB_EPStartXfer+0xee>
 80076c6:	68bb      	ldr	r3, [r7, #8]
 80076c8:	689a      	ldr	r2, [r3, #8]
 80076ca:	68bb      	ldr	r3, [r7, #8]
 80076cc:	611a      	str	r2, [r3, #16]
 80076ce:	69bb      	ldr	r3, [r7, #24]
 80076d0:	015a      	lsls	r2, r3, #5
 80076d2:	69fb      	ldr	r3, [r7, #28]
 80076d4:	4413      	add	r3, r2
 80076d6:	f503 6310 	add.w	r3, r3, #2304	; 0x900
 80076da:	691b      	ldr	r3, [r3, #16]
 80076dc:	69ba      	ldr	r2, [r7, #24]
 80076de:	0151      	lsls	r1, r2, #5
 80076e0:	69fa      	ldr	r2, [r7, #28]
 80076e2:	440a      	add	r2, r1
 80076e4:	f502 6210 	add.w	r2, r2, #2304	; 0x900
 80076e8:	f443 2300 	orr.w	r3, r3, #524288	; 0x80000
 80076ec:	6113      	str	r3, [r2, #16]
 80076ee:	e044      	b.n	800777a <USB_EPStartXfer+0x19a>
 80076f0:	68bb      	ldr	r3, [r7, #8]
 80076f2:	691a      	ldr	r2, [r3, #16]
 80076f4:	68bb      	ldr	r3, [r7, #8]
 80076f6:	689b      	ldr	r3, [r3, #8]
 80076f8:	4413      	add	r3, r2
 80076fa:	1e5a      	subs	r2, r3, #1
 80076fc:	68bb      	ldr	r3, [r7, #8]
 80076fe:	689b      	ldr	r3, [r3, #8]
 8007700:	fbb2 f3f3 	udiv	r3, r2, r3
 8007704:	82fb      	strh	r3, [r7, #22]
 8007706:	69bb      	ldr	r3, [r7, #24]
 8007708:	015a      	lsls	r2, r3, #5
 800770a:	69fb      	ldr	r3, [r7, #28]
 800770c:	4413      	add	r3, r2
 800770e:	f503 6310 	add.w	r3, r3, #2304	; 0x900
 8007712:	691a      	ldr	r2, [r3, #16]
 8007714:	8afb      	ldrh	r3, [r7, #22]
 8007716:	04d9      	lsls	r1, r3, #19
 8007718:	4ba4      	ldr	r3, [pc, #656]	; (80079ac <USB_EPStartXfer+0x3cc>)
 800771a:	400b      	ands	r3, r1
 800771c:	69b9      	ldr	r1, [r7, #24]
 800771e:	0148      	lsls	r0, r1, #5
 8007720:	69f9      	ldr	r1, [r7, #28]
 8007722:	4401      	add	r1, r0
 8007724:	f501 6110 	add.w	r1, r1, #2304	; 0x900
 8007728:	4313      	orrs	r3, r2
 800772a:	610b      	str	r3, [r1, #16]
 800772c:	68bb      	ldr	r3, [r7, #8]
 800772e:	791b      	ldrb	r3, [r3, #4]
 8007730:	2b01      	cmp	r3, #1
 8007732:	d122      	bne.n	800777a <USB_EPStartXfer+0x19a>
 8007734:	69bb      	ldr	r3, [r7, #24]
 8007736:	015a      	lsls	r2, r3, #5
 8007738:	69fb      	ldr	r3, [r7, #28]
 800773a:	4413      	add	r3, r2
 800773c:	f503 6310 	add.w	r3, r3, #2304	; 0x900
 8007740:	691b      	ldr	r3, [r3, #16]
 8007742:	69ba      	ldr	r2, [r7, #24]
 8007744:	0151      	lsls	r1, r2, #5
 8007746:	69fa      	ldr	r2, [r7, #28]
 8007748:	440a      	add	r2, r1
 800774a:	f502 6210 	add.w	r2, r2, #2304	; 0x900
 800774e:	f023 43c0 	bic.w	r3, r3, #1610612736	; 0x60000000
 8007752:	6113      	str	r3, [r2, #16]
 8007754:	69bb      	ldr	r3, [r7, #24]
 8007756:	015a      	lsls	r2, r3, #5
 8007758:	69fb      	ldr	r3, [r7, #28]
 800775a:	4413      	add	r3, r2
 800775c:	f503 6310 	add.w	r3, r3, #2304	; 0x900
 8007760:	691a      	ldr	r2, [r3, #16]
 8007762:	8afb      	ldrh	r3, [r7, #22]
 8007764:	075b      	lsls	r3, r3, #29
 8007766:	f003 43c0 	and.w	r3, r3, #1610612736	; 0x60000000
 800776a:	69b9      	ldr	r1, [r7, #24]
 800776c:	0148      	lsls	r0, r1, #5
 800776e:	69f9      	ldr	r1, [r7, #28]
 8007770:	4401      	add	r1, r0
 8007772:	f501 6110 	add.w	r1, r1, #2304	; 0x900
 8007776:	4313      	orrs	r3, r2
 8007778:	610b      	str	r3, [r1, #16]
 800777a:	69bb      	ldr	r3, [r7, #24]
 800777c:	015a      	lsls	r2, r3, #5
 800777e:	69fb      	ldr	r3, [r7, #28]
 8007780:	4413      	add	r3, r2
 8007782:	f503 6310 	add.w	r3, r3, #2304	; 0x900
 8007786:	691a      	ldr	r2, [r3, #16]
 8007788:	68bb      	ldr	r3, [r7, #8]
 800778a:	691b      	ldr	r3, [r3, #16]
 800778c:	f3c3 0312 	ubfx	r3, r3, #0, #19
 8007790:	69b9      	ldr	r1, [r7, #24]
 8007792:	0148      	lsls	r0, r1, #5
 8007794:	69f9      	ldr	r1, [r7, #28]
 8007796:	4401      	add	r1, r0
 8007798:	f501 6110 	add.w	r1, r1, #2304	; 0x900
 800779c:	4313      	orrs	r3, r2
 800779e:	610b      	str	r3, [r1, #16]
 80077a0:	79fb      	ldrb	r3, [r7, #7]
 80077a2:	2b01      	cmp	r3, #1
 80077a4:	d14b      	bne.n	800783e <USB_EPStartXfer+0x25e>
 80077a6:	68bb      	ldr	r3, [r7, #8]
 80077a8:	69db      	ldr	r3, [r3, #28]
 80077aa:	2b00      	cmp	r3, #0
 80077ac:	d009      	beq.n	80077c2 <USB_EPStartXfer+0x1e2>
 80077ae:	69bb      	ldr	r3, [r7, #24]
 80077b0:	015a      	lsls	r2, r3, #5
 80077b2:	69fb      	ldr	r3, [r7, #28]
 80077b4:	4413      	add	r3, r2
 80077b6:	f503 6310 	add.w	r3, r3, #2304	; 0x900
 80077ba:	461a      	mov	r2, r3
 80077bc:	68bb      	ldr	r3, [r7, #8]
 80077be:	69db      	ldr	r3, [r3, #28]
 80077c0:	6153      	str	r3, [r2, #20]
 80077c2:	68bb      	ldr	r3, [r7, #8]
 80077c4:	791b      	ldrb	r3, [r3, #4]
 80077c6:	2b01      	cmp	r3, #1
 80077c8:	d128      	bne.n	800781c <USB_EPStartXfer+0x23c>
 80077ca:	69fb      	ldr	r3, [r7, #28]
 80077cc:	f503 6300 	add.w	r3, r3, #2048	; 0x800
 80077d0:	689b      	ldr	r3, [r3, #8]
 80077d2:	f403 7380 	and.w	r3, r3, #256	; 0x100
 80077d6:	2b00      	cmp	r3, #0
 80077d8:	d110      	bne.n	80077fc <USB_EPStartXfer+0x21c>
 80077da:	69bb      	ldr	r3, [r7, #24]
 80077dc:	015a      	lsls	r2, r3, #5
 80077de:	69fb      	ldr	r3, [r7, #28]
 80077e0:	4413      	add	r3, r2
 80077e2:	f503 6310 	add.w	r3, r3, #2304	; 0x900
 80077e6:	681b      	ldr	r3, [r3, #0]
 80077e8:	69ba      	ldr	r2, [r7, #24]
 80077ea:	0151      	lsls	r1, r2, #5
 80077ec:	69fa      	ldr	r2, [r7, #28]
 80077ee:	440a      	add	r2, r1
 80077f0:	f502 6210 	add.w	r2, r2, #2304	; 0x900
 80077f4:	f043 5300 	orr.w	r3, r3, #536870912	; 0x20000000
 80077f8:	6013      	str	r3, [r2, #0]
 80077fa:	e00f      	b.n	800781c <USB_EPStartXfer+0x23c>
 80077fc:	69bb      	ldr	r3, [r7, #24]
 80077fe:	015a      	lsls	r2, r3, #5
 8007800:	69fb      	ldr	r3, [r7, #28]
 8007802:	4413      	add	r3, r2
 8007804:	f503 6310 	add.w	r3, r3, #2304	; 0x900
 8007808:	681b      	ldr	r3, [r3, #0]
 800780a:	69ba      	ldr	r2, [r7, #24]
 800780c:	0151      	lsls	r1, r2, #5
 800780e:	69fa      	ldr	r2, [r7, #28]
 8007810:	440a      	add	r2, r1
 8007812:	f502 6210 	add.w	r2, r2, #2304	; 0x900
 8007816:	f043 5380 	orr.w	r3, r3, #268435456	; 0x10000000
 800781a:	6013      	str	r3, [r2, #0]
 800781c:	69bb      	ldr	r3, [r7, #24]
 800781e:	015a      	lsls	r2, r3, #5
 8007820:	69fb      	ldr	r3, [r7, #28]
 8007822:	4413      	add	r3, r2
 8007824:	f503 6310 	add.w	r3, r3, #2304	; 0x900
 8007828:	681b      	ldr	r3, [r3, #0]
 800782a:	69ba      	ldr	r2, [r7, #24]
 800782c:	0151      	lsls	r1, r2, #5
 800782e:	69fa      	ldr	r2, [r7, #28]
 8007830:	440a      	add	r2, r1
 8007832:	f502 6210 	add.w	r2, r2, #2304	; 0x900
 8007836:	f043 4304 	orr.w	r3, r3, #2214592512	; 0x84000000
 800783a:	6013      	str	r3, [r2, #0]
 800783c:	e166      	b.n	8007b0c <USB_EPStartXfer+0x52c>
 800783e:	69bb      	ldr	r3, [r7, #24]
 8007840:	015a      	lsls	r2, r3, #5
 8007842:	69fb      	ldr	r3, [r7, #28]
 8007844:	4413      	add	r3, r2
 8007846:	f503 6310 	add.w	r3, r3, #2304	; 0x900
 800784a:	681b      	ldr	r3, [r3, #0]
 800784c:	69ba      	ldr	r2, [r7, #24]
 800784e:	0151      	lsls	r1, r2, #5
 8007850:	69fa      	ldr	r2, [r7, #28]
 8007852:	440a      	add	r2, r1
 8007854:	f502 6210 	add.w	r2, r2, #2304	; 0x900
 8007858:	f043 4304 	orr.w	r3, r3, #2214592512	; 0x84000000
 800785c:	6013      	str	r3, [r2, #0]
 800785e:	68bb      	ldr	r3, [r7, #8]
 8007860:	791b      	ldrb	r3, [r3, #4]
 8007862:	2b01      	cmp	r3, #1
 8007864:	d015      	beq.n	8007892 <USB_EPStartXfer+0x2b2>
 8007866:	68bb      	ldr	r3, [r7, #8]
 8007868:	691b      	ldr	r3, [r3, #16]
 800786a:	2b00      	cmp	r3, #0
 800786c:	f000 814e 	beq.w	8007b0c <USB_EPStartXfer+0x52c>
 8007870:	69fb      	ldr	r3, [r7, #28]
 8007872:	f503 6300 	add.w	r3, r3, #2048	; 0x800
 8007876:	6b5a      	ldr	r2, [r3, #52]	; 0x34
 8007878:	68bb      	ldr	r3, [r7, #8]
 800787a:	781b      	ldrb	r3, [r3, #0]
 800787c:	f003 030f 	and.w	r3, r3, #15
 8007880:	2101      	movs	r1, #1
 8007882:	fa01 f303 	lsl.w	r3, r1, r3
 8007886:	69f9      	ldr	r1, [r7, #28]
 8007888:	f501 6100 	add.w	r1, r1, #2048	; 0x800
 800788c:	4313      	orrs	r3, r2
 800788e:	634b      	str	r3, [r1, #52]	; 0x34
 8007890:	e13c      	b.n	8007b0c <USB_EPStartXfer+0x52c>
 8007892:	69fb      	ldr	r3, [r7, #28]
 8007894:	f503 6300 	add.w	r3, r3, #2048	; 0x800
 8007898:	689b      	ldr	r3, [r3, #8]
 800789a:	f403 7380 	and.w	r3, r3, #256	; 0x100
 800789e:	2b00      	cmp	r3, #0
 80078a0:	d110      	bne.n	80078c4 <USB_EPStartXfer+0x2e4>
 80078a2:	69bb      	ldr	r3, [r7, #24]
 80078a4:	015a      	lsls	r2, r3, #5
 80078a6:	69fb      	ldr	r3, [r7, #28]
 80078a8:	4413      	add	r3, r2
 80078aa:	f503 6310 	add.w	r3, r3, #2304	; 0x900
 80078ae:	681b      	ldr	r3, [r3, #0]
 80078b0:	69ba      	ldr	r2, [r7, #24]
 80078b2:	0151      	lsls	r1, r2, #5
 80078b4:	69fa      	ldr	r2, [r7, #28]
 80078b6:	440a      	add	r2, r1
 80078b8:	f502 6210 	add.w	r2, r2, #2304	; 0x900
 80078bc:	f043 5300 	orr.w	r3, r3, #536870912	; 0x20000000
 80078c0:	6013      	str	r3, [r2, #0]
 80078c2:	e00f      	b.n	80078e4 <USB_EPStartXfer+0x304>
 80078c4:	69bb      	ldr	r3, [r7, #24]
 80078c6:	015a      	lsls	r2, r3, #5
 80078c8:	69fb      	ldr	r3, [r7, #28]
 80078ca:	4413      	add	r3, r2
 80078cc:	f503 6310 	add.w	r3, r3, #2304	; 0x900
 80078d0:	681b      	ldr	r3, [r3, #0]
 80078d2:	69ba      	ldr	r2, [r7, #24]
 80078d4:	0151      	lsls	r1, r2, #5
 80078d6:	69fa      	ldr	r2, [r7, #28]
 80078d8:	440a      	add	r2, r1
 80078da:	f502 6210 	add.w	r2, r2, #2304	; 0x900
 80078de:	f043 5380 	orr.w	r3, r3, #268435456	; 0x10000000
 80078e2:	6013      	str	r3, [r2, #0]
 80078e4:	68bb      	ldr	r3, [r7, #8]
 80078e6:	68d9      	ldr	r1, [r3, #12]
 80078e8:	68bb      	ldr	r3, [r7, #8]
 80078ea:	781a      	ldrb	r2, [r3, #0]
 80078ec:	68bb      	ldr	r3, [r7, #8]
 80078ee:	691b      	ldr	r3, [r3, #16]
 80078f0:	b298      	uxth	r0, r3
 80078f2:	79fb      	ldrb	r3, [r7, #7]
 80078f4:	9300      	str	r3, [sp, #0]
 80078f6:	4603      	mov	r3, r0
 80078f8:	68f8      	ldr	r0, [r7, #12]
 80078fa:	f000 f9b9 	bl	8007c70 <USB_WritePacket>
 80078fe:	e105      	b.n	8007b0c <USB_EPStartXfer+0x52c>
 8007900:	69bb      	ldr	r3, [r7, #24]
 8007902:	015a      	lsls	r2, r3, #5
 8007904:	69fb      	ldr	r3, [r7, #28]
 8007906:	4413      	add	r3, r2
 8007908:	f503 6330 	add.w	r3, r3, #2816	; 0xb00
 800790c:	691b      	ldr	r3, [r3, #16]
 800790e:	69ba      	ldr	r2, [r7, #24]
 8007910:	0151      	lsls	r1, r2, #5
 8007912:	69fa      	ldr	r2, [r7, #28]
 8007914:	440a      	add	r2, r1
 8007916:	f502 6230 	add.w	r2, r2, #2816	; 0xb00
 800791a:	0cdb      	lsrs	r3, r3, #19
 800791c:	04db      	lsls	r3, r3, #19
 800791e:	6113      	str	r3, [r2, #16]
 8007920:	69bb      	ldr	r3, [r7, #24]
 8007922:	015a      	lsls	r2, r3, #5
 8007924:	69fb      	ldr	r3, [r7, #28]
 8007926:	4413      	add	r3, r2
 8007928:	f503 6330 	add.w	r3, r3, #2816	; 0xb00
 800792c:	691b      	ldr	r3, [r3, #16]
 800792e:	69ba      	ldr	r2, [r7, #24]
 8007930:	0151      	lsls	r1, r2, #5
 8007932:	69fa      	ldr	r2, [r7, #28]
 8007934:	440a      	add	r2, r1
 8007936:	f502 6230 	add.w	r2, r2, #2816	; 0xb00
 800793a:	f023 53ff 	bic.w	r3, r3, #534773760	; 0x1fe00000
 800793e:	f423 13c0 	bic.w	r3, r3, #1572864	; 0x180000
 8007942:	6113      	str	r3, [r2, #16]
 8007944:	69bb      	ldr	r3, [r7, #24]
 8007946:	2b00      	cmp	r3, #0
 8007948:	d132      	bne.n	80079b0 <USB_EPStartXfer+0x3d0>
 800794a:	68bb      	ldr	r3, [r7, #8]
 800794c:	691b      	ldr	r3, [r3, #16]
 800794e:	2b00      	cmp	r3, #0
 8007950:	d003      	beq.n	800795a <USB_EPStartXfer+0x37a>
 8007952:	68bb      	ldr	r3, [r7, #8]
 8007954:	689a      	ldr	r2, [r3, #8]
 8007956:	68bb      	ldr	r3, [r7, #8]
 8007958:	611a      	str	r2, [r3, #16]
 800795a:	68bb      	ldr	r3, [r7, #8]
 800795c:	689a      	ldr	r2, [r3, #8]
 800795e:	68bb      	ldr	r3, [r7, #8]
 8007960:	621a      	str	r2, [r3, #32]
 8007962:	69bb      	ldr	r3, [r7, #24]
 8007964:	015a      	lsls	r2, r3, #5
 8007966:	69fb      	ldr	r3, [r7, #28]
 8007968:	4413      	add	r3, r2
 800796a:	f503 6330 	add.w	r3, r3, #2816	; 0xb00
 800796e:	691a      	ldr	r2, [r3, #16]
 8007970:	68bb      	ldr	r3, [r7, #8]
 8007972:	6a1b      	ldr	r3, [r3, #32]
 8007974:	f3c3 0312 	ubfx	r3, r3, #0, #19
 8007978:	69b9      	ldr	r1, [r7, #24]
 800797a:	0148      	lsls	r0, r1, #5
 800797c:	69f9      	ldr	r1, [r7, #28]
 800797e:	4401      	add	r1, r0
 8007980:	f501 6130 	add.w	r1, r1, #2816	; 0xb00
 8007984:	4313      	orrs	r3, r2
 8007986:	610b      	str	r3, [r1, #16]
 8007988:	69bb      	ldr	r3, [r7, #24]
 800798a:	015a      	lsls	r2, r3, #5
 800798c:	69fb      	ldr	r3, [r7, #28]
 800798e:	4413      	add	r3, r2
 8007990:	f503 6330 	add.w	r3, r3, #2816	; 0xb00
 8007994:	691b      	ldr	r3, [r3, #16]
 8007996:	69ba      	ldr	r2, [r7, #24]
 8007998:	0151      	lsls	r1, r2, #5
 800799a:	69fa      	ldr	r2, [r7, #28]
 800799c:	440a      	add	r2, r1
 800799e:	f502 6230 	add.w	r2, r2, #2816	; 0xb00
 80079a2:	f443 2300 	orr.w	r3, r3, #524288	; 0x80000
 80079a6:	6113      	str	r3, [r2, #16]
 80079a8:	e062      	b.n	8007a70 <USB_EPStartXfer+0x490>
 80079aa:	bf00      	nop
 80079ac:	1ff80000 	.word	0x1ff80000
 80079b0:	68bb      	ldr	r3, [r7, #8]
 80079b2:	691b      	ldr	r3, [r3, #16]
 80079b4:	2b00      	cmp	r3, #0
 80079b6:	d123      	bne.n	8007a00 <USB_EPStartXfer+0x420>
 80079b8:	69bb      	ldr	r3, [r7, #24]
 80079ba:	015a      	lsls	r2, r3, #5
 80079bc:	69fb      	ldr	r3, [r7, #28]
 80079be:	4413      	add	r3, r2
 80079c0:	f503 6330 	add.w	r3, r3, #2816	; 0xb00
 80079c4:	691a      	ldr	r2, [r3, #16]
 80079c6:	68bb      	ldr	r3, [r7, #8]
 80079c8:	689b      	ldr	r3, [r3, #8]
 80079ca:	f3c3 0312 	ubfx	r3, r3, #0, #19
 80079ce:	69b9      	ldr	r1, [r7, #24]
 80079d0:	0148      	lsls	r0, r1, #5
 80079d2:	69f9      	ldr	r1, [r7, #28]
 80079d4:	4401      	add	r1, r0
 80079d6:	f501 6130 	add.w	r1, r1, #2816	; 0xb00
 80079da:	4313      	orrs	r3, r2
 80079dc:	610b      	str	r3, [r1, #16]
 80079de:	69bb      	ldr	r3, [r7, #24]
 80079e0:	015a      	lsls	r2, r3, #5
 80079e2:	69fb      	ldr	r3, [r7, #28]
 80079e4:	4413      	add	r3, r2
 80079e6:	f503 6330 	add.w	r3, r3, #2816	; 0xb00
 80079ea:	691b      	ldr	r3, [r3, #16]
 80079ec:	69ba      	ldr	r2, [r7, #24]
 80079ee:	0151      	lsls	r1, r2, #5
 80079f0:	69fa      	ldr	r2, [r7, #28]
 80079f2:	440a      	add	r2, r1
 80079f4:	f502 6230 	add.w	r2, r2, #2816	; 0xb00
 80079f8:	f443 2300 	orr.w	r3, r3, #524288	; 0x80000
 80079fc:	6113      	str	r3, [r2, #16]
 80079fe:	e037      	b.n	8007a70 <USB_EPStartXfer+0x490>
 8007a00:	68bb      	ldr	r3, [r7, #8]
 8007a02:	691a      	ldr	r2, [r3, #16]
 8007a04:	68bb      	ldr	r3, [r7, #8]
 8007a06:	689b      	ldr	r3, [r3, #8]
 8007a08:	4413      	add	r3, r2
 8007a0a:	1e5a      	subs	r2, r3, #1
 8007a0c:	68bb      	ldr	r3, [r7, #8]
 8007a0e:	689b      	ldr	r3, [r3, #8]
 8007a10:	fbb2 f3f3 	udiv	r3, r2, r3
 8007a14:	82fb      	strh	r3, [r7, #22]
 8007a16:	68bb      	ldr	r3, [r7, #8]
 8007a18:	689b      	ldr	r3, [r3, #8]
 8007a1a:	8afa      	ldrh	r2, [r7, #22]
 8007a1c:	fb03 f202 	mul.w	r2, r3, r2
 8007a20:	68bb      	ldr	r3, [r7, #8]
 8007a22:	621a      	str	r2, [r3, #32]
 8007a24:	69bb      	ldr	r3, [r7, #24]
 8007a26:	015a      	lsls	r2, r3, #5
 8007a28:	69fb      	ldr	r3, [r7, #28]
 8007a2a:	4413      	add	r3, r2
 8007a2c:	f503 6330 	add.w	r3, r3, #2816	; 0xb00
 8007a30:	691a      	ldr	r2, [r3, #16]
 8007a32:	8afb      	ldrh	r3, [r7, #22]
 8007a34:	04d9      	lsls	r1, r3, #19
 8007a36:	4b38      	ldr	r3, [pc, #224]	; (8007b18 <USB_EPStartXfer+0x538>)
 8007a38:	400b      	ands	r3, r1
 8007a3a:	69b9      	ldr	r1, [r7, #24]
 8007a3c:	0148      	lsls	r0, r1, #5
 8007a3e:	69f9      	ldr	r1, [r7, #28]
 8007a40:	4401      	add	r1, r0
 8007a42:	f501 6130 	add.w	r1, r1, #2816	; 0xb00
 8007a46:	4313      	orrs	r3, r2
 8007a48:	610b      	str	r3, [r1, #16]
 8007a4a:	69bb      	ldr	r3, [r7, #24]
 8007a4c:	015a      	lsls	r2, r3, #5
 8007a4e:	69fb      	ldr	r3, [r7, #28]
 8007a50:	4413      	add	r3, r2
 8007a52:	f503 6330 	add.w	r3, r3, #2816	; 0xb00
 8007a56:	691a      	ldr	r2, [r3, #16]
 8007a58:	68bb      	ldr	r3, [r7, #8]
 8007a5a:	6a1b      	ldr	r3, [r3, #32]
 8007a5c:	f3c3 0312 	ubfx	r3, r3, #0, #19
 8007a60:	69b9      	ldr	r1, [r7, #24]
 8007a62:	0148      	lsls	r0, r1, #5
 8007a64:	69f9      	ldr	r1, [r7, #28]
 8007a66:	4401      	add	r1, r0
 8007a68:	f501 6130 	add.w	r1, r1, #2816	; 0xb00
 8007a6c:	4313      	orrs	r3, r2
 8007a6e:	610b      	str	r3, [r1, #16]
 8007a70:	79fb      	ldrb	r3, [r7, #7]
 8007a72:	2b01      	cmp	r3, #1
 8007a74:	d10d      	bne.n	8007a92 <USB_EPStartXfer+0x4b2>
 8007a76:	68bb      	ldr	r3, [r7, #8]
 8007a78:	68db      	ldr	r3, [r3, #12]
 8007a7a:	2b00      	cmp	r3, #0
 8007a7c:	d009      	beq.n	8007a92 <USB_EPStartXfer+0x4b2>
 8007a7e:	68bb      	ldr	r3, [r7, #8]
 8007a80:	68d9      	ldr	r1, [r3, #12]
 8007a82:	69bb      	ldr	r3, [r7, #24]
 8007a84:	015a      	lsls	r2, r3, #5
 8007a86:	69fb      	ldr	r3, [r7, #28]
 8007a88:	4413      	add	r3, r2
 8007a8a:	f503 6330 	add.w	r3, r3, #2816	; 0xb00
 8007a8e:	460a      	mov	r2, r1
 8007a90:	615a      	str	r2, [r3, #20]
 8007a92:	68bb      	ldr	r3, [r7, #8]
 8007a94:	791b      	ldrb	r3, [r3, #4]
 8007a96:	2b01      	cmp	r3, #1
 8007a98:	d128      	bne.n	8007aec <USB_EPStartXfer+0x50c>
 8007a9a:	69fb      	ldr	r3, [r7, #28]
 8007a9c:	f503 6300 	add.w	r3, r3, #2048	; 0x800
 8007aa0:	689b      	ldr	r3, [r3, #8]
 8007aa2:	f403 7380 	and.w	r3, r3, #256	; 0x100
 8007aa6:	2b00      	cmp	r3, #0
 8007aa8:	d110      	bne.n	8007acc <USB_EPStartXfer+0x4ec>
 8007aaa:	69bb      	ldr	r3, [r7, #24]
 8007aac:	015a      	lsls	r2, r3, #5
 8007aae:	69fb      	ldr	r3, [r7, #28]
 8007ab0:	4413      	add	r3, r2
 8007ab2:	f503 6330 	add.w	r3, r3, #2816	; 0xb00
 8007ab6:	681b      	ldr	r3, [r3, #0]
 8007ab8:	69ba      	ldr	r2, [r7, #24]
 8007aba:	0151      	lsls	r1, r2, #5
 8007abc:	69fa      	ldr	r2, [r7, #28]
 8007abe:	440a      	add	r2, r1
 8007ac0:	f502 6230 	add.w	r2, r2, #2816	; 0xb00
 8007ac4:	f043 5300 	orr.w	r3, r3, #536870912	; 0x20000000
 8007ac8:	6013      	str	r3, [r2, #0]
 8007aca:	e00f      	b.n	8007aec <USB_EPStartXfer+0x50c>
 8007acc:	69bb      	ldr	r3, [r7, #24]
 8007ace:	015a      	lsls	r2, r3, #5
 8007ad0:	69fb      	ldr	r3, [r7, #28]
 8007ad2:	4413      	add	r3, r2
 8007ad4:	f503 6330 	add.w	r3, r3, #2816	; 0xb00
 8007ad8:	681b      	ldr	r3, [r3, #0]
 8007ada:	69ba      	ldr	r2, [r7, #24]
 8007adc:	0151      	lsls	r1, r2, #5
 8007ade:	69fa      	ldr	r2, [r7, #28]
 8007ae0:	440a      	add	r2, r1
 8007ae2:	f502 6230 	add.w	r2, r2, #2816	; 0xb00
 8007ae6:	f043 5380 	orr.w	r3, r3, #268435456	; 0x10000000
 8007aea:	6013      	str	r3, [r2, #0]
 8007aec:	69bb      	ldr	r3, [r7, #24]
 8007aee:	015a      	lsls	r2, r3, #5
 8007af0:	69fb      	ldr	r3, [r7, #28]
 8007af2:	4413      	add	r3, r2
 8007af4:	f503 6330 	add.w	r3, r3, #2816	; 0xb00
 8007af8:	681b      	ldr	r3, [r3, #0]
 8007afa:	69ba      	ldr	r2, [r7, #24]
 8007afc:	0151      	lsls	r1, r2, #5
 8007afe:	69fa      	ldr	r2, [r7, #28]
 8007b00:	440a      	add	r2, r1
 8007b02:	f502 6230 	add.w	r2, r2, #2816	; 0xb00
 8007b06:	f043 4304 	orr.w	r3, r3, #2214592512	; 0x84000000
 8007b0a:	6013      	str	r3, [r2, #0]
 8007b0c:	2300      	movs	r3, #0
 8007b0e:	4618      	mov	r0, r3
 8007b10:	3720      	adds	r7, #32
 8007b12:	46bd      	mov	sp, r7
 8007b14:	bd80      	pop	{r7, pc}
 8007b16:	bf00      	nop
 8007b18:	1ff80000 	.word	0x1ff80000

08007b1c <USB_EPStopXfer>:
 8007b1c:	b480      	push	{r7}
 8007b1e:	b087      	sub	sp, #28
 8007b20:	af00      	add	r7, sp, #0
 8007b22:	6078      	str	r0, [r7, #4]
 8007b24:	6039      	str	r1, [r7, #0]
 8007b26:	2300      	movs	r3, #0
 8007b28:	60fb      	str	r3, [r7, #12]
 8007b2a:	2300      	movs	r3, #0
 8007b2c:	75fb      	strb	r3, [r7, #23]
 8007b2e:	687b      	ldr	r3, [r7, #4]
 8007b30:	613b      	str	r3, [r7, #16]
 8007b32:	683b      	ldr	r3, [r7, #0]
 8007b34:	785b      	ldrb	r3, [r3, #1]
 8007b36:	2b01      	cmp	r3, #1
 8007b38:	d14a      	bne.n	8007bd0 <USB_EPStopXfer+0xb4>
 8007b3a:	683b      	ldr	r3, [r7, #0]
 8007b3c:	781b      	ldrb	r3, [r3, #0]
 8007b3e:	015a      	lsls	r2, r3, #5
 8007b40:	693b      	ldr	r3, [r7, #16]
 8007b42:	4413      	add	r3, r2
 8007b44:	f503 6310 	add.w	r3, r3, #2304	; 0x900
 8007b48:	681b      	ldr	r3, [r3, #0]
 8007b4a:	f003 4300 	and.w	r3, r3, #2147483648	; 0x80000000
 8007b4e:	f1b3 4f00 	cmp.w	r3, #2147483648	; 0x80000000
 8007b52:	f040 8086 	bne.w	8007c62 <USB_EPStopXfer+0x146>
 8007b56:	683b      	ldr	r3, [r7, #0]
 8007b58:	781b      	ldrb	r3, [r3, #0]
 8007b5a:	015a      	lsls	r2, r3, #5
 8007b5c:	693b      	ldr	r3, [r7, #16]
 8007b5e:	4413      	add	r3, r2
 8007b60:	f503 6310 	add.w	r3, r3, #2304	; 0x900
 8007b64:	681b      	ldr	r3, [r3, #0]
 8007b66:	683a      	ldr	r2, [r7, #0]
 8007b68:	7812      	ldrb	r2, [r2, #0]
 8007b6a:	0151      	lsls	r1, r2, #5
 8007b6c:	693a      	ldr	r2, [r7, #16]
 8007b6e:	440a      	add	r2, r1
 8007b70:	f502 6210 	add.w	r2, r2, #2304	; 0x900
 8007b74:	f043 6300 	orr.w	r3, r3, #134217728	; 0x8000000
 8007b78:	6013      	str	r3, [r2, #0]
 8007b7a:	683b      	ldr	r3, [r7, #0]
 8007b7c:	781b      	ldrb	r3, [r3, #0]
 8007b7e:	015a      	lsls	r2, r3, #5
 8007b80:	693b      	ldr	r3, [r7, #16]
 8007b82:	4413      	add	r3, r2
 8007b84:	f503 6310 	add.w	r3, r3, #2304	; 0x900
 8007b88:	681b      	ldr	r3, [r3, #0]
 8007b8a:	683a      	ldr	r2, [r7, #0]
 8007b8c:	7812      	ldrb	r2, [r2, #0]
 8007b8e:	0151      	lsls	r1, r2, #5
 8007b90:	693a      	ldr	r2, [r7, #16]
 8007b92:	440a      	add	r2, r1
 8007b94:	f502 6210 	add.w	r2, r2, #2304	; 0x900
 8007b98:	f043 4380 	orr.w	r3, r3, #1073741824	; 0x40000000
 8007b9c:	6013      	str	r3, [r2, #0]
 8007b9e:	68fb      	ldr	r3, [r7, #12]
 8007ba0:	3301      	adds	r3, #1
 8007ba2:	60fb      	str	r3, [r7, #12]
 8007ba4:	68fb      	ldr	r3, [r7, #12]
 8007ba6:	f242 7210 	movw	r2, #10000	; 0x2710
 8007baa:	4293      	cmp	r3, r2
 8007bac:	d902      	bls.n	8007bb4 <USB_EPStopXfer+0x98>
 8007bae:	2301      	movs	r3, #1
 8007bb0:	75fb      	strb	r3, [r7, #23]
 8007bb2:	e056      	b.n	8007c62 <USB_EPStopXfer+0x146>
 8007bb4:	683b      	ldr	r3, [r7, #0]
 8007bb6:	781b      	ldrb	r3, [r3, #0]
 8007bb8:	015a      	lsls	r2, r3, #5
 8007bba:	693b      	ldr	r3, [r7, #16]
 8007bbc:	4413      	add	r3, r2
 8007bbe:	f503 6310 	add.w	r3, r3, #2304	; 0x900
 8007bc2:	681b      	ldr	r3, [r3, #0]
 8007bc4:	f003 4300 	and.w	r3, r3, #2147483648	; 0x80000000
 8007bc8:	f1b3 4f00 	cmp.w	r3, #2147483648	; 0x80000000
 8007bcc:	d0e7      	beq.n	8007b9e <USB_EPStopXfer+0x82>
 8007bce:	e048      	b.n	8007c62 <USB_EPStopXfer+0x146>
 8007bd0:	683b      	ldr	r3, [r7, #0]
 8007bd2:	781b      	ldrb	r3, [r3, #0]
 8007bd4:	015a      	lsls	r2, r3, #5
 8007bd6:	693b      	ldr	r3, [r7, #16]
 8007bd8:	4413      	add	r3, r2
 8007bda:	f503 6330 	add.w	r3, r3, #2816	; 0xb00
 8007bde:	681b      	ldr	r3, [r3, #0]
 8007be0:	f003 4300 	and.w	r3, r3, #2147483648	; 0x80000000
 8007be4:	f1b3 4f00 	cmp.w	r3, #2147483648	; 0x80000000
 8007be8:	d13b      	bne.n	8007c62 <USB_EPStopXfer+0x146>
 8007bea:	683b      	ldr	r3, [r7, #0]
 8007bec:	781b      	ldrb	r3, [r3, #0]
 8007bee:	015a      	lsls	r2, r3, #5
 8007bf0:	693b      	ldr	r3, [r7, #16]
 8007bf2:	4413      	add	r3, r2
 8007bf4:	f503 6330 	add.w	r3, r3, #2816	; 0xb00
 8007bf8:	681b      	ldr	r3, [r3, #0]
 8007bfa:	683a      	ldr	r2, [r7, #0]
 8007bfc:	7812      	ldrb	r2, [r2, #0]
 8007bfe:	0151      	lsls	r1, r2, #5
 8007c00:	693a      	ldr	r2, [r7, #16]
 8007c02:	440a      	add	r2, r1
 8007c04:	f502 6230 	add.w	r2, r2, #2816	; 0xb00
 8007c08:	f043 6300 	orr.w	r3, r3, #134217728	; 0x8000000
 8007c0c:	6013      	str	r3, [r2, #0]
 8007c0e:	683b      	ldr	r3, [r7, #0]
 8007c10:	781b      	ldrb	r3, [r3, #0]
 8007c12:	015a      	lsls	r2, r3, #5
 8007c14:	693b      	ldr	r3, [r7, #16]
 8007c16:	4413      	add	r3, r2
 8007c18:	f503 6330 	add.w	r3, r3, #2816	; 0xb00
 8007c1c:	681b      	ldr	r3, [r3, #0]
 8007c1e:	683a      	ldr	r2, [r7, #0]
 8007c20:	7812      	ldrb	r2, [r2, #0]
 8007c22:	0151      	lsls	r1, r2, #5
 8007c24:	693a      	ldr	r2, [r7, #16]
 8007c26:	440a      	add	r2, r1
 8007c28:	f502 6230 	add.w	r2, r2, #2816	; 0xb00
 8007c2c:	f043 4380 	orr.w	r3, r3, #1073741824	; 0x40000000
 8007c30:	6013      	str	r3, [r2, #0]
 8007c32:	68fb      	ldr	r3, [r7, #12]
 8007c34:	3301      	adds	r3, #1
 8007c36:	60fb      	str	r3, [r7, #12]
 8007c38:	68fb      	ldr	r3, [r7, #12]
 8007c3a:	f242 7210 	movw	r2, #10000	; 0x2710
 8007c3e:	4293      	cmp	r3, r2
 8007c40:	d902      	bls.n	8007c48 <USB_EPStopXfer+0x12c>
 8007c42:	2301      	movs	r3, #1
 8007c44:	75fb      	strb	r3, [r7, #23]
 8007c46:	e00c      	b.n	8007c62 <USB_EPStopXfer+0x146>
 8007c48:	683b      	ldr	r3, [r7, #0]
 8007c4a:	781b      	ldrb	r3, [r3, #0]
 8007c4c:	015a      	lsls	r2, r3, #5
 8007c4e:	693b      	ldr	r3, [r7, #16]
 8007c50:	4413      	add	r3, r2
 8007c52:	f503 6330 	add.w	r3, r3, #2816	; 0xb00
 8007c56:	681b      	ldr	r3, [r3, #0]
 8007c58:	f003 4300 	and.w	r3, r3, #2147483648	; 0x80000000
 8007c5c:	f1b3 4f00 	cmp.w	r3, #2147483648	; 0x80000000
 8007c60:	d0e7      	beq.n	8007c32 <USB_EPStopXfer+0x116>
 8007c62:	7dfb      	ldrb	r3, [r7, #23]
 8007c64:	4618      	mov	r0, r3
 8007c66:	371c      	adds	r7, #28
 8007c68:	46bd      	mov	sp, r7
 8007c6a:	f85d 7b04 	ldr.w	r7, [sp], #4
 8007c6e:	4770      	bx	lr

08007c70 <USB_WritePacket>:
 8007c70:	b480      	push	{r7}
 8007c72:	b089      	sub	sp, #36	; 0x24
 8007c74:	af00      	add	r7, sp, #0
 8007c76:	60f8      	str	r0, [r7, #12]
 8007c78:	60b9      	str	r1, [r7, #8]
 8007c7a:	4611      	mov	r1, r2
 8007c7c:	461a      	mov	r2, r3
 8007c7e:	460b      	mov	r3, r1
 8007c80:	71fb      	strb	r3, [r7, #7]
 8007c82:	4613      	mov	r3, r2
 8007c84:	80bb      	strh	r3, [r7, #4]
 8007c86:	68fb      	ldr	r3, [r7, #12]
 8007c88:	617b      	str	r3, [r7, #20]
 8007c8a:	68bb      	ldr	r3, [r7, #8]
 8007c8c:	61fb      	str	r3, [r7, #28]
 8007c8e:	f897 3028 	ldrb.w	r3, [r7, #40]	; 0x28
 8007c92:	2b00      	cmp	r3, #0
 8007c94:	d123      	bne.n	8007cde <USB_WritePacket+0x6e>
 8007c96:	88bb      	ldrh	r3, [r7, #4]
 8007c98:	3303      	adds	r3, #3
 8007c9a:	089b      	lsrs	r3, r3, #2
 8007c9c:	613b      	str	r3, [r7, #16]
 8007c9e:	2300      	movs	r3, #0
 8007ca0:	61bb      	str	r3, [r7, #24]
 8007ca2:	e018      	b.n	8007cd6 <USB_WritePacket+0x66>
 8007ca4:	79fb      	ldrb	r3, [r7, #7]
 8007ca6:	031a      	lsls	r2, r3, #12
 8007ca8:	697b      	ldr	r3, [r7, #20]
 8007caa:	4413      	add	r3, r2
 8007cac:	f503 5380 	add.w	r3, r3, #4096	; 0x1000
 8007cb0:	461a      	mov	r2, r3
 8007cb2:	69fb      	ldr	r3, [r7, #28]
 8007cb4:	681b      	ldr	r3, [r3, #0]
 8007cb6:	6013      	str	r3, [r2, #0]
 8007cb8:	69fb      	ldr	r3, [r7, #28]
 8007cba:	3301      	adds	r3, #1
 8007cbc:	61fb      	str	r3, [r7, #28]
 8007cbe:	69fb      	ldr	r3, [r7, #28]
 8007cc0:	3301      	adds	r3, #1
 8007cc2:	61fb      	str	r3, [r7, #28]
 8007cc4:	69fb      	ldr	r3, [r7, #28]
 8007cc6:	3301      	adds	r3, #1
 8007cc8:	61fb      	str	r3, [r7, #28]
 8007cca:	69fb      	ldr	r3, [r7, #28]
 8007ccc:	3301      	adds	r3, #1
 8007cce:	61fb      	str	r3, [r7, #28]
 8007cd0:	69bb      	ldr	r3, [r7, #24]
 8007cd2:	3301      	adds	r3, #1
 8007cd4:	61bb      	str	r3, [r7, #24]
 8007cd6:	69ba      	ldr	r2, [r7, #24]
 8007cd8:	693b      	ldr	r3, [r7, #16]
 8007cda:	429a      	cmp	r2, r3
 8007cdc:	d3e2      	bcc.n	8007ca4 <USB_WritePacket+0x34>
 8007cde:	2300      	movs	r3, #0
 8007ce0:	4618      	mov	r0, r3
 8007ce2:	3724      	adds	r7, #36	; 0x24
 8007ce4:	46bd      	mov	sp, r7
 8007ce6:	f85d 7b04 	ldr.w	r7, [sp], #4
 8007cea:	4770      	bx	lr

08007cec <USB_ReadPacket>:
 8007cec:	b480      	push	{r7}
 8007cee:	b08b      	sub	sp, #44	; 0x2c
 8007cf0:	af00      	add	r7, sp, #0
 8007cf2:	60f8      	str	r0, [r7, #12]
 8007cf4:	60b9      	str	r1, [r7, #8]
 8007cf6:	4613      	mov	r3, r2
 8007cf8:	80fb      	strh	r3, [r7, #6]
 8007cfa:	68fb      	ldr	r3, [r7, #12]
 8007cfc:	61bb      	str	r3, [r7, #24]
 8007cfe:	68bb      	ldr	r3, [r7, #8]
 8007d00:	627b      	str	r3, [r7, #36]	; 0x24
 8007d02:	88fb      	ldrh	r3, [r7, #6]
 8007d04:	089b      	lsrs	r3, r3, #2
 8007d06:	b29b      	uxth	r3, r3
 8007d08:	617b      	str	r3, [r7, #20]
 8007d0a:	88fb      	ldrh	r3, [r7, #6]
 8007d0c:	f003 0303 	and.w	r3, r3, #3
 8007d10:	83fb      	strh	r3, [r7, #30]
 8007d12:	2300      	movs	r3, #0
 8007d14:	623b      	str	r3, [r7, #32]
 8007d16:	e014      	b.n	8007d42 <USB_ReadPacket+0x56>
 8007d18:	69bb      	ldr	r3, [r7, #24]
 8007d1a:	f503 5380 	add.w	r3, r3, #4096	; 0x1000
 8007d1e:	681a      	ldr	r2, [r3, #0]
 8007d20:	6a7b      	ldr	r3, [r7, #36]	; 0x24
 8007d22:	601a      	str	r2, [r3, #0]
 8007d24:	6a7b      	ldr	r3, [r7, #36]	; 0x24
 8007d26:	3301      	adds	r3, #1
 8007d28:	627b      	str	r3, [r7, #36]	; 0x24
 8007d2a:	6a7b      	ldr	r3, [r7, #36]	; 0x24
 8007d2c:	3301      	adds	r3, #1
 8007d2e:	627b      	str	r3, [r7, #36]	; 0x24
 8007d30:	6a7b      	ldr	r3, [r7, #36]	; 0x24
 8007d32:	3301      	adds	r3, #1
 8007d34:	627b      	str	r3, [r7, #36]	; 0x24
 8007d36:	6a7b      	ldr	r3, [r7, #36]	; 0x24
 8007d38:	3301      	adds	r3, #1
 8007d3a:	627b      	str	r3, [r7, #36]	; 0x24
 8007d3c:	6a3b      	ldr	r3, [r7, #32]
 8007d3e:	3301      	adds	r3, #1
 8007d40:	623b      	str	r3, [r7, #32]
 8007d42:	6a3a      	ldr	r2, [r7, #32]
 8007d44:	697b      	ldr	r3, [r7, #20]
 8007d46:	429a      	cmp	r2, r3
 8007d48:	d3e6      	bcc.n	8007d18 <USB_ReadPacket+0x2c>
 8007d4a:	8bfb      	ldrh	r3, [r7, #30]
 8007d4c:	2b00      	cmp	r3, #0
 8007d4e:	d01e      	beq.n	8007d8e <USB_ReadPacket+0xa2>
 8007d50:	2300      	movs	r3, #0
 8007d52:	623b      	str	r3, [r7, #32]
 8007d54:	69bb      	ldr	r3, [r7, #24]
 8007d56:	f503 5380 	add.w	r3, r3, #4096	; 0x1000
 8007d5a:	461a      	mov	r2, r3
 8007d5c:	f107 0310 	add.w	r3, r7, #16
 8007d60:	6812      	ldr	r2, [r2, #0]
 8007d62:	601a      	str	r2, [r3, #0]
 8007d64:	693a      	ldr	r2, [r7, #16]
 8007d66:	6a3b      	ldr	r3, [r7, #32]
 8007d68:	b2db      	uxtb	r3, r3
 8007d6a:	00db      	lsls	r3, r3, #3
 8007d6c:	fa22 f303 	lsr.w	r3, r2, r3
 8007d70:	b2da      	uxtb	r2, r3
 8007d72:	6a7b      	ldr	r3, [r7, #36]	; 0x24
 8007d74:	701a      	strb	r2, [r3, #0]
 8007d76:	6a3b      	ldr	r3, [r7, #32]
 8007d78:	3301      	adds	r3, #1
 8007d7a:	623b      	str	r3, [r7, #32]
 8007d7c:	6a7b      	ldr	r3, [r7, #36]	; 0x24
 8007d7e:	3301      	adds	r3, #1
 8007d80:	627b      	str	r3, [r7, #36]	; 0x24
 8007d82:	8bfb      	ldrh	r3, [r7, #30]
 8007d84:	3b01      	subs	r3, #1
 8007d86:	83fb      	strh	r3, [r7, #30]
 8007d88:	8bfb      	ldrh	r3, [r7, #30]
 8007d8a:	2b00      	cmp	r3, #0
 8007d8c:	d1ea      	bne.n	8007d64 <USB_ReadPacket+0x78>
 8007d8e:	6a7b      	ldr	r3, [r7, #36]	; 0x24
 8007d90:	4618      	mov	r0, r3
 8007d92:	372c      	adds	r7, #44	; 0x2c
 8007d94:	46bd      	mov	sp, r7
 8007d96:	f85d 7b04 	ldr.w	r7, [sp], #4
 8007d9a:	4770      	bx	lr

08007d9c <USB_EPSetStall>:
 8007d9c:	b480      	push	{r7}
 8007d9e:	b085      	sub	sp, #20
 8007da0:	af00      	add	r7, sp, #0
 8007da2:	6078      	str	r0, [r7, #4]
 8007da4:	6039      	str	r1, [r7, #0]
 8007da6:	687b      	ldr	r3, [r7, #4]
 8007da8:	60fb      	str	r3, [r7, #12]
 8007daa:	683b      	ldr	r3, [r7, #0]
 8007dac:	781b      	ldrb	r3, [r3, #0]
 8007dae:	60bb      	str	r3, [r7, #8]
 8007db0:	683b      	ldr	r3, [r7, #0]
 8007db2:	785b      	ldrb	r3, [r3, #1]
 8007db4:	2b01      	cmp	r3, #1
 8007db6:	d12c      	bne.n	8007e12 <USB_EPSetStall+0x76>
 8007db8:	68bb      	ldr	r3, [r7, #8]
 8007dba:	015a      	lsls	r2, r3, #5
 8007dbc:	68fb      	ldr	r3, [r7, #12]
 8007dbe:	4413      	add	r3, r2
 8007dc0:	f503 6310 	add.w	r3, r3, #2304	; 0x900
 8007dc4:	681b      	ldr	r3, [r3, #0]
 8007dc6:	2b00      	cmp	r3, #0
 8007dc8:	db12      	blt.n	8007df0 <USB_EPSetStall+0x54>
 8007dca:	68bb      	ldr	r3, [r7, #8]
 8007dcc:	2b00      	cmp	r3, #0
 8007dce:	d00f      	beq.n	8007df0 <USB_EPSetStall+0x54>
 8007dd0:	68bb      	ldr	r3, [r7, #8]
 8007dd2:	015a      	lsls	r2, r3, #5
 8007dd4:	68fb      	ldr	r3, [r7, #12]
 8007dd6:	4413      	add	r3, r2
 8007dd8:	f503 6310 	add.w	r3, r3, #2304	; 0x900
 8007ddc:	681b      	ldr	r3, [r3, #0]
 8007dde:	68ba      	ldr	r2, [r7, #8]
 8007de0:	0151      	lsls	r1, r2, #5
 8007de2:	68fa      	ldr	r2, [r7, #12]
 8007de4:	440a      	add	r2, r1
 8007de6:	f502 6210 	add.w	r2, r2, #2304	; 0x900
 8007dea:	f023 4380 	bic.w	r3, r3, #1073741824	; 0x40000000
 8007dee:	6013      	str	r3, [r2, #0]
 8007df0:	68bb      	ldr	r3, [r7, #8]
 8007df2:	015a      	lsls	r2, r3, #5
 8007df4:	68fb      	ldr	r3, [r7, #12]
 8007df6:	4413      	add	r3, r2
 8007df8:	f503 6310 	add.w	r3, r3, #2304	; 0x900
 8007dfc:	681b      	ldr	r3, [r3, #0]
 8007dfe:	68ba      	ldr	r2, [r7, #8]
 8007e00:	0151      	lsls	r1, r2, #5
 8007e02:	68fa      	ldr	r2, [r7, #12]
 8007e04:	440a      	add	r2, r1
 8007e06:	f502 6210 	add.w	r2, r2, #2304	; 0x900
 8007e0a:	f443 1300 	orr.w	r3, r3, #2097152	; 0x200000
 8007e0e:	6013      	str	r3, [r2, #0]
 8007e10:	e02b      	b.n	8007e6a <USB_EPSetStall+0xce>
 8007e12:	68bb      	ldr	r3, [r7, #8]
 8007e14:	015a      	lsls	r2, r3, #5
 8007e16:	68fb      	ldr	r3, [r7, #12]
 8007e18:	4413      	add	r3, r2
 8007e1a:	f503 6330 	add.w	r3, r3, #2816	; 0xb00
 8007e1e:	681b      	ldr	r3, [r3, #0]
 8007e20:	2b00      	cmp	r3, #0
 8007e22:	db12      	blt.n	8007e4a <USB_EPSetStall+0xae>
 8007e24:	68bb      	ldr	r3, [r7, #8]
 8007e26:	2b00      	cmp	r3, #0
 8007e28:	d00f      	beq.n	8007e4a <USB_EPSetStall+0xae>
 8007e2a:	68bb      	ldr	r3, [r7, #8]
 8007e2c:	015a      	lsls	r2, r3, #5
 8007e2e:	68fb      	ldr	r3, [r7, #12]
 8007e30:	4413      	add	r3, r2
 8007e32:	f503 6330 	add.w	r3, r3, #2816	; 0xb00
 8007e36:	681b      	ldr	r3, [r3, #0]
 8007e38:	68ba      	ldr	r2, [r7, #8]
 8007e3a:	0151      	lsls	r1, r2, #5
 8007e3c:	68fa      	ldr	r2, [r7, #12]
 8007e3e:	440a      	add	r2, r1
 8007e40:	f502 6230 	add.w	r2, r2, #2816	; 0xb00
 8007e44:	f023 4380 	bic.w	r3, r3, #1073741824	; 0x40000000
 8007e48:	6013      	str	r3, [r2, #0]
 8007e4a:	68bb      	ldr	r3, [r7, #8]
 8007e4c:	015a      	lsls	r2, r3, #5
 8007e4e:	68fb      	ldr	r3, [r7, #12]
 8007e50:	4413      	add	r3, r2
 8007e52:	f503 6330 	add.w	r3, r3, #2816	; 0xb00
 8007e56:	681b      	ldr	r3, [r3, #0]
 8007e58:	68ba      	ldr	r2, [r7, #8]
 8007e5a:	0151      	lsls	r1, r2, #5
 8007e5c:	68fa      	ldr	r2, [r7, #12]
 8007e5e:	440a      	add	r2, r1
 8007e60:	f502 6230 	add.w	r2, r2, #2816	; 0xb00
 8007e64:	f443 1300 	orr.w	r3, r3, #2097152	; 0x200000
 8007e68:	6013      	str	r3, [r2, #0]
 8007e6a:	2300      	movs	r3, #0
 8007e6c:	4618      	mov	r0, r3
 8007e6e:	3714      	adds	r7, #20
 8007e70:	46bd      	mov	sp, r7
 8007e72:	f85d 7b04 	ldr.w	r7, [sp], #4
 8007e76:	4770      	bx	lr

08007e78 <USB_EPClearStall>:
 8007e78:	b480      	push	{r7}
 8007e7a:	b085      	sub	sp, #20
 8007e7c:	af00      	add	r7, sp, #0
 8007e7e:	6078      	str	r0, [r7, #4]
 8007e80:	6039      	str	r1, [r7, #0]
 8007e82:	687b      	ldr	r3, [r7, #4]
 8007e84:	60fb      	str	r3, [r7, #12]
 8007e86:	683b      	ldr	r3, [r7, #0]
 8007e88:	781b      	ldrb	r3, [r3, #0]
 8007e8a:	60bb      	str	r3, [r7, #8]
 8007e8c:	683b      	ldr	r3, [r7, #0]
 8007e8e:	785b      	ldrb	r3, [r3, #1]
 8007e90:	2b01      	cmp	r3, #1
 8007e92:	d128      	bne.n	8007ee6 <USB_EPClearStall+0x6e>
 8007e94:	68bb      	ldr	r3, [r7, #8]
 8007e96:	015a      	lsls	r2, r3, #5
 8007e98:	68fb      	ldr	r3, [r7, #12]
 8007e9a:	4413      	add	r3, r2
 8007e9c:	f503 6310 	add.w	r3, r3, #2304	; 0x900
 8007ea0:	681b      	ldr	r3, [r3, #0]
 8007ea2:	68ba      	ldr	r2, [r7, #8]
 8007ea4:	0151      	lsls	r1, r2, #5
 8007ea6:	68fa      	ldr	r2, [r7, #12]
 8007ea8:	440a      	add	r2, r1
 8007eaa:	f502 6210 	add.w	r2, r2, #2304	; 0x900
 8007eae:	f423 1300 	bic.w	r3, r3, #2097152	; 0x200000
 8007eb2:	6013      	str	r3, [r2, #0]
 8007eb4:	683b      	ldr	r3, [r7, #0]
 8007eb6:	791b      	ldrb	r3, [r3, #4]
 8007eb8:	2b03      	cmp	r3, #3
 8007eba:	d003      	beq.n	8007ec4 <USB_EPClearStall+0x4c>
 8007ebc:	683b      	ldr	r3, [r7, #0]
 8007ebe:	791b      	ldrb	r3, [r3, #4]
 8007ec0:	2b02      	cmp	r3, #2
 8007ec2:	d138      	bne.n	8007f36 <USB_EPClearStall+0xbe>
 8007ec4:	68bb      	ldr	r3, [r7, #8]
 8007ec6:	015a      	lsls	r2, r3, #5
 8007ec8:	68fb      	ldr	r3, [r7, #12]
 8007eca:	4413      	add	r3, r2
 8007ecc:	f503 6310 	add.w	r3, r3, #2304	; 0x900
 8007ed0:	681b      	ldr	r3, [r3, #0]
 8007ed2:	68ba      	ldr	r2, [r7, #8]
 8007ed4:	0151      	lsls	r1, r2, #5
 8007ed6:	68fa      	ldr	r2, [r7, #12]
 8007ed8:	440a      	add	r2, r1
 8007eda:	f502 6210 	add.w	r2, r2, #2304	; 0x900
 8007ede:	f043 5380 	orr.w	r3, r3, #268435456	; 0x10000000
 8007ee2:	6013      	str	r3, [r2, #0]
 8007ee4:	e027      	b.n	8007f36 <USB_EPClearStall+0xbe>
 8007ee6:	68bb      	ldr	r3, [r7, #8]
 8007ee8:	015a      	lsls	r2, r3, #5
 8007eea:	68fb      	ldr	r3, [r7, #12]
 8007eec:	4413      	add	r3, r2
 8007eee:	f503 6330 	add.w	r3, r3, #2816	; 0xb00
 8007ef2:	681b      	ldr	r3, [r3, #0]
 8007ef4:	68ba      	ldr	r2, [r7, #8]
 8007ef6:	0151      	lsls	r1, r2, #5
 8007ef8:	68fa      	ldr	r2, [r7, #12]
 8007efa:	440a      	add	r2, r1
 8007efc:	f502 6230 	add.w	r2, r2, #2816	; 0xb00
 8007f00:	f423 1300 	bic.w	r3, r3, #2097152	; 0x200000
 8007f04:	6013      	str	r3, [r2, #0]
 8007f06:	683b      	ldr	r3, [r7, #0]
 8007f08:	791b      	ldrb	r3, [r3, #4]
 8007f0a:	2b03      	cmp	r3, #3
 8007f0c:	d003      	beq.n	8007f16 <USB_EPClearStall+0x9e>
 8007f0e:	683b      	ldr	r3, [r7, #0]
 8007f10:	791b      	ldrb	r3, [r3, #4]
 8007f12:	2b02      	cmp	r3, #2
 8007f14:	d10f      	bne.n	8007f36 <USB_EPClearStall+0xbe>
 8007f16:	68bb      	ldr	r3, [r7, #8]
 8007f18:	015a      	lsls	r2, r3, #5
 8007f1a:	68fb      	ldr	r3, [r7, #12]
 8007f1c:	4413      	add	r3, r2
 8007f1e:	f503 6330 	add.w	r3, r3, #2816	; 0xb00
 8007f22:	681b      	ldr	r3, [r3, #0]
 8007f24:	68ba      	ldr	r2, [r7, #8]
 8007f26:	0151      	lsls	r1, r2, #5
 8007f28:	68fa      	ldr	r2, [r7, #12]
 8007f2a:	440a      	add	r2, r1
 8007f2c:	f502 6230 	add.w	r2, r2, #2816	; 0xb00
 8007f30:	f043 5380 	orr.w	r3, r3, #268435456	; 0x10000000
 8007f34:	6013      	str	r3, [r2, #0]
 8007f36:	2300      	movs	r3, #0
 8007f38:	4618      	mov	r0, r3
 8007f3a:	3714      	adds	r7, #20
 8007f3c:	46bd      	mov	sp, r7
 8007f3e:	f85d 7b04 	ldr.w	r7, [sp], #4
 8007f42:	4770      	bx	lr

08007f44 <USB_SetDevAddress>:
 8007f44:	b480      	push	{r7}
 8007f46:	b085      	sub	sp, #20
 8007f48:	af00      	add	r7, sp, #0
 8007f4a:	6078      	str	r0, [r7, #4]
 8007f4c:	460b      	mov	r3, r1
 8007f4e:	70fb      	strb	r3, [r7, #3]
 8007f50:	687b      	ldr	r3, [r7, #4]
 8007f52:	60fb      	str	r3, [r7, #12]
 8007f54:	68fb      	ldr	r3, [r7, #12]
 8007f56:	f503 6300 	add.w	r3, r3, #2048	; 0x800
 8007f5a:	681b      	ldr	r3, [r3, #0]
 8007f5c:	68fa      	ldr	r2, [r7, #12]
 8007f5e:	f502 6200 	add.w	r2, r2, #2048	; 0x800
 8007f62:	f423 63fe 	bic.w	r3, r3, #2032	; 0x7f0
 8007f66:	6013      	str	r3, [r2, #0]
 8007f68:	68fb      	ldr	r3, [r7, #12]
 8007f6a:	f503 6300 	add.w	r3, r3, #2048	; 0x800
 8007f6e:	681a      	ldr	r2, [r3, #0]
 8007f70:	78fb      	ldrb	r3, [r7, #3]
 8007f72:	011b      	lsls	r3, r3, #4
 8007f74:	f403 63fe 	and.w	r3, r3, #2032	; 0x7f0
 8007f78:	68f9      	ldr	r1, [r7, #12]
 8007f7a:	f501 6100 	add.w	r1, r1, #2048	; 0x800
 8007f7e:	4313      	orrs	r3, r2
 8007f80:	600b      	str	r3, [r1, #0]
 8007f82:	2300      	movs	r3, #0
 8007f84:	4618      	mov	r0, r3
 8007f86:	3714      	adds	r7, #20
 8007f88:	46bd      	mov	sp, r7
 8007f8a:	f85d 7b04 	ldr.w	r7, [sp], #4
 8007f8e:	4770      	bx	lr

08007f90 <USB_DevConnect>:
 8007f90:	b480      	push	{r7}
 8007f92:	b085      	sub	sp, #20
 8007f94:	af00      	add	r7, sp, #0
 8007f96:	6078      	str	r0, [r7, #4]
 8007f98:	687b      	ldr	r3, [r7, #4]
 8007f9a:	60fb      	str	r3, [r7, #12]
 8007f9c:	68fb      	ldr	r3, [r7, #12]
 8007f9e:	f503 6360 	add.w	r3, r3, #3584	; 0xe00
 8007fa2:	681b      	ldr	r3, [r3, #0]
 8007fa4:	68fa      	ldr	r2, [r7, #12]
 8007fa6:	f502 6260 	add.w	r2, r2, #3584	; 0xe00
 8007faa:	f023 0303 	bic.w	r3, r3, #3
 8007fae:	6013      	str	r3, [r2, #0]
 8007fb0:	68fb      	ldr	r3, [r7, #12]
 8007fb2:	f503 6300 	add.w	r3, r3, #2048	; 0x800
 8007fb6:	685b      	ldr	r3, [r3, #4]
 8007fb8:	68fa      	ldr	r2, [r7, #12]
 8007fba:	f502 6200 	add.w	r2, r2, #2048	; 0x800
 8007fbe:	f023 0302 	bic.w	r3, r3, #2
 8007fc2:	6053      	str	r3, [r2, #4]
 8007fc4:	2300      	movs	r3, #0
 8007fc6:	4618      	mov	r0, r3
 8007fc8:	3714      	adds	r7, #20
 8007fca:	46bd      	mov	sp, r7
 8007fcc:	f85d 7b04 	ldr.w	r7, [sp], #4
 8007fd0:	4770      	bx	lr

08007fd2 <USB_DevDisconnect>:
 8007fd2:	b480      	push	{r7}
 8007fd4:	b085      	sub	sp, #20
 8007fd6:	af00      	add	r7, sp, #0
 8007fd8:	6078      	str	r0, [r7, #4]
 8007fda:	687b      	ldr	r3, [r7, #4]
 8007fdc:	60fb      	str	r3, [r7, #12]
 8007fde:	68fb      	ldr	r3, [r7, #12]
 8007fe0:	f503 6360 	add.w	r3, r3, #3584	; 0xe00
 8007fe4:	681b      	ldr	r3, [r3, #0]
 8007fe6:	68fa      	ldr	r2, [r7, #12]
 8007fe8:	f502 6260 	add.w	r2, r2, #3584	; 0xe00
 8007fec:	f023 0303 	bic.w	r3, r3, #3
 8007ff0:	6013      	str	r3, [r2, #0]
 8007ff2:	68fb      	ldr	r3, [r7, #12]
 8007ff4:	f503 6300 	add.w	r3, r3, #2048	; 0x800
 8007ff8:	685b      	ldr	r3, [r3, #4]
 8007ffa:	68fa      	ldr	r2, [r7, #12]
 8007ffc:	f502 6200 	add.w	r2, r2, #2048	; 0x800
 8008000:	f043 0302 	orr.w	r3, r3, #2
 8008004:	6053      	str	r3, [r2, #4]
 8008006:	2300      	movs	r3, #0
 8008008:	4618      	mov	r0, r3
 800800a:	3714      	adds	r7, #20
 800800c:	46bd      	mov	sp, r7
 800800e:	f85d 7b04 	ldr.w	r7, [sp], #4
 8008012:	4770      	bx	lr

08008014 <USB_ReadInterrupts>:
 8008014:	b480      	push	{r7}
 8008016:	b085      	sub	sp, #20
 8008018:	af00      	add	r7, sp, #0
 800801a:	6078      	str	r0, [r7, #4]
 800801c:	687b      	ldr	r3, [r7, #4]
 800801e:	695b      	ldr	r3, [r3, #20]
 8008020:	60fb      	str	r3, [r7, #12]
 8008022:	687b      	ldr	r3, [r7, #4]
 8008024:	699b      	ldr	r3, [r3, #24]
 8008026:	68fa      	ldr	r2, [r7, #12]
 8008028:	4013      	ands	r3, r2
 800802a:	60fb      	str	r3, [r7, #12]
 800802c:	68fb      	ldr	r3, [r7, #12]
 800802e:	4618      	mov	r0, r3
 8008030:	3714      	adds	r7, #20
 8008032:	46bd      	mov	sp, r7
 8008034:	f85d 7b04 	ldr.w	r7, [sp], #4
 8008038:	4770      	bx	lr

0800803a <USB_ReadDevAllOutEpInterrupt>:
 800803a:	b480      	push	{r7}
 800803c:	b085      	sub	sp, #20
 800803e:	af00      	add	r7, sp, #0
 8008040:	6078      	str	r0, [r7, #4]
 8008042:	687b      	ldr	r3, [r7, #4]
 8008044:	60fb      	str	r3, [r7, #12]
 8008046:	68fb      	ldr	r3, [r7, #12]
 8008048:	f503 6300 	add.w	r3, r3, #2048	; 0x800
 800804c:	699b      	ldr	r3, [r3, #24]
 800804e:	60bb      	str	r3, [r7, #8]
 8008050:	68fb      	ldr	r3, [r7, #12]
 8008052:	f503 6300 	add.w	r3, r3, #2048	; 0x800
 8008056:	69db      	ldr	r3, [r3, #28]
 8008058:	68ba      	ldr	r2, [r7, #8]
 800805a:	4013      	ands	r3, r2
 800805c:	60bb      	str	r3, [r7, #8]
 800805e:	68bb      	ldr	r3, [r7, #8]
 8008060:	0c1b      	lsrs	r3, r3, #16
 8008062:	4618      	mov	r0, r3
 8008064:	3714      	adds	r7, #20
 8008066:	46bd      	mov	sp, r7
 8008068:	f85d 7b04 	ldr.w	r7, [sp], #4
 800806c:	4770      	bx	lr

0800806e <USB_ReadDevAllInEpInterrupt>:
 800806e:	b480      	push	{r7}
 8008070:	b085      	sub	sp, #20
 8008072:	af00      	add	r7, sp, #0
 8008074:	6078      	str	r0, [r7, #4]
 8008076:	687b      	ldr	r3, [r7, #4]
 8008078:	60fb      	str	r3, [r7, #12]
 800807a:	68fb      	ldr	r3, [r7, #12]
 800807c:	f503 6300 	add.w	r3, r3, #2048	; 0x800
 8008080:	699b      	ldr	r3, [r3, #24]
 8008082:	60bb      	str	r3, [r7, #8]
 8008084:	68fb      	ldr	r3, [r7, #12]
 8008086:	f503 6300 	add.w	r3, r3, #2048	; 0x800
 800808a:	69db      	ldr	r3, [r3, #28]
 800808c:	68ba      	ldr	r2, [r7, #8]
 800808e:	4013      	ands	r3, r2
 8008090:	60bb      	str	r3, [r7, #8]
 8008092:	68bb      	ldr	r3, [r7, #8]
 8008094:	b29b      	uxth	r3, r3
 8008096:	4618      	mov	r0, r3
 8008098:	3714      	adds	r7, #20
 800809a:	46bd      	mov	sp, r7
 800809c:	f85d 7b04 	ldr.w	r7, [sp], #4
 80080a0:	4770      	bx	lr

080080a2 <USB_ReadDevOutEPInterrupt>:
 80080a2:	b480      	push	{r7}
 80080a4:	b085      	sub	sp, #20
 80080a6:	af00      	add	r7, sp, #0
 80080a8:	6078      	str	r0, [r7, #4]
 80080aa:	460b      	mov	r3, r1
 80080ac:	70fb      	strb	r3, [r7, #3]
 80080ae:	687b      	ldr	r3, [r7, #4]
 80080b0:	60fb      	str	r3, [r7, #12]
 80080b2:	78fb      	ldrb	r3, [r7, #3]
 80080b4:	015a      	lsls	r2, r3, #5
 80080b6:	68fb      	ldr	r3, [r7, #12]
 80080b8:	4413      	add	r3, r2
 80080ba:	f503 6330 	add.w	r3, r3, #2816	; 0xb00
 80080be:	689b      	ldr	r3, [r3, #8]
 80080c0:	60bb      	str	r3, [r7, #8]
 80080c2:	68fb      	ldr	r3, [r7, #12]
 80080c4:	f503 6300 	add.w	r3, r3, #2048	; 0x800
 80080c8:	695b      	ldr	r3, [r3, #20]
 80080ca:	68ba      	ldr	r2, [r7, #8]
 80080cc:	4013      	ands	r3, r2
 80080ce:	60bb      	str	r3, [r7, #8]
 80080d0:	68bb      	ldr	r3, [r7, #8]
 80080d2:	4618      	mov	r0, r3
 80080d4:	3714      	adds	r7, #20
 80080d6:	46bd      	mov	sp, r7
 80080d8:	f85d 7b04 	ldr.w	r7, [sp], #4
 80080dc:	4770      	bx	lr

080080de <USB_ReadDevInEPInterrupt>:
 80080de:	b480      	push	{r7}
 80080e0:	b087      	sub	sp, #28
 80080e2:	af00      	add	r7, sp, #0
 80080e4:	6078      	str	r0, [r7, #4]
 80080e6:	460b      	mov	r3, r1
 80080e8:	70fb      	strb	r3, [r7, #3]
 80080ea:	687b      	ldr	r3, [r7, #4]
 80080ec:	617b      	str	r3, [r7, #20]
 80080ee:	697b      	ldr	r3, [r7, #20]
 80080f0:	f503 6300 	add.w	r3, r3, #2048	; 0x800
 80080f4:	691b      	ldr	r3, [r3, #16]
 80080f6:	613b      	str	r3, [r7, #16]
 80080f8:	697b      	ldr	r3, [r7, #20]
 80080fa:	f503 6300 	add.w	r3, r3, #2048	; 0x800
 80080fe:	6b5b      	ldr	r3, [r3, #52]	; 0x34
 8008100:	60fb      	str	r3, [r7, #12]
 8008102:	78fb      	ldrb	r3, [r7, #3]
 8008104:	f003 030f 	and.w	r3, r3, #15
 8008108:	68fa      	ldr	r2, [r7, #12]
 800810a:	fa22 f303 	lsr.w	r3, r2, r3
 800810e:	01db      	lsls	r3, r3, #7
 8008110:	b2db      	uxtb	r3, r3
 8008112:	693a      	ldr	r2, [r7, #16]
 8008114:	4313      	orrs	r3, r2
 8008116:	613b      	str	r3, [r7, #16]
 8008118:	78fb      	ldrb	r3, [r7, #3]
 800811a:	015a      	lsls	r2, r3, #5
 800811c:	697b      	ldr	r3, [r7, #20]
 800811e:	4413      	add	r3, r2
 8008120:	f503 6310 	add.w	r3, r3, #2304	; 0x900
 8008124:	689b      	ldr	r3, [r3, #8]
 8008126:	693a      	ldr	r2, [r7, #16]
 8008128:	4013      	ands	r3, r2
 800812a:	60bb      	str	r3, [r7, #8]
 800812c:	68bb      	ldr	r3, [r7, #8]
 800812e:	4618      	mov	r0, r3
 8008130:	371c      	adds	r7, #28
 8008132:	46bd      	mov	sp, r7
 8008134:	f85d 7b04 	ldr.w	r7, [sp], #4
 8008138:	4770      	bx	lr

0800813a <USB_GetMode>:
 800813a:	b480      	push	{r7}
 800813c:	b083      	sub	sp, #12
 800813e:	af00      	add	r7, sp, #0
 8008140:	6078      	str	r0, [r7, #4]
 8008142:	687b      	ldr	r3, [r7, #4]
 8008144:	695b      	ldr	r3, [r3, #20]
 8008146:	f003 0301 	and.w	r3, r3, #1
 800814a:	4618      	mov	r0, r3
 800814c:	370c      	adds	r7, #12
 800814e:	46bd      	mov	sp, r7
 8008150:	f85d 7b04 	ldr.w	r7, [sp], #4
 8008154:	4770      	bx	lr

08008156 <USB_ActivateSetup>:
 8008156:	b480      	push	{r7}
 8008158:	b085      	sub	sp, #20
 800815a:	af00      	add	r7, sp, #0
 800815c:	6078      	str	r0, [r7, #4]
 800815e:	687b      	ldr	r3, [r7, #4]
 8008160:	60fb      	str	r3, [r7, #12]
 8008162:	68fb      	ldr	r3, [r7, #12]
 8008164:	f503 6310 	add.w	r3, r3, #2304	; 0x900
 8008168:	681b      	ldr	r3, [r3, #0]
 800816a:	68fa      	ldr	r2, [r7, #12]
 800816c:	f502 6210 	add.w	r2, r2, #2304	; 0x900
 8008170:	f423 63ff 	bic.w	r3, r3, #2040	; 0x7f8
 8008174:	f023 0307 	bic.w	r3, r3, #7
 8008178:	6013      	str	r3, [r2, #0]
 800817a:	68fb      	ldr	r3, [r7, #12]
 800817c:	f503 6300 	add.w	r3, r3, #2048	; 0x800
 8008180:	685b      	ldr	r3, [r3, #4]
 8008182:	68fa      	ldr	r2, [r7, #12]
 8008184:	f502 6200 	add.w	r2, r2, #2048	; 0x800
 8008188:	f443 7380 	orr.w	r3, r3, #256	; 0x100
 800818c:	6053      	str	r3, [r2, #4]
 800818e:	2300      	movs	r3, #0
 8008190:	4618      	mov	r0, r3
 8008192:	3714      	adds	r7, #20
 8008194:	46bd      	mov	sp, r7
 8008196:	f85d 7b04 	ldr.w	r7, [sp], #4
 800819a:	4770      	bx	lr

0800819c <USB_EP0_OutStart>:
 800819c:	b480      	push	{r7}
 800819e:	b087      	sub	sp, #28
 80081a0:	af00      	add	r7, sp, #0
 80081a2:	60f8      	str	r0, [r7, #12]
 80081a4:	460b      	mov	r3, r1
 80081a6:	607a      	str	r2, [r7, #4]
 80081a8:	72fb      	strb	r3, [r7, #11]
 80081aa:	68fb      	ldr	r3, [r7, #12]
 80081ac:	617b      	str	r3, [r7, #20]
 80081ae:	68fb      	ldr	r3, [r7, #12]
 80081b0:	333c      	adds	r3, #60	; 0x3c
 80081b2:	3304      	adds	r3, #4
 80081b4:	681b      	ldr	r3, [r3, #0]
 80081b6:	613b      	str	r3, [r7, #16]
 80081b8:	693b      	ldr	r3, [r7, #16]
 80081ba:	4a26      	ldr	r2, [pc, #152]	; (8008254 <USB_EP0_OutStart+0xb8>)
 80081bc:	4293      	cmp	r3, r2
 80081be:	d90a      	bls.n	80081d6 <USB_EP0_OutStart+0x3a>
 80081c0:	697b      	ldr	r3, [r7, #20]
 80081c2:	f503 6330 	add.w	r3, r3, #2816	; 0xb00
 80081c6:	681b      	ldr	r3, [r3, #0]
 80081c8:	f003 4300 	and.w	r3, r3, #2147483648	; 0x80000000
 80081cc:	f1b3 4f00 	cmp.w	r3, #2147483648	; 0x80000000
 80081d0:	d101      	bne.n	80081d6 <USB_EP0_OutStart+0x3a>
 80081d2:	2300      	movs	r3, #0
 80081d4:	e037      	b.n	8008246 <USB_EP0_OutStart+0xaa>
 80081d6:	697b      	ldr	r3, [r7, #20]
 80081d8:	f503 6330 	add.w	r3, r3, #2816	; 0xb00
 80081dc:	461a      	mov	r2, r3
 80081de:	2300      	movs	r3, #0
 80081e0:	6113      	str	r3, [r2, #16]
 80081e2:	697b      	ldr	r3, [r7, #20]
 80081e4:	f503 6330 	add.w	r3, r3, #2816	; 0xb00
 80081e8:	691b      	ldr	r3, [r3, #16]
 80081ea:	697a      	ldr	r2, [r7, #20]
 80081ec:	f502 6230 	add.w	r2, r2, #2816	; 0xb00
 80081f0:	f443 2300 	orr.w	r3, r3, #524288	; 0x80000
 80081f4:	6113      	str	r3, [r2, #16]
 80081f6:	697b      	ldr	r3, [r7, #20]
 80081f8:	f503 6330 	add.w	r3, r3, #2816	; 0xb00
 80081fc:	691b      	ldr	r3, [r3, #16]
 80081fe:	697a      	ldr	r2, [r7, #20]
 8008200:	f502 6230 	add.w	r2, r2, #2816	; 0xb00
 8008204:	f043 0318 	orr.w	r3, r3, #24
 8008208:	6113      	str	r3, [r2, #16]
 800820a:	697b      	ldr	r3, [r7, #20]
 800820c:	f503 6330 	add.w	r3, r3, #2816	; 0xb00
 8008210:	691b      	ldr	r3, [r3, #16]
 8008212:	697a      	ldr	r2, [r7, #20]
 8008214:	f502 6230 	add.w	r2, r2, #2816	; 0xb00
 8008218:	f043 43c0 	orr.w	r3, r3, #1610612736	; 0x60000000
 800821c:	6113      	str	r3, [r2, #16]
 800821e:	7afb      	ldrb	r3, [r7, #11]
 8008220:	2b01      	cmp	r3, #1
 8008222:	d10f      	bne.n	8008244 <USB_EP0_OutStart+0xa8>
 8008224:	697b      	ldr	r3, [r7, #20]
 8008226:	f503 6330 	add.w	r3, r3, #2816	; 0xb00
 800822a:	461a      	mov	r2, r3
 800822c:	687b      	ldr	r3, [r7, #4]
 800822e:	6153      	str	r3, [r2, #20]
 8008230:	697b      	ldr	r3, [r7, #20]
 8008232:	f503 6330 	add.w	r3, r3, #2816	; 0xb00
 8008236:	681b      	ldr	r3, [r3, #0]
 8008238:	697a      	ldr	r2, [r7, #20]
 800823a:	f502 6230 	add.w	r2, r2, #2816	; 0xb00
 800823e:	f043 2380 	orr.w	r3, r3, #2147516416	; 0x80008000
 8008242:	6013      	str	r3, [r2, #0]
 8008244:	2300      	movs	r3, #0
 8008246:	4618      	mov	r0, r3
 8008248:	371c      	adds	r7, #28
 800824a:	46bd      	mov	sp, r7
 800824c:	f85d 7b04 	ldr.w	r7, [sp], #4
 8008250:	4770      	bx	lr
 8008252:	bf00      	nop
 8008254:	4f54300a 	.word	0x4f54300a

08008258 <USB_CoreReset>:
 8008258:	b480      	push	{r7}
 800825a:	b085      	sub	sp, #20
 800825c:	af00      	add	r7, sp, #0
 800825e:	6078      	str	r0, [r7, #4]
 8008260:	2300      	movs	r3, #0
 8008262:	60fb      	str	r3, [r7, #12]
 8008264:	68fb      	ldr	r3, [r7, #12]
 8008266:	3301      	adds	r3, #1
 8008268:	60fb      	str	r3, [r7, #12]
 800826a:	68fb      	ldr	r3, [r7, #12]
 800826c:	f1b3 6f70 	cmp.w	r3, #251658240	; 0xf000000
 8008270:	d901      	bls.n	8008276 <USB_CoreReset+0x1e>
 8008272:	2303      	movs	r3, #3
 8008274:	e022      	b.n	80082bc <USB_CoreReset+0x64>
 8008276:	687b      	ldr	r3, [r7, #4]
 8008278:	691b      	ldr	r3, [r3, #16]
 800827a:	2b00      	cmp	r3, #0
 800827c:	daf2      	bge.n	8008264 <USB_CoreReset+0xc>
 800827e:	230a      	movs	r3, #10
 8008280:	60fb      	str	r3, [r7, #12]
 8008282:	e002      	b.n	800828a <USB_CoreReset+0x32>
 8008284:	68fb      	ldr	r3, [r7, #12]
 8008286:	3b01      	subs	r3, #1
 8008288:	60fb      	str	r3, [r7, #12]
 800828a:	68fb      	ldr	r3, [r7, #12]
 800828c:	2b00      	cmp	r3, #0
 800828e:	d1f9      	bne.n	8008284 <USB_CoreReset+0x2c>
 8008290:	687b      	ldr	r3, [r7, #4]
 8008292:	691b      	ldr	r3, [r3, #16]
 8008294:	f043 0201 	orr.w	r2, r3, #1
 8008298:	687b      	ldr	r3, [r7, #4]
 800829a:	611a      	str	r2, [r3, #16]
 800829c:	68fb      	ldr	r3, [r7, #12]
 800829e:	3301      	adds	r3, #1
 80082a0:	60fb      	str	r3, [r7, #12]
 80082a2:	68fb      	ldr	r3, [r7, #12]
 80082a4:	f1b3 6f70 	cmp.w	r3, #251658240	; 0xf000000
 80082a8:	d901      	bls.n	80082ae <USB_CoreReset+0x56>
 80082aa:	2303      	movs	r3, #3
 80082ac:	e006      	b.n	80082bc <USB_CoreReset+0x64>
 80082ae:	687b      	ldr	r3, [r7, #4]
 80082b0:	691b      	ldr	r3, [r3, #16]
 80082b2:	f003 0301 	and.w	r3, r3, #1
 80082b6:	2b01      	cmp	r3, #1
 80082b8:	d0f0      	beq.n	800829c <USB_CoreReset+0x44>
 80082ba:	2300      	movs	r3, #0
 80082bc:	4618      	mov	r0, r3
 80082be:	3714      	adds	r7, #20
 80082c0:	46bd      	mov	sp, r7
 80082c2:	f85d 7b04 	ldr.w	r7, [sp], #4
 80082c6:	4770      	bx	lr

080082c8 <USBD_CDC_Init>:
 80082c8:	b580      	push	{r7, lr}
 80082ca:	b084      	sub	sp, #16
 80082cc:	af00      	add	r7, sp, #0
 80082ce:	6078      	str	r0, [r7, #4]
 80082d0:	460b      	mov	r3, r1
 80082d2:	70fb      	strb	r3, [r7, #3]
 80082d4:	f44f 7007 	mov.w	r0, #540	; 0x21c
 80082d8:	f002 fd22 	bl	800ad20 <USBD_static_malloc>
 80082dc:	60f8      	str	r0, [r7, #12]
 80082de:	68fb      	ldr	r3, [r7, #12]
 80082e0:	2b00      	cmp	r3, #0
 80082e2:	d109      	bne.n	80082f8 <USBD_CDC_Init+0x30>
 80082e4:	687b      	ldr	r3, [r7, #4]
 80082e6:	f8d3 22d4 	ldr.w	r2, [r3, #724]	; 0x2d4
 80082ea:	687b      	ldr	r3, [r7, #4]
 80082ec:	32b0      	adds	r2, #176	; 0xb0
 80082ee:	2100      	movs	r1, #0
 80082f0:	f843 1022 	str.w	r1, [r3, r2, lsl #2]
 80082f4:	2302      	movs	r3, #2
 80082f6:	e0d4      	b.n	80084a2 <USBD_CDC_Init+0x1da>
 80082f8:	f44f 7207 	mov.w	r2, #540	; 0x21c
 80082fc:	2100      	movs	r1, #0
 80082fe:	68f8      	ldr	r0, [r7, #12]
 8008300:	f002 fd52 	bl	800ada8 <memset>
 8008304:	687b      	ldr	r3, [r7, #4]
 8008306:	f8d3 22d4 	ldr.w	r2, [r3, #724]	; 0x2d4
 800830a:	687b      	ldr	r3, [r7, #4]
 800830c:	32b0      	adds	r2, #176	; 0xb0
 800830e:	68f9      	ldr	r1, [r7, #12]
 8008310:	f843 1022 	str.w	r1, [r3, r2, lsl #2]
 8008314:	687b      	ldr	r3, [r7, #4]
 8008316:	f8d3 22d4 	ldr.w	r2, [r3, #724]	; 0x2d4
 800831a:	687b      	ldr	r3, [r7, #4]
 800831c:	32b0      	adds	r2, #176	; 0xb0
 800831e:	f853 2022 	ldr.w	r2, [r3, r2, lsl #2]
 8008322:	687b      	ldr	r3, [r7, #4]
 8008324:	f8c3 22bc 	str.w	r2, [r3, #700]	; 0x2bc
 8008328:	687b      	ldr	r3, [r7, #4]
 800832a:	7c1b      	ldrb	r3, [r3, #16]
 800832c:	2b00      	cmp	r3, #0
 800832e:	d138      	bne.n	80083a2 <USBD_CDC_Init+0xda>
 8008330:	4b5e      	ldr	r3, [pc, #376]	; (80084ac <USBD_CDC_Init+0x1e4>)
 8008332:	7819      	ldrb	r1, [r3, #0]
 8008334:	f44f 7300 	mov.w	r3, #512	; 0x200
 8008338:	2202      	movs	r2, #2
 800833a:	6878      	ldr	r0, [r7, #4]
 800833c:	f002 fbcd 	bl	800aada <USBD_LL_OpenEP>
 8008340:	4b5a      	ldr	r3, [pc, #360]	; (80084ac <USBD_CDC_Init+0x1e4>)
 8008342:	781b      	ldrb	r3, [r3, #0]
 8008344:	f003 020f 	and.w	r2, r3, #15
 8008348:	6879      	ldr	r1, [r7, #4]
 800834a:	4613      	mov	r3, r2
 800834c:	009b      	lsls	r3, r3, #2
 800834e:	4413      	add	r3, r2
 8008350:	009b      	lsls	r3, r3, #2
 8008352:	440b      	add	r3, r1
 8008354:	3323      	adds	r3, #35	; 0x23
 8008356:	2201      	movs	r2, #1
 8008358:	701a      	strb	r2, [r3, #0]
 800835a:	4b55      	ldr	r3, [pc, #340]	; (80084b0 <USBD_CDC_Init+0x1e8>)
 800835c:	7819      	ldrb	r1, [r3, #0]
 800835e:	f44f 7300 	mov.w	r3, #512	; 0x200
 8008362:	2202      	movs	r2, #2
 8008364:	6878      	ldr	r0, [r7, #4]
 8008366:	f002 fbb8 	bl	800aada <USBD_LL_OpenEP>
 800836a:	4b51      	ldr	r3, [pc, #324]	; (80084b0 <USBD_CDC_Init+0x1e8>)
 800836c:	781b      	ldrb	r3, [r3, #0]
 800836e:	f003 020f 	and.w	r2, r3, #15
 8008372:	6879      	ldr	r1, [r7, #4]
 8008374:	4613      	mov	r3, r2
 8008376:	009b      	lsls	r3, r3, #2
 8008378:	4413      	add	r3, r2
 800837a:	009b      	lsls	r3, r3, #2
 800837c:	440b      	add	r3, r1
 800837e:	f203 1363 	addw	r3, r3, #355	; 0x163
 8008382:	2201      	movs	r2, #1
 8008384:	701a      	strb	r2, [r3, #0]
 8008386:	4b4b      	ldr	r3, [pc, #300]	; (80084b4 <USBD_CDC_Init+0x1ec>)
 8008388:	781b      	ldrb	r3, [r3, #0]
 800838a:	f003 020f 	and.w	r2, r3, #15
 800838e:	6879      	ldr	r1, [r7, #4]
 8008390:	4613      	mov	r3, r2
 8008392:	009b      	lsls	r3, r3, #2
 8008394:	4413      	add	r3, r2
 8008396:	009b      	lsls	r3, r3, #2
 8008398:	440b      	add	r3, r1
 800839a:	331c      	adds	r3, #28
 800839c:	2210      	movs	r2, #16
 800839e:	601a      	str	r2, [r3, #0]
 80083a0:	e035      	b.n	800840e <USBD_CDC_Init+0x146>
 80083a2:	4b42      	ldr	r3, [pc, #264]	; (80084ac <USBD_CDC_Init+0x1e4>)
 80083a4:	7819      	ldrb	r1, [r3, #0]
 80083a6:	2340      	movs	r3, #64	; 0x40
 80083a8:	2202      	movs	r2, #2
 80083aa:	6878      	ldr	r0, [r7, #4]
 80083ac:	f002 fb95 	bl	800aada <USBD_LL_OpenEP>
 80083b0:	4b3e      	ldr	r3, [pc, #248]	; (80084ac <USBD_CDC_Init+0x1e4>)
 80083b2:	781b      	ldrb	r3, [r3, #0]
 80083b4:	f003 020f 	and.w	r2, r3, #15
 80083b8:	6879      	ldr	r1, [r7, #4]
 80083ba:	4613      	mov	r3, r2
 80083bc:	009b      	lsls	r3, r3, #2
 80083be:	4413      	add	r3, r2
 80083c0:	009b      	lsls	r3, r3, #2
 80083c2:	440b      	add	r3, r1
 80083c4:	3323      	adds	r3, #35	; 0x23
 80083c6:	2201      	movs	r2, #1
 80083c8:	701a      	strb	r2, [r3, #0]
 80083ca:	4b39      	ldr	r3, [pc, #228]	; (80084b0 <USBD_CDC_Init+0x1e8>)
 80083cc:	7819      	ldrb	r1, [r3, #0]
 80083ce:	2340      	movs	r3, #64	; 0x40
 80083d0:	2202      	movs	r2, #2
 80083d2:	6878      	ldr	r0, [r7, #4]
 80083d4:	f002 fb81 	bl	800aada <USBD_LL_OpenEP>
 80083d8:	4b35      	ldr	r3, [pc, #212]	; (80084b0 <USBD_CDC_Init+0x1e8>)
 80083da:	781b      	ldrb	r3, [r3, #0]
 80083dc:	f003 020f 	and.w	r2, r3, #15
 80083e0:	6879      	ldr	r1, [r7, #4]
 80083e2:	4613      	mov	r3, r2
 80083e4:	009b      	lsls	r3, r3, #2
 80083e6:	4413      	add	r3, r2
 80083e8:	009b      	lsls	r3, r3, #2
 80083ea:	440b      	add	r3, r1
 80083ec:	f203 1363 	addw	r3, r3, #355	; 0x163
 80083f0:	2201      	movs	r2, #1
 80083f2:	701a      	strb	r2, [r3, #0]
 80083f4:	4b2f      	ldr	r3, [pc, #188]	; (80084b4 <USBD_CDC_Init+0x1ec>)
 80083f6:	781b      	ldrb	r3, [r3, #0]
 80083f8:	f003 020f 	and.w	r2, r3, #15
 80083fc:	6879      	ldr	r1, [r7, #4]
 80083fe:	4613      	mov	r3, r2
 8008400:	009b      	lsls	r3, r3, #2
 8008402:	4413      	add	r3, r2
 8008404:	009b      	lsls	r3, r3, #2
 8008406:	440b      	add	r3, r1
 8008408:	331c      	adds	r3, #28
 800840a:	2210      	movs	r2, #16
 800840c:	601a      	str	r2, [r3, #0]
 800840e:	4b29      	ldr	r3, [pc, #164]	; (80084b4 <USBD_CDC_Init+0x1ec>)
 8008410:	7819      	ldrb	r1, [r3, #0]
 8008412:	2308      	movs	r3, #8
 8008414:	2203      	movs	r2, #3
 8008416:	6878      	ldr	r0, [r7, #4]
 8008418:	f002 fb5f 	bl	800aada <USBD_LL_OpenEP>
 800841c:	4b25      	ldr	r3, [pc, #148]	; (80084b4 <USBD_CDC_Init+0x1ec>)
 800841e:	781b      	ldrb	r3, [r3, #0]
 8008420:	f003 020f 	and.w	r2, r3, #15
 8008424:	6879      	ldr	r1, [r7, #4]
 8008426:	4613      	mov	r3, r2
 8008428:	009b      	lsls	r3, r3, #2
 800842a:	4413      	add	r3, r2
 800842c:	009b      	lsls	r3, r3, #2
 800842e:	440b      	add	r3, r1
 8008430:	3323      	adds	r3, #35	; 0x23
 8008432:	2201      	movs	r2, #1
 8008434:	701a      	strb	r2, [r3, #0]
 8008436:	68fb      	ldr	r3, [r7, #12]
 8008438:	2200      	movs	r2, #0
 800843a:	f8c3 2204 	str.w	r2, [r3, #516]	; 0x204
 800843e:	687b      	ldr	r3, [r7, #4]
 8008440:	f8d3 32d4 	ldr.w	r3, [r3, #724]	; 0x2d4
 8008444:	687a      	ldr	r2, [r7, #4]
 8008446:	33b0      	adds	r3, #176	; 0xb0
 8008448:	009b      	lsls	r3, r3, #2
 800844a:	4413      	add	r3, r2
 800844c:	685b      	ldr	r3, [r3, #4]
 800844e:	681b      	ldr	r3, [r3, #0]
 8008450:	4798      	blx	r3
 8008452:	68fb      	ldr	r3, [r7, #12]
 8008454:	2200      	movs	r2, #0
 8008456:	f8c3 2214 	str.w	r2, [r3, #532]	; 0x214
 800845a:	68fb      	ldr	r3, [r7, #12]
 800845c:	2200      	movs	r2, #0
 800845e:	f8c3 2218 	str.w	r2, [r3, #536]	; 0x218
 8008462:	68fb      	ldr	r3, [r7, #12]
 8008464:	f8d3 3204 	ldr.w	r3, [r3, #516]	; 0x204
 8008468:	2b00      	cmp	r3, #0
 800846a:	d101      	bne.n	8008470 <USBD_CDC_Init+0x1a8>
 800846c:	2302      	movs	r3, #2
 800846e:	e018      	b.n	80084a2 <USBD_CDC_Init+0x1da>
 8008470:	687b      	ldr	r3, [r7, #4]
 8008472:	7c1b      	ldrb	r3, [r3, #16]
 8008474:	2b00      	cmp	r3, #0
 8008476:	d10a      	bne.n	800848e <USBD_CDC_Init+0x1c6>
 8008478:	4b0d      	ldr	r3, [pc, #52]	; (80084b0 <USBD_CDC_Init+0x1e8>)
 800847a:	7819      	ldrb	r1, [r3, #0]
 800847c:	68fb      	ldr	r3, [r7, #12]
 800847e:	f8d3 2204 	ldr.w	r2, [r3, #516]	; 0x204
 8008482:	f44f 7300 	mov.w	r3, #512	; 0x200
 8008486:	6878      	ldr	r0, [r7, #4]
 8008488:	f002 fc16 	bl	800acb8 <USBD_LL_PrepareReceive>
 800848c:	e008      	b.n	80084a0 <USBD_CDC_Init+0x1d8>
 800848e:	4b08      	ldr	r3, [pc, #32]	; (80084b0 <USBD_CDC_Init+0x1e8>)
 8008490:	7819      	ldrb	r1, [r3, #0]
 8008492:	68fb      	ldr	r3, [r7, #12]
 8008494:	f8d3 2204 	ldr.w	r2, [r3, #516]	; 0x204
 8008498:	2340      	movs	r3, #64	; 0x40
 800849a:	6878      	ldr	r0, [r7, #4]
 800849c:	f002 fc0c 	bl	800acb8 <USBD_LL_PrepareReceive>
 80084a0:	2300      	movs	r3, #0
 80084a2:	4618      	mov	r0, r3
 80084a4:	3710      	adds	r7, #16
 80084a6:	46bd      	mov	sp, r7
 80084a8:	bd80      	pop	{r7, pc}
 80084aa:	bf00      	nop
 80084ac:	20000093 	.word	0x20000093
 80084b0:	20000094 	.word	0x20000094
 80084b4:	20000095 	.word	0x20000095

080084b8 <USBD_CDC_DeInit>:
 80084b8:	b580      	push	{r7, lr}
 80084ba:	b082      	sub	sp, #8
 80084bc:	af00      	add	r7, sp, #0
 80084be:	6078      	str	r0, [r7, #4]
 80084c0:	460b      	mov	r3, r1
 80084c2:	70fb      	strb	r3, [r7, #3]
 80084c4:	4b3a      	ldr	r3, [pc, #232]	; (80085b0 <USBD_CDC_DeInit+0xf8>)
 80084c6:	781b      	ldrb	r3, [r3, #0]
 80084c8:	4619      	mov	r1, r3
 80084ca:	6878      	ldr	r0, [r7, #4]
 80084cc:	f002 fb2b 	bl	800ab26 <USBD_LL_CloseEP>
 80084d0:	4b37      	ldr	r3, [pc, #220]	; (80085b0 <USBD_CDC_DeInit+0xf8>)
 80084d2:	781b      	ldrb	r3, [r3, #0]
 80084d4:	f003 020f 	and.w	r2, r3, #15
 80084d8:	6879      	ldr	r1, [r7, #4]
 80084da:	4613      	mov	r3, r2
 80084dc:	009b      	lsls	r3, r3, #2
 80084de:	4413      	add	r3, r2
 80084e0:	009b      	lsls	r3, r3, #2
 80084e2:	440b      	add	r3, r1
 80084e4:	3323      	adds	r3, #35	; 0x23
 80084e6:	2200      	movs	r2, #0
 80084e8:	701a      	strb	r2, [r3, #0]
 80084ea:	4b32      	ldr	r3, [pc, #200]	; (80085b4 <USBD_CDC_DeInit+0xfc>)
 80084ec:	781b      	ldrb	r3, [r3, #0]
 80084ee:	4619      	mov	r1, r3
 80084f0:	6878      	ldr	r0, [r7, #4]
 80084f2:	f002 fb18 	bl	800ab26 <USBD_LL_CloseEP>
 80084f6:	4b2f      	ldr	r3, [pc, #188]	; (80085b4 <USBD_CDC_DeInit+0xfc>)
 80084f8:	781b      	ldrb	r3, [r3, #0]
 80084fa:	f003 020f 	and.w	r2, r3, #15
 80084fe:	6879      	ldr	r1, [r7, #4]
 8008500:	4613      	mov	r3, r2
 8008502:	009b      	lsls	r3, r3, #2
 8008504:	4413      	add	r3, r2
 8008506:	009b      	lsls	r3, r3, #2
 8008508:	440b      	add	r3, r1
 800850a:	f203 1363 	addw	r3, r3, #355	; 0x163
 800850e:	2200      	movs	r2, #0
 8008510:	701a      	strb	r2, [r3, #0]
 8008512:	4b29      	ldr	r3, [pc, #164]	; (80085b8 <USBD_CDC_DeInit+0x100>)
 8008514:	781b      	ldrb	r3, [r3, #0]
 8008516:	4619      	mov	r1, r3
 8008518:	6878      	ldr	r0, [r7, #4]
 800851a:	f002 fb04 	bl	800ab26 <USBD_LL_CloseEP>
 800851e:	4b26      	ldr	r3, [pc, #152]	; (80085b8 <USBD_CDC_DeInit+0x100>)
 8008520:	781b      	ldrb	r3, [r3, #0]
 8008522:	f003 020f 	and.w	r2, r3, #15
 8008526:	6879      	ldr	r1, [r7, #4]
 8008528:	4613      	mov	r3, r2
 800852a:	009b      	lsls	r3, r3, #2
 800852c:	4413      	add	r3, r2
 800852e:	009b      	lsls	r3, r3, #2
 8008530:	440b      	add	r3, r1
 8008532:	3323      	adds	r3, #35	; 0x23
 8008534:	2200      	movs	r2, #0
 8008536:	701a      	strb	r2, [r3, #0]
 8008538:	4b1f      	ldr	r3, [pc, #124]	; (80085b8 <USBD_CDC_DeInit+0x100>)
 800853a:	781b      	ldrb	r3, [r3, #0]
 800853c:	f003 020f 	and.w	r2, r3, #15
 8008540:	6879      	ldr	r1, [r7, #4]
 8008542:	4613      	mov	r3, r2
 8008544:	009b      	lsls	r3, r3, #2
 8008546:	4413      	add	r3, r2
 8008548:	009b      	lsls	r3, r3, #2
 800854a:	440b      	add	r3, r1
 800854c:	331c      	adds	r3, #28
 800854e:	2200      	movs	r2, #0
 8008550:	601a      	str	r2, [r3, #0]
 8008552:	687b      	ldr	r3, [r7, #4]
 8008554:	f8d3 22d4 	ldr.w	r2, [r3, #724]	; 0x2d4
 8008558:	687b      	ldr	r3, [r7, #4]
 800855a:	32b0      	adds	r2, #176	; 0xb0
 800855c:	f853 3022 	ldr.w	r3, [r3, r2, lsl #2]
 8008560:	2b00      	cmp	r3, #0
 8008562:	d01f      	beq.n	80085a4 <USBD_CDC_DeInit+0xec>
 8008564:	687b      	ldr	r3, [r7, #4]
 8008566:	f8d3 32d4 	ldr.w	r3, [r3, #724]	; 0x2d4
 800856a:	687a      	ldr	r2, [r7, #4]
 800856c:	33b0      	adds	r3, #176	; 0xb0
 800856e:	009b      	lsls	r3, r3, #2
 8008570:	4413      	add	r3, r2
 8008572:	685b      	ldr	r3, [r3, #4]
 8008574:	685b      	ldr	r3, [r3, #4]
 8008576:	4798      	blx	r3
 8008578:	687b      	ldr	r3, [r7, #4]
 800857a:	f8d3 22d4 	ldr.w	r2, [r3, #724]	; 0x2d4
 800857e:	687b      	ldr	r3, [r7, #4]
 8008580:	32b0      	adds	r2, #176	; 0xb0
 8008582:	f853 3022 	ldr.w	r3, [r3, r2, lsl #2]
 8008586:	4618      	mov	r0, r3
 8008588:	f002 fbd8 	bl	800ad3c <USBD_static_free>
 800858c:	687b      	ldr	r3, [r7, #4]
 800858e:	f8d3 22d4 	ldr.w	r2, [r3, #724]	; 0x2d4
 8008592:	687b      	ldr	r3, [r7, #4]
 8008594:	32b0      	adds	r2, #176	; 0xb0
 8008596:	2100      	movs	r1, #0
 8008598:	f843 1022 	str.w	r1, [r3, r2, lsl #2]
 800859c:	687b      	ldr	r3, [r7, #4]
 800859e:	2200      	movs	r2, #0
 80085a0:	f8c3 22bc 	str.w	r2, [r3, #700]	; 0x2bc
 80085a4:	2300      	movs	r3, #0
 80085a6:	4618      	mov	r0, r3
 80085a8:	3708      	adds	r7, #8
 80085aa:	46bd      	mov	sp, r7
 80085ac:	bd80      	pop	{r7, pc}
 80085ae:	bf00      	nop
 80085b0:	20000093 	.word	0x20000093
 80085b4:	20000094 	.word	0x20000094
 80085b8:	20000095 	.word	0x20000095

080085bc <USBD_CDC_Setup>:
 80085bc:	b580      	push	{r7, lr}
 80085be:	b086      	sub	sp, #24
 80085c0:	af00      	add	r7, sp, #0
 80085c2:	6078      	str	r0, [r7, #4]
 80085c4:	6039      	str	r1, [r7, #0]
 80085c6:	687b      	ldr	r3, [r7, #4]
 80085c8:	f8d3 22d4 	ldr.w	r2, [r3, #724]	; 0x2d4
 80085cc:	687b      	ldr	r3, [r7, #4]
 80085ce:	32b0      	adds	r2, #176	; 0xb0
 80085d0:	f853 3022 	ldr.w	r3, [r3, r2, lsl #2]
 80085d4:	613b      	str	r3, [r7, #16]
 80085d6:	2300      	movs	r3, #0
 80085d8:	737b      	strb	r3, [r7, #13]
 80085da:	2300      	movs	r3, #0
 80085dc:	817b      	strh	r3, [r7, #10]
 80085de:	2300      	movs	r3, #0
 80085e0:	75fb      	strb	r3, [r7, #23]
 80085e2:	693b      	ldr	r3, [r7, #16]
 80085e4:	2b00      	cmp	r3, #0
 80085e6:	d101      	bne.n	80085ec <USBD_CDC_Setup+0x30>
 80085e8:	2303      	movs	r3, #3
 80085ea:	e0bf      	b.n	800876c <USBD_CDC_Setup+0x1b0>
 80085ec:	683b      	ldr	r3, [r7, #0]
 80085ee:	781b      	ldrb	r3, [r3, #0]
 80085f0:	f003 0360 	and.w	r3, r3, #96	; 0x60
 80085f4:	2b00      	cmp	r3, #0
 80085f6:	d050      	beq.n	800869a <USBD_CDC_Setup+0xde>
 80085f8:	2b20      	cmp	r3, #32
 80085fa:	f040 80af 	bne.w	800875c <USBD_CDC_Setup+0x1a0>
 80085fe:	683b      	ldr	r3, [r7, #0]
 8008600:	88db      	ldrh	r3, [r3, #6]
 8008602:	2b00      	cmp	r3, #0
 8008604:	d03a      	beq.n	800867c <USBD_CDC_Setup+0xc0>
 8008606:	683b      	ldr	r3, [r7, #0]
 8008608:	781b      	ldrb	r3, [r3, #0]
 800860a:	b25b      	sxtb	r3, r3
 800860c:	2b00      	cmp	r3, #0
 800860e:	da1b      	bge.n	8008648 <USBD_CDC_Setup+0x8c>
 8008610:	687b      	ldr	r3, [r7, #4]
 8008612:	f8d3 32d4 	ldr.w	r3, [r3, #724]	; 0x2d4
 8008616:	687a      	ldr	r2, [r7, #4]
 8008618:	33b0      	adds	r3, #176	; 0xb0
 800861a:	009b      	lsls	r3, r3, #2
 800861c:	4413      	add	r3, r2
 800861e:	685b      	ldr	r3, [r3, #4]
 8008620:	689b      	ldr	r3, [r3, #8]
 8008622:	683a      	ldr	r2, [r7, #0]
 8008624:	7850      	ldrb	r0, [r2, #1]
 8008626:	6939      	ldr	r1, [r7, #16]
 8008628:	683a      	ldr	r2, [r7, #0]
 800862a:	88d2      	ldrh	r2, [r2, #6]
 800862c:	4798      	blx	r3
 800862e:	683b      	ldr	r3, [r7, #0]
 8008630:	88db      	ldrh	r3, [r3, #6]
 8008632:	2b07      	cmp	r3, #7
 8008634:	bf28      	it	cs
 8008636:	2307      	movcs	r3, #7
 8008638:	81fb      	strh	r3, [r7, #14]
 800863a:	693b      	ldr	r3, [r7, #16]
 800863c:	89fa      	ldrh	r2, [r7, #14]
 800863e:	4619      	mov	r1, r3
 8008640:	6878      	ldr	r0, [r7, #4]
 8008642:	f001 fdab 	bl	800a19c <USBD_CtlSendData>
 8008646:	e090      	b.n	800876a <USBD_CDC_Setup+0x1ae>
 8008648:	683b      	ldr	r3, [r7, #0]
 800864a:	785a      	ldrb	r2, [r3, #1]
 800864c:	693b      	ldr	r3, [r7, #16]
 800864e:	f883 2200 	strb.w	r2, [r3, #512]	; 0x200
 8008652:	683b      	ldr	r3, [r7, #0]
 8008654:	88db      	ldrh	r3, [r3, #6]
 8008656:	2b3f      	cmp	r3, #63	; 0x3f
 8008658:	d803      	bhi.n	8008662 <USBD_CDC_Setup+0xa6>
 800865a:	683b      	ldr	r3, [r7, #0]
 800865c:	88db      	ldrh	r3, [r3, #6]
 800865e:	b2da      	uxtb	r2, r3
 8008660:	e000      	b.n	8008664 <USBD_CDC_Setup+0xa8>
 8008662:	2240      	movs	r2, #64	; 0x40
 8008664:	693b      	ldr	r3, [r7, #16]
 8008666:	f883 2201 	strb.w	r2, [r3, #513]	; 0x201
 800866a:	6939      	ldr	r1, [r7, #16]
 800866c:	693b      	ldr	r3, [r7, #16]
 800866e:	f893 3201 	ldrb.w	r3, [r3, #513]	; 0x201
 8008672:	461a      	mov	r2, r3
 8008674:	6878      	ldr	r0, [r7, #4]
 8008676:	f001 fdc0 	bl	800a1fa <USBD_CtlPrepareRx>
 800867a:	e076      	b.n	800876a <USBD_CDC_Setup+0x1ae>
 800867c:	687b      	ldr	r3, [r7, #4]
 800867e:	f8d3 32d4 	ldr.w	r3, [r3, #724]	; 0x2d4
 8008682:	687a      	ldr	r2, [r7, #4]
 8008684:	33b0      	adds	r3, #176	; 0xb0
 8008686:	009b      	lsls	r3, r3, #2
 8008688:	4413      	add	r3, r2
 800868a:	685b      	ldr	r3, [r3, #4]
 800868c:	689b      	ldr	r3, [r3, #8]
 800868e:	683a      	ldr	r2, [r7, #0]
 8008690:	7850      	ldrb	r0, [r2, #1]
 8008692:	2200      	movs	r2, #0
 8008694:	6839      	ldr	r1, [r7, #0]
 8008696:	4798      	blx	r3
 8008698:	e067      	b.n	800876a <USBD_CDC_Setup+0x1ae>
 800869a:	683b      	ldr	r3, [r7, #0]
 800869c:	785b      	ldrb	r3, [r3, #1]
 800869e:	2b0b      	cmp	r3, #11
 80086a0:	d851      	bhi.n	8008746 <USBD_CDC_Setup+0x18a>
 80086a2:	a201      	add	r2, pc, #4	; (adr r2, 80086a8 <USBD_CDC_Setup+0xec>)
 80086a4:	f852 f023 	ldr.w	pc, [r2, r3, lsl #2]
 80086a8:	080086d9 	.word	0x080086d9
 80086ac:	08008755 	.word	0x08008755
 80086b0:	08008747 	.word	0x08008747
 80086b4:	08008747 	.word	0x08008747
 80086b8:	08008747 	.word	0x08008747
 80086bc:	08008747 	.word	0x08008747
 80086c0:	08008747 	.word	0x08008747
 80086c4:	08008747 	.word	0x08008747
 80086c8:	08008747 	.word	0x08008747
 80086cc:	08008747 	.word	0x08008747
 80086d0:	08008703 	.word	0x08008703
 80086d4:	0800872d 	.word	0x0800872d
 80086d8:	687b      	ldr	r3, [r7, #4]
 80086da:	f893 329c 	ldrb.w	r3, [r3, #668]	; 0x29c
 80086de:	b2db      	uxtb	r3, r3
 80086e0:	2b03      	cmp	r3, #3
 80086e2:	d107      	bne.n	80086f4 <USBD_CDC_Setup+0x138>
 80086e4:	f107 030a 	add.w	r3, r7, #10
 80086e8:	2202      	movs	r2, #2
 80086ea:	4619      	mov	r1, r3
 80086ec:	6878      	ldr	r0, [r7, #4]
 80086ee:	f001 fd55 	bl	800a19c <USBD_CtlSendData>
 80086f2:	e032      	b.n	800875a <USBD_CDC_Setup+0x19e>
 80086f4:	6839      	ldr	r1, [r7, #0]
 80086f6:	6878      	ldr	r0, [r7, #4]
 80086f8:	f001 fcd3 	bl	800a0a2 <USBD_CtlError>
 80086fc:	2303      	movs	r3, #3
 80086fe:	75fb      	strb	r3, [r7, #23]
 8008700:	e02b      	b.n	800875a <USBD_CDC_Setup+0x19e>
 8008702:	687b      	ldr	r3, [r7, #4]
 8008704:	f893 329c 	ldrb.w	r3, [r3, #668]	; 0x29c
 8008708:	b2db      	uxtb	r3, r3
 800870a:	2b03      	cmp	r3, #3
 800870c:	d107      	bne.n	800871e <USBD_CDC_Setup+0x162>
 800870e:	f107 030d 	add.w	r3, r7, #13
 8008712:	2201      	movs	r2, #1
 8008714:	4619      	mov	r1, r3
 8008716:	6878      	ldr	r0, [r7, #4]
 8008718:	f001 fd40 	bl	800a19c <USBD_CtlSendData>
 800871c:	e01d      	b.n	800875a <USBD_CDC_Setup+0x19e>
 800871e:	6839      	ldr	r1, [r7, #0]
 8008720:	6878      	ldr	r0, [r7, #4]
 8008722:	f001 fcbe 	bl	800a0a2 <USBD_CtlError>
 8008726:	2303      	movs	r3, #3
 8008728:	75fb      	strb	r3, [r7, #23]
 800872a:	e016      	b.n	800875a <USBD_CDC_Setup+0x19e>
 800872c:	687b      	ldr	r3, [r7, #4]
 800872e:	f893 329c 	ldrb.w	r3, [r3, #668]	; 0x29c
 8008732:	b2db      	uxtb	r3, r3
 8008734:	2b03      	cmp	r3, #3
 8008736:	d00f      	beq.n	8008758 <USBD_CDC_Setup+0x19c>
 8008738:	6839      	ldr	r1, [r7, #0]
 800873a:	6878      	ldr	r0, [r7, #4]
 800873c:	f001 fcb1 	bl	800a0a2 <USBD_CtlError>
 8008740:	2303      	movs	r3, #3
 8008742:	75fb      	strb	r3, [r7, #23]
 8008744:	e008      	b.n	8008758 <USBD_CDC_Setup+0x19c>
 8008746:	6839      	ldr	r1, [r7, #0]
 8008748:	6878      	ldr	r0, [r7, #4]
 800874a:	f001 fcaa 	bl	800a0a2 <USBD_CtlError>
 800874e:	2303      	movs	r3, #3
 8008750:	75fb      	strb	r3, [r7, #23]
 8008752:	e002      	b.n	800875a <USBD_CDC_Setup+0x19e>
 8008754:	bf00      	nop
 8008756:	e008      	b.n	800876a <USBD_CDC_Setup+0x1ae>
 8008758:	bf00      	nop
 800875a:	e006      	b.n	800876a <USBD_CDC_Setup+0x1ae>
 800875c:	6839      	ldr	r1, [r7, #0]
 800875e:	6878      	ldr	r0, [r7, #4]
 8008760:	f001 fc9f 	bl	800a0a2 <USBD_CtlError>
 8008764:	2303      	movs	r3, #3
 8008766:	75fb      	strb	r3, [r7, #23]
 8008768:	bf00      	nop
 800876a:	7dfb      	ldrb	r3, [r7, #23]
 800876c:	4618      	mov	r0, r3
 800876e:	3718      	adds	r7, #24
 8008770:	46bd      	mov	sp, r7
 8008772:	bd80      	pop	{r7, pc}

08008774 <USBD_CDC_DataIn>:
 8008774:	b580      	push	{r7, lr}
 8008776:	b084      	sub	sp, #16
 8008778:	af00      	add	r7, sp, #0
 800877a:	6078      	str	r0, [r7, #4]
 800877c:	460b      	mov	r3, r1
 800877e:	70fb      	strb	r3, [r7, #3]
 8008780:	687b      	ldr	r3, [r7, #4]
 8008782:	f8d3 32c8 	ldr.w	r3, [r3, #712]	; 0x2c8
 8008786:	60fb      	str	r3, [r7, #12]
 8008788:	687b      	ldr	r3, [r7, #4]
 800878a:	f8d3 22d4 	ldr.w	r2, [r3, #724]	; 0x2d4
 800878e:	687b      	ldr	r3, [r7, #4]
 8008790:	32b0      	adds	r2, #176	; 0xb0
 8008792:	f853 3022 	ldr.w	r3, [r3, r2, lsl #2]
 8008796:	2b00      	cmp	r3, #0
 8008798:	d101      	bne.n	800879e <USBD_CDC_DataIn+0x2a>
 800879a:	2303      	movs	r3, #3
 800879c:	e065      	b.n	800886a <USBD_CDC_DataIn+0xf6>
 800879e:	687b      	ldr	r3, [r7, #4]
 80087a0:	f8d3 22d4 	ldr.w	r2, [r3, #724]	; 0x2d4
 80087a4:	687b      	ldr	r3, [r7, #4]
 80087a6:	32b0      	adds	r2, #176	; 0xb0
 80087a8:	f853 3022 	ldr.w	r3, [r3, r2, lsl #2]
 80087ac:	60bb      	str	r3, [r7, #8]
 80087ae:	78fb      	ldrb	r3, [r7, #3]
 80087b0:	f003 020f 	and.w	r2, r3, #15
 80087b4:	6879      	ldr	r1, [r7, #4]
 80087b6:	4613      	mov	r3, r2
 80087b8:	009b      	lsls	r3, r3, #2
 80087ba:	4413      	add	r3, r2
 80087bc:	009b      	lsls	r3, r3, #2
 80087be:	440b      	add	r3, r1
 80087c0:	3314      	adds	r3, #20
 80087c2:	681b      	ldr	r3, [r3, #0]
 80087c4:	2b00      	cmp	r3, #0
 80087c6:	d02f      	beq.n	8008828 <USBD_CDC_DataIn+0xb4>
 80087c8:	78fb      	ldrb	r3, [r7, #3]
 80087ca:	f003 020f 	and.w	r2, r3, #15
 80087ce:	6879      	ldr	r1, [r7, #4]
 80087d0:	4613      	mov	r3, r2
 80087d2:	009b      	lsls	r3, r3, #2
 80087d4:	4413      	add	r3, r2
 80087d6:	009b      	lsls	r3, r3, #2
 80087d8:	440b      	add	r3, r1
 80087da:	3314      	adds	r3, #20
 80087dc:	681a      	ldr	r2, [r3, #0]
 80087de:	78fb      	ldrb	r3, [r7, #3]
 80087e0:	f003 010f 	and.w	r1, r3, #15
 80087e4:	68f8      	ldr	r0, [r7, #12]
 80087e6:	460b      	mov	r3, r1
 80087e8:	00db      	lsls	r3, r3, #3
 80087ea:	440b      	add	r3, r1
 80087ec:	009b      	lsls	r3, r3, #2
 80087ee:	4403      	add	r3, r0
 80087f0:	331c      	adds	r3, #28
 80087f2:	681b      	ldr	r3, [r3, #0]
 80087f4:	fbb2 f1f3 	udiv	r1, r2, r3
 80087f8:	fb01 f303 	mul.w	r3, r1, r3
 80087fc:	1ad3      	subs	r3, r2, r3
 80087fe:	2b00      	cmp	r3, #0
 8008800:	d112      	bne.n	8008828 <USBD_CDC_DataIn+0xb4>
 8008802:	78fb      	ldrb	r3, [r7, #3]
 8008804:	f003 020f 	and.w	r2, r3, #15
 8008808:	6879      	ldr	r1, [r7, #4]
 800880a:	4613      	mov	r3, r2
 800880c:	009b      	lsls	r3, r3, #2
 800880e:	4413      	add	r3, r2
 8008810:	009b      	lsls	r3, r3, #2
 8008812:	440b      	add	r3, r1
 8008814:	3314      	adds	r3, #20
 8008816:	2200      	movs	r2, #0
 8008818:	601a      	str	r2, [r3, #0]
 800881a:	78f9      	ldrb	r1, [r7, #3]
 800881c:	2300      	movs	r3, #0
 800881e:	2200      	movs	r2, #0
 8008820:	6878      	ldr	r0, [r7, #4]
 8008822:	f002 fa28 	bl	800ac76 <USBD_LL_Transmit>
 8008826:	e01f      	b.n	8008868 <USBD_CDC_DataIn+0xf4>
 8008828:	68bb      	ldr	r3, [r7, #8]
 800882a:	2200      	movs	r2, #0
 800882c:	f8c3 2214 	str.w	r2, [r3, #532]	; 0x214
 8008830:	687b      	ldr	r3, [r7, #4]
 8008832:	f8d3 32d4 	ldr.w	r3, [r3, #724]	; 0x2d4
 8008836:	687a      	ldr	r2, [r7, #4]
 8008838:	33b0      	adds	r3, #176	; 0xb0
 800883a:	009b      	lsls	r3, r3, #2
 800883c:	4413      	add	r3, r2
 800883e:	685b      	ldr	r3, [r3, #4]
 8008840:	691b      	ldr	r3, [r3, #16]
 8008842:	2b00      	cmp	r3, #0
 8008844:	d010      	beq.n	8008868 <USBD_CDC_DataIn+0xf4>
 8008846:	687b      	ldr	r3, [r7, #4]
 8008848:	f8d3 32d4 	ldr.w	r3, [r3, #724]	; 0x2d4
 800884c:	687a      	ldr	r2, [r7, #4]
 800884e:	33b0      	adds	r3, #176	; 0xb0
 8008850:	009b      	lsls	r3, r3, #2
 8008852:	4413      	add	r3, r2
 8008854:	685b      	ldr	r3, [r3, #4]
 8008856:	691b      	ldr	r3, [r3, #16]
 8008858:	68ba      	ldr	r2, [r7, #8]
 800885a:	f8d2 0208 	ldr.w	r0, [r2, #520]	; 0x208
 800885e:	68ba      	ldr	r2, [r7, #8]
 8008860:	f502 7104 	add.w	r1, r2, #528	; 0x210
 8008864:	78fa      	ldrb	r2, [r7, #3]
 8008866:	4798      	blx	r3
 8008868:	2300      	movs	r3, #0
 800886a:	4618      	mov	r0, r3
 800886c:	3710      	adds	r7, #16
 800886e:	46bd      	mov	sp, r7
 8008870:	bd80      	pop	{r7, pc}

08008872 <USBD_CDC_DataOut>:
 8008872:	b580      	push	{r7, lr}
 8008874:	b084      	sub	sp, #16
 8008876:	af00      	add	r7, sp, #0
 8008878:	6078      	str	r0, [r7, #4]
 800887a:	460b      	mov	r3, r1
 800887c:	70fb      	strb	r3, [r7, #3]
 800887e:	687b      	ldr	r3, [r7, #4]
 8008880:	f8d3 22d4 	ldr.w	r2, [r3, #724]	; 0x2d4
 8008884:	687b      	ldr	r3, [r7, #4]
 8008886:	32b0      	adds	r2, #176	; 0xb0
 8008888:	f853 3022 	ldr.w	r3, [r3, r2, lsl #2]
 800888c:	60fb      	str	r3, [r7, #12]
 800888e:	687b      	ldr	r3, [r7, #4]
 8008890:	f8d3 22d4 	ldr.w	r2, [r3, #724]	; 0x2d4
 8008894:	687b      	ldr	r3, [r7, #4]
 8008896:	32b0      	adds	r2, #176	; 0xb0
 8008898:	f853 3022 	ldr.w	r3, [r3, r2, lsl #2]
 800889c:	2b00      	cmp	r3, #0
 800889e:	d101      	bne.n	80088a4 <USBD_CDC_DataOut+0x32>
 80088a0:	2303      	movs	r3, #3
 80088a2:	e01a      	b.n	80088da <USBD_CDC_DataOut+0x68>
 80088a4:	78fb      	ldrb	r3, [r7, #3]
 80088a6:	4619      	mov	r1, r3
 80088a8:	6878      	ldr	r0, [r7, #4]
 80088aa:	f002 fa26 	bl	800acfa <USBD_LL_GetRxDataSize>
 80088ae:	4602      	mov	r2, r0
 80088b0:	68fb      	ldr	r3, [r7, #12]
 80088b2:	f8c3 220c 	str.w	r2, [r3, #524]	; 0x20c
 80088b6:	687b      	ldr	r3, [r7, #4]
 80088b8:	f8d3 32d4 	ldr.w	r3, [r3, #724]	; 0x2d4
 80088bc:	687a      	ldr	r2, [r7, #4]
 80088be:	33b0      	adds	r3, #176	; 0xb0
 80088c0:	009b      	lsls	r3, r3, #2
 80088c2:	4413      	add	r3, r2
 80088c4:	685b      	ldr	r3, [r3, #4]
 80088c6:	68db      	ldr	r3, [r3, #12]
 80088c8:	68fa      	ldr	r2, [r7, #12]
 80088ca:	f8d2 0204 	ldr.w	r0, [r2, #516]	; 0x204
 80088ce:	68fa      	ldr	r2, [r7, #12]
 80088d0:	f502 7203 	add.w	r2, r2, #524	; 0x20c
 80088d4:	4611      	mov	r1, r2
 80088d6:	4798      	blx	r3
 80088d8:	2300      	movs	r3, #0
 80088da:	4618      	mov	r0, r3
 80088dc:	3710      	adds	r7, #16
 80088de:	46bd      	mov	sp, r7
 80088e0:	bd80      	pop	{r7, pc}

080088e2 <USBD_CDC_EP0_RxReady>:
 80088e2:	b580      	push	{r7, lr}
 80088e4:	b084      	sub	sp, #16
 80088e6:	af00      	add	r7, sp, #0
 80088e8:	6078      	str	r0, [r7, #4]
 80088ea:	687b      	ldr	r3, [r7, #4]
 80088ec:	f8d3 22d4 	ldr.w	r2, [r3, #724]	; 0x2d4
 80088f0:	687b      	ldr	r3, [r7, #4]
 80088f2:	32b0      	adds	r2, #176	; 0xb0
 80088f4:	f853 3022 	ldr.w	r3, [r3, r2, lsl #2]
 80088f8:	60fb      	str	r3, [r7, #12]
 80088fa:	68fb      	ldr	r3, [r7, #12]
 80088fc:	2b00      	cmp	r3, #0
 80088fe:	d101      	bne.n	8008904 <USBD_CDC_EP0_RxReady+0x22>
 8008900:	2303      	movs	r3, #3
 8008902:	e025      	b.n	8008950 <USBD_CDC_EP0_RxReady+0x6e>
 8008904:	687b      	ldr	r3, [r7, #4]
 8008906:	f8d3 32d4 	ldr.w	r3, [r3, #724]	; 0x2d4
 800890a:	687a      	ldr	r2, [r7, #4]
 800890c:	33b0      	adds	r3, #176	; 0xb0
 800890e:	009b      	lsls	r3, r3, #2
 8008910:	4413      	add	r3, r2
 8008912:	685b      	ldr	r3, [r3, #4]
 8008914:	2b00      	cmp	r3, #0
 8008916:	d01a      	beq.n	800894e <USBD_CDC_EP0_RxReady+0x6c>
 8008918:	68fb      	ldr	r3, [r7, #12]
 800891a:	f893 3200 	ldrb.w	r3, [r3, #512]	; 0x200
 800891e:	2bff      	cmp	r3, #255	; 0xff
 8008920:	d015      	beq.n	800894e <USBD_CDC_EP0_RxReady+0x6c>
 8008922:	687b      	ldr	r3, [r7, #4]
 8008924:	f8d3 32d4 	ldr.w	r3, [r3, #724]	; 0x2d4
 8008928:	687a      	ldr	r2, [r7, #4]
 800892a:	33b0      	adds	r3, #176	; 0xb0
 800892c:	009b      	lsls	r3, r3, #2
 800892e:	4413      	add	r3, r2
 8008930:	685b      	ldr	r3, [r3, #4]
 8008932:	689b      	ldr	r3, [r3, #8]
 8008934:	68fa      	ldr	r2, [r7, #12]
 8008936:	f892 0200 	ldrb.w	r0, [r2, #512]	; 0x200
 800893a:	68f9      	ldr	r1, [r7, #12]
 800893c:	68fa      	ldr	r2, [r7, #12]
 800893e:	f892 2201 	ldrb.w	r2, [r2, #513]	; 0x201
 8008942:	b292      	uxth	r2, r2
 8008944:	4798      	blx	r3
 8008946:	68fb      	ldr	r3, [r7, #12]
 8008948:	22ff      	movs	r2, #255	; 0xff
 800894a:	f883 2200 	strb.w	r2, [r3, #512]	; 0x200
 800894e:	2300      	movs	r3, #0
 8008950:	4618      	mov	r0, r3
 8008952:	3710      	adds	r7, #16
 8008954:	46bd      	mov	sp, r7
 8008956:	bd80      	pop	{r7, pc}

08008958 <USBD_CDC_GetFSCfgDesc>:
 8008958:	b580      	push	{r7, lr}
 800895a:	b086      	sub	sp, #24
 800895c:	af00      	add	r7, sp, #0
 800895e:	6078      	str	r0, [r7, #4]
 8008960:	2182      	movs	r1, #130	; 0x82
 8008962:	4818      	ldr	r0, [pc, #96]	; (80089c4 <USBD_CDC_GetFSCfgDesc+0x6c>)
 8008964:	f000 fd62 	bl	800942c <USBD_GetEpDesc>
 8008968:	6178      	str	r0, [r7, #20]
 800896a:	2101      	movs	r1, #1
 800896c:	4815      	ldr	r0, [pc, #84]	; (80089c4 <USBD_CDC_GetFSCfgDesc+0x6c>)
 800896e:	f000 fd5d 	bl	800942c <USBD_GetEpDesc>
 8008972:	6138      	str	r0, [r7, #16]
 8008974:	2181      	movs	r1, #129	; 0x81
 8008976:	4813      	ldr	r0, [pc, #76]	; (80089c4 <USBD_CDC_GetFSCfgDesc+0x6c>)
 8008978:	f000 fd58 	bl	800942c <USBD_GetEpDesc>
 800897c:	60f8      	str	r0, [r7, #12]
 800897e:	697b      	ldr	r3, [r7, #20]
 8008980:	2b00      	cmp	r3, #0
 8008982:	d002      	beq.n	800898a <USBD_CDC_GetFSCfgDesc+0x32>
 8008984:	697b      	ldr	r3, [r7, #20]
 8008986:	2210      	movs	r2, #16
 8008988:	719a      	strb	r2, [r3, #6]
 800898a:	693b      	ldr	r3, [r7, #16]
 800898c:	2b00      	cmp	r3, #0
 800898e:	d006      	beq.n	800899e <USBD_CDC_GetFSCfgDesc+0x46>
 8008990:	693b      	ldr	r3, [r7, #16]
 8008992:	2200      	movs	r2, #0
 8008994:	f042 0240 	orr.w	r2, r2, #64	; 0x40
 8008998:	711a      	strb	r2, [r3, #4]
 800899a:	2200      	movs	r2, #0
 800899c:	715a      	strb	r2, [r3, #5]
 800899e:	68fb      	ldr	r3, [r7, #12]
 80089a0:	2b00      	cmp	r3, #0
 80089a2:	d006      	beq.n	80089b2 <USBD_CDC_GetFSCfgDesc+0x5a>
 80089a4:	68fb      	ldr	r3, [r7, #12]
 80089a6:	2200      	movs	r2, #0
 80089a8:	f042 0240 	orr.w	r2, r2, #64	; 0x40
 80089ac:	711a      	strb	r2, [r3, #4]
 80089ae:	2200      	movs	r2, #0
 80089b0:	715a      	strb	r2, [r3, #5]
 80089b2:	687b      	ldr	r3, [r7, #4]
 80089b4:	2243      	movs	r2, #67	; 0x43
 80089b6:	801a      	strh	r2, [r3, #0]
 80089b8:	4b02      	ldr	r3, [pc, #8]	; (80089c4 <USBD_CDC_GetFSCfgDesc+0x6c>)
 80089ba:	4618      	mov	r0, r3
 80089bc:	3718      	adds	r7, #24
 80089be:	46bd      	mov	sp, r7
 80089c0:	bd80      	pop	{r7, pc}
 80089c2:	bf00      	nop
 80089c4:	20000050 	.word	0x20000050

080089c8 <USBD_CDC_GetHSCfgDesc>:
 80089c8:	b580      	push	{r7, lr}
 80089ca:	b086      	sub	sp, #24
 80089cc:	af00      	add	r7, sp, #0
 80089ce:	6078      	str	r0, [r7, #4]
 80089d0:	2182      	movs	r1, #130	; 0x82
 80089d2:	4818      	ldr	r0, [pc, #96]	; (8008a34 <USBD_CDC_GetHSCfgDesc+0x6c>)
 80089d4:	f000 fd2a 	bl	800942c <USBD_GetEpDesc>
 80089d8:	6178      	str	r0, [r7, #20]
 80089da:	2101      	movs	r1, #1
 80089dc:	4815      	ldr	r0, [pc, #84]	; (8008a34 <USBD_CDC_GetHSCfgDesc+0x6c>)
 80089de:	f000 fd25 	bl	800942c <USBD_GetEpDesc>
 80089e2:	6138      	str	r0, [r7, #16]
 80089e4:	2181      	movs	r1, #129	; 0x81
 80089e6:	4813      	ldr	r0, [pc, #76]	; (8008a34 <USBD_CDC_GetHSCfgDesc+0x6c>)
 80089e8:	f000 fd20 	bl	800942c <USBD_GetEpDesc>
 80089ec:	60f8      	str	r0, [r7, #12]
 80089ee:	697b      	ldr	r3, [r7, #20]
 80089f0:	2b00      	cmp	r3, #0
 80089f2:	d002      	beq.n	80089fa <USBD_CDC_GetHSCfgDesc+0x32>
 80089f4:	697b      	ldr	r3, [r7, #20]
 80089f6:	2210      	movs	r2, #16
 80089f8:	719a      	strb	r2, [r3, #6]
 80089fa:	693b      	ldr	r3, [r7, #16]
 80089fc:	2b00      	cmp	r3, #0
 80089fe:	d006      	beq.n	8008a0e <USBD_CDC_GetHSCfgDesc+0x46>
 8008a00:	693b      	ldr	r3, [r7, #16]
 8008a02:	2200      	movs	r2, #0
 8008a04:	711a      	strb	r2, [r3, #4]
 8008a06:	2200      	movs	r2, #0
 8008a08:	f042 0202 	orr.w	r2, r2, #2
 8008a0c:	715a      	strb	r2, [r3, #5]
 8008a0e:	68fb      	ldr	r3, [r7, #12]
 8008a10:	2b00      	cmp	r3, #0
 8008a12:	d006      	beq.n	8008a22 <USBD_CDC_GetHSCfgDesc+0x5a>
 8008a14:	68fb      	ldr	r3, [r7, #12]
 8008a16:	2200      	movs	r2, #0
 8008a18:	711a      	strb	r2, [r3, #4]
 8008a1a:	2200      	movs	r2, #0
 8008a1c:	f042 0202 	orr.w	r2, r2, #2
 8008a20:	715a      	strb	r2, [r3, #5]
 8008a22:	687b      	ldr	r3, [r7, #4]
 8008a24:	2243      	movs	r2, #67	; 0x43
 8008a26:	801a      	strh	r2, [r3, #0]
 8008a28:	4b02      	ldr	r3, [pc, #8]	; (8008a34 <USBD_CDC_GetHSCfgDesc+0x6c>)
 8008a2a:	4618      	mov	r0, r3
 8008a2c:	3718      	adds	r7, #24
 8008a2e:	46bd      	mov	sp, r7
 8008a30:	bd80      	pop	{r7, pc}
 8008a32:	bf00      	nop
 8008a34:	20000050 	.word	0x20000050

08008a38 <USBD_CDC_GetOtherSpeedCfgDesc>:
 8008a38:	b580      	push	{r7, lr}
 8008a3a:	b086      	sub	sp, #24
 8008a3c:	af00      	add	r7, sp, #0
 8008a3e:	6078      	str	r0, [r7, #4]
 8008a40:	2182      	movs	r1, #130	; 0x82
 8008a42:	4818      	ldr	r0, [pc, #96]	; (8008aa4 <USBD_CDC_GetOtherSpeedCfgDesc+0x6c>)
 8008a44:	f000 fcf2 	bl	800942c <USBD_GetEpDesc>
 8008a48:	6178      	str	r0, [r7, #20]
 8008a4a:	2101      	movs	r1, #1
 8008a4c:	4815      	ldr	r0, [pc, #84]	; (8008aa4 <USBD_CDC_GetOtherSpeedCfgDesc+0x6c>)
 8008a4e:	f000 fced 	bl	800942c <USBD_GetEpDesc>
 8008a52:	6138      	str	r0, [r7, #16]
 8008a54:	2181      	movs	r1, #129	; 0x81
 8008a56:	4813      	ldr	r0, [pc, #76]	; (8008aa4 <USBD_CDC_GetOtherSpeedCfgDesc+0x6c>)
 8008a58:	f000 fce8 	bl	800942c <USBD_GetEpDesc>
 8008a5c:	60f8      	str	r0, [r7, #12]
 8008a5e:	697b      	ldr	r3, [r7, #20]
 8008a60:	2b00      	cmp	r3, #0
 8008a62:	d002      	beq.n	8008a6a <USBD_CDC_GetOtherSpeedCfgDesc+0x32>
 8008a64:	697b      	ldr	r3, [r7, #20]
 8008a66:	2210      	movs	r2, #16
 8008a68:	719a      	strb	r2, [r3, #6]
 8008a6a:	693b      	ldr	r3, [r7, #16]
 8008a6c:	2b00      	cmp	r3, #0
 8008a6e:	d006      	beq.n	8008a7e <USBD_CDC_GetOtherSpeedCfgDesc+0x46>
 8008a70:	693b      	ldr	r3, [r7, #16]
 8008a72:	2200      	movs	r2, #0
 8008a74:	f042 0240 	orr.w	r2, r2, #64	; 0x40
 8008a78:	711a      	strb	r2, [r3, #4]
 8008a7a:	2200      	movs	r2, #0
 8008a7c:	715a      	strb	r2, [r3, #5]
 8008a7e:	68fb      	ldr	r3, [r7, #12]
 8008a80:	2b00      	cmp	r3, #0
 8008a82:	d006      	beq.n	8008a92 <USBD_CDC_GetOtherSpeedCfgDesc+0x5a>
 8008a84:	68fb      	ldr	r3, [r7, #12]
 8008a86:	2200      	movs	r2, #0
 8008a88:	f042 0240 	orr.w	r2, r2, #64	; 0x40
 8008a8c:	711a      	strb	r2, [r3, #4]
 8008a8e:	2200      	movs	r2, #0
 8008a90:	715a      	strb	r2, [r3, #5]
 8008a92:	687b      	ldr	r3, [r7, #4]
 8008a94:	2243      	movs	r2, #67	; 0x43
 8008a96:	801a      	strh	r2, [r3, #0]
 8008a98:	4b02      	ldr	r3, [pc, #8]	; (8008aa4 <USBD_CDC_GetOtherSpeedCfgDesc+0x6c>)
 8008a9a:	4618      	mov	r0, r3
 8008a9c:	3718      	adds	r7, #24
 8008a9e:	46bd      	mov	sp, r7
 8008aa0:	bd80      	pop	{r7, pc}
 8008aa2:	bf00      	nop
 8008aa4:	20000050 	.word	0x20000050

08008aa8 <USBD_CDC_GetDeviceQualifierDescriptor>:
 8008aa8:	b480      	push	{r7}
 8008aaa:	b083      	sub	sp, #12
 8008aac:	af00      	add	r7, sp, #0
 8008aae:	6078      	str	r0, [r7, #4]
 8008ab0:	687b      	ldr	r3, [r7, #4]
 8008ab2:	220a      	movs	r2, #10
 8008ab4:	801a      	strh	r2, [r3, #0]
 8008ab6:	4b03      	ldr	r3, [pc, #12]	; (8008ac4 <USBD_CDC_GetDeviceQualifierDescriptor+0x1c>)
 8008ab8:	4618      	mov	r0, r3
 8008aba:	370c      	adds	r7, #12
 8008abc:	46bd      	mov	sp, r7
 8008abe:	f85d 7b04 	ldr.w	r7, [sp], #4
 8008ac2:	4770      	bx	lr
 8008ac4:	2000000c 	.word	0x2000000c

08008ac8 <USBD_CDC_RegisterInterface>:
 8008ac8:	b480      	push	{r7}
 8008aca:	b083      	sub	sp, #12
 8008acc:	af00      	add	r7, sp, #0
 8008ace:	6078      	str	r0, [r7, #4]
 8008ad0:	6039      	str	r1, [r7, #0]
 8008ad2:	683b      	ldr	r3, [r7, #0]
 8008ad4:	2b00      	cmp	r3, #0
 8008ad6:	d101      	bne.n	8008adc <USBD_CDC_RegisterInterface+0x14>
 8008ad8:	2303      	movs	r3, #3
 8008ada:	e009      	b.n	8008af0 <USBD_CDC_RegisterInterface+0x28>
 8008adc:	687b      	ldr	r3, [r7, #4]
 8008ade:	f8d3 32d4 	ldr.w	r3, [r3, #724]	; 0x2d4
 8008ae2:	687a      	ldr	r2, [r7, #4]
 8008ae4:	33b0      	adds	r3, #176	; 0xb0
 8008ae6:	009b      	lsls	r3, r3, #2
 8008ae8:	4413      	add	r3, r2
 8008aea:	683a      	ldr	r2, [r7, #0]
 8008aec:	605a      	str	r2, [r3, #4]
 8008aee:	2300      	movs	r3, #0
 8008af0:	4618      	mov	r0, r3
 8008af2:	370c      	adds	r7, #12
 8008af4:	46bd      	mov	sp, r7
 8008af6:	f85d 7b04 	ldr.w	r7, [sp], #4
 8008afa:	4770      	bx	lr

08008afc <USBD_CDC_SetTxBuffer>:
 8008afc:	b480      	push	{r7}
 8008afe:	b087      	sub	sp, #28
 8008b00:	af00      	add	r7, sp, #0
 8008b02:	60f8      	str	r0, [r7, #12]
 8008b04:	60b9      	str	r1, [r7, #8]
 8008b06:	607a      	str	r2, [r7, #4]
 8008b08:	68fb      	ldr	r3, [r7, #12]
 8008b0a:	f8d3 22d4 	ldr.w	r2, [r3, #724]	; 0x2d4
 8008b0e:	68fb      	ldr	r3, [r7, #12]
 8008b10:	32b0      	adds	r2, #176	; 0xb0
 8008b12:	f853 3022 	ldr.w	r3, [r3, r2, lsl #2]
 8008b16:	617b      	str	r3, [r7, #20]
 8008b18:	697b      	ldr	r3, [r7, #20]
 8008b1a:	2b00      	cmp	r3, #0
 8008b1c:	d101      	bne.n	8008b22 <USBD_CDC_SetTxBuffer+0x26>
 8008b1e:	2303      	movs	r3, #3
 8008b20:	e008      	b.n	8008b34 <USBD_CDC_SetTxBuffer+0x38>
 8008b22:	697b      	ldr	r3, [r7, #20]
 8008b24:	68ba      	ldr	r2, [r7, #8]
 8008b26:	f8c3 2208 	str.w	r2, [r3, #520]	; 0x208
 8008b2a:	697b      	ldr	r3, [r7, #20]
 8008b2c:	687a      	ldr	r2, [r7, #4]
 8008b2e:	f8c3 2210 	str.w	r2, [r3, #528]	; 0x210
 8008b32:	2300      	movs	r3, #0
 8008b34:	4618      	mov	r0, r3
 8008b36:	371c      	adds	r7, #28
 8008b38:	46bd      	mov	sp, r7
 8008b3a:	f85d 7b04 	ldr.w	r7, [sp], #4
 8008b3e:	4770      	bx	lr

08008b40 <USBD_CDC_SetRxBuffer>:
 8008b40:	b480      	push	{r7}
 8008b42:	b085      	sub	sp, #20
 8008b44:	af00      	add	r7, sp, #0
 8008b46:	6078      	str	r0, [r7, #4]
 8008b48:	6039      	str	r1, [r7, #0]
 8008b4a:	687b      	ldr	r3, [r7, #4]
 8008b4c:	f8d3 22d4 	ldr.w	r2, [r3, #724]	; 0x2d4
 8008b50:	687b      	ldr	r3, [r7, #4]
 8008b52:	32b0      	adds	r2, #176	; 0xb0
 8008b54:	f853 3022 	ldr.w	r3, [r3, r2, lsl #2]
 8008b58:	60fb      	str	r3, [r7, #12]
 8008b5a:	68fb      	ldr	r3, [r7, #12]
 8008b5c:	2b00      	cmp	r3, #0
 8008b5e:	d101      	bne.n	8008b64 <USBD_CDC_SetRxBuffer+0x24>
 8008b60:	2303      	movs	r3, #3
 8008b62:	e004      	b.n	8008b6e <USBD_CDC_SetRxBuffer+0x2e>
 8008b64:	68fb      	ldr	r3, [r7, #12]
 8008b66:	683a      	ldr	r2, [r7, #0]
 8008b68:	f8c3 2204 	str.w	r2, [r3, #516]	; 0x204
 8008b6c:	2300      	movs	r3, #0
 8008b6e:	4618      	mov	r0, r3
 8008b70:	3714      	adds	r7, #20
 8008b72:	46bd      	mov	sp, r7
 8008b74:	f85d 7b04 	ldr.w	r7, [sp], #4
 8008b78:	4770      	bx	lr
	...

08008b7c <USBD_CDC_TransmitPacket>:
 8008b7c:	b580      	push	{r7, lr}
 8008b7e:	b084      	sub	sp, #16
 8008b80:	af00      	add	r7, sp, #0
 8008b82:	6078      	str	r0, [r7, #4]
 8008b84:	687b      	ldr	r3, [r7, #4]
 8008b86:	f8d3 22d4 	ldr.w	r2, [r3, #724]	; 0x2d4
 8008b8a:	687b      	ldr	r3, [r7, #4]
 8008b8c:	32b0      	adds	r2, #176	; 0xb0
 8008b8e:	f853 3022 	ldr.w	r3, [r3, r2, lsl #2]
 8008b92:	60bb      	str	r3, [r7, #8]
 8008b94:	2301      	movs	r3, #1
 8008b96:	73fb      	strb	r3, [r7, #15]
 8008b98:	68bb      	ldr	r3, [r7, #8]
 8008b9a:	2b00      	cmp	r3, #0
 8008b9c:	d101      	bne.n	8008ba2 <USBD_CDC_TransmitPacket+0x26>
 8008b9e:	2303      	movs	r3, #3
 8008ba0:	e025      	b.n	8008bee <USBD_CDC_TransmitPacket+0x72>
 8008ba2:	68bb      	ldr	r3, [r7, #8]
 8008ba4:	f8d3 3214 	ldr.w	r3, [r3, #532]	; 0x214
 8008ba8:	2b00      	cmp	r3, #0
 8008baa:	d11f      	bne.n	8008bec <USBD_CDC_TransmitPacket+0x70>
 8008bac:	68bb      	ldr	r3, [r7, #8]
 8008bae:	2201      	movs	r2, #1
 8008bb0:	f8c3 2214 	str.w	r2, [r3, #532]	; 0x214
 8008bb4:	4b10      	ldr	r3, [pc, #64]	; (8008bf8 <USBD_CDC_TransmitPacket+0x7c>)
 8008bb6:	781b      	ldrb	r3, [r3, #0]
 8008bb8:	f003 020f 	and.w	r2, r3, #15
 8008bbc:	68bb      	ldr	r3, [r7, #8]
 8008bbe:	f8d3 1210 	ldr.w	r1, [r3, #528]	; 0x210
 8008bc2:	6878      	ldr	r0, [r7, #4]
 8008bc4:	4613      	mov	r3, r2
 8008bc6:	009b      	lsls	r3, r3, #2
 8008bc8:	4413      	add	r3, r2
 8008bca:	009b      	lsls	r3, r3, #2
 8008bcc:	4403      	add	r3, r0
 8008bce:	3314      	adds	r3, #20
 8008bd0:	6019      	str	r1, [r3, #0]
 8008bd2:	4b09      	ldr	r3, [pc, #36]	; (8008bf8 <USBD_CDC_TransmitPacket+0x7c>)
 8008bd4:	7819      	ldrb	r1, [r3, #0]
 8008bd6:	68bb      	ldr	r3, [r7, #8]
 8008bd8:	f8d3 2208 	ldr.w	r2, [r3, #520]	; 0x208
 8008bdc:	68bb      	ldr	r3, [r7, #8]
 8008bde:	f8d3 3210 	ldr.w	r3, [r3, #528]	; 0x210
 8008be2:	6878      	ldr	r0, [r7, #4]
 8008be4:	f002 f847 	bl	800ac76 <USBD_LL_Transmit>
 8008be8:	2300      	movs	r3, #0
 8008bea:	73fb      	strb	r3, [r7, #15]
 8008bec:	7bfb      	ldrb	r3, [r7, #15]
 8008bee:	4618      	mov	r0, r3
 8008bf0:	3710      	adds	r7, #16
 8008bf2:	46bd      	mov	sp, r7
 8008bf4:	bd80      	pop	{r7, pc}
 8008bf6:	bf00      	nop
 8008bf8:	20000093 	.word	0x20000093

08008bfc <USBD_CDC_ReceivePacket>:
 8008bfc:	b580      	push	{r7, lr}
 8008bfe:	b084      	sub	sp, #16
 8008c00:	af00      	add	r7, sp, #0
 8008c02:	6078      	str	r0, [r7, #4]
 8008c04:	687b      	ldr	r3, [r7, #4]
 8008c06:	f8d3 22d4 	ldr.w	r2, [r3, #724]	; 0x2d4
 8008c0a:	687b      	ldr	r3, [r7, #4]
 8008c0c:	32b0      	adds	r2, #176	; 0xb0
 8008c0e:	f853 3022 	ldr.w	r3, [r3, r2, lsl #2]
 8008c12:	60fb      	str	r3, [r7, #12]
 8008c14:	687b      	ldr	r3, [r7, #4]
 8008c16:	f8d3 22d4 	ldr.w	r2, [r3, #724]	; 0x2d4
 8008c1a:	687b      	ldr	r3, [r7, #4]
 8008c1c:	32b0      	adds	r2, #176	; 0xb0
 8008c1e:	f853 3022 	ldr.w	r3, [r3, r2, lsl #2]
 8008c22:	2b00      	cmp	r3, #0
 8008c24:	d101      	bne.n	8008c2a <USBD_CDC_ReceivePacket+0x2e>
 8008c26:	2303      	movs	r3, #3
 8008c28:	e018      	b.n	8008c5c <USBD_CDC_ReceivePacket+0x60>
 8008c2a:	687b      	ldr	r3, [r7, #4]
 8008c2c:	7c1b      	ldrb	r3, [r3, #16]
 8008c2e:	2b00      	cmp	r3, #0
 8008c30:	d10a      	bne.n	8008c48 <USBD_CDC_ReceivePacket+0x4c>
 8008c32:	4b0c      	ldr	r3, [pc, #48]	; (8008c64 <USBD_CDC_ReceivePacket+0x68>)
 8008c34:	7819      	ldrb	r1, [r3, #0]
 8008c36:	68fb      	ldr	r3, [r7, #12]
 8008c38:	f8d3 2204 	ldr.w	r2, [r3, #516]	; 0x204
 8008c3c:	f44f 7300 	mov.w	r3, #512	; 0x200
 8008c40:	6878      	ldr	r0, [r7, #4]
 8008c42:	f002 f839 	bl	800acb8 <USBD_LL_PrepareReceive>
 8008c46:	e008      	b.n	8008c5a <USBD_CDC_ReceivePacket+0x5e>
 8008c48:	4b06      	ldr	r3, [pc, #24]	; (8008c64 <USBD_CDC_ReceivePacket+0x68>)
 8008c4a:	7819      	ldrb	r1, [r3, #0]
 8008c4c:	68fb      	ldr	r3, [r7, #12]
 8008c4e:	f8d3 2204 	ldr.w	r2, [r3, #516]	; 0x204
 8008c52:	2340      	movs	r3, #64	; 0x40
 8008c54:	6878      	ldr	r0, [r7, #4]
 8008c56:	f002 f82f 	bl	800acb8 <USBD_LL_PrepareReceive>
 8008c5a:	2300      	movs	r3, #0
 8008c5c:	4618      	mov	r0, r3
 8008c5e:	3710      	adds	r7, #16
 8008c60:	46bd      	mov	sp, r7
 8008c62:	bd80      	pop	{r7, pc}
 8008c64:	20000094 	.word	0x20000094

08008c68 <USBD_Init>:
 8008c68:	b580      	push	{r7, lr}
 8008c6a:	b086      	sub	sp, #24
 8008c6c:	af00      	add	r7, sp, #0
 8008c6e:	60f8      	str	r0, [r7, #12]
 8008c70:	60b9      	str	r1, [r7, #8]
 8008c72:	4613      	mov	r3, r2
 8008c74:	71fb      	strb	r3, [r7, #7]
 8008c76:	68fb      	ldr	r3, [r7, #12]
 8008c78:	2b00      	cmp	r3, #0
 8008c7a:	d101      	bne.n	8008c80 <USBD_Init+0x18>
 8008c7c:	2303      	movs	r3, #3
 8008c7e:	e01f      	b.n	8008cc0 <USBD_Init+0x58>
 8008c80:	68fb      	ldr	r3, [r7, #12]
 8008c82:	2200      	movs	r2, #0
 8008c84:	f8c3 22b8 	str.w	r2, [r3, #696]	; 0x2b8
 8008c88:	68fb      	ldr	r3, [r7, #12]
 8008c8a:	2200      	movs	r2, #0
 8008c8c:	f8c3 22c4 	str.w	r2, [r3, #708]	; 0x2c4
 8008c90:	68fb      	ldr	r3, [r7, #12]
 8008c92:	2200      	movs	r2, #0
 8008c94:	f8c3 22d0 	str.w	r2, [r3, #720]	; 0x2d0
 8008c98:	68bb      	ldr	r3, [r7, #8]
 8008c9a:	2b00      	cmp	r3, #0
 8008c9c:	d003      	beq.n	8008ca6 <USBD_Init+0x3e>
 8008c9e:	68fb      	ldr	r3, [r7, #12]
 8008ca0:	68ba      	ldr	r2, [r7, #8]
 8008ca2:	f8c3 22b4 	str.w	r2, [r3, #692]	; 0x2b4
 8008ca6:	68fb      	ldr	r3, [r7, #12]
 8008ca8:	2201      	movs	r2, #1
 8008caa:	f883 229c 	strb.w	r2, [r3, #668]	; 0x29c
 8008cae:	68fb      	ldr	r3, [r7, #12]
 8008cb0:	79fa      	ldrb	r2, [r7, #7]
 8008cb2:	701a      	strb	r2, [r3, #0]
 8008cb4:	68f8      	ldr	r0, [r7, #12]
 8008cb6:	f001 fea9 	bl	800aa0c <USBD_LL_Init>
 8008cba:	4603      	mov	r3, r0
 8008cbc:	75fb      	strb	r3, [r7, #23]
 8008cbe:	7dfb      	ldrb	r3, [r7, #23]
 8008cc0:	4618      	mov	r0, r3
 8008cc2:	3718      	adds	r7, #24
 8008cc4:	46bd      	mov	sp, r7
 8008cc6:	bd80      	pop	{r7, pc}

08008cc8 <USBD_RegisterClass>:
 8008cc8:	b580      	push	{r7, lr}
 8008cca:	b084      	sub	sp, #16
 8008ccc:	af00      	add	r7, sp, #0
 8008cce:	6078      	str	r0, [r7, #4]
 8008cd0:	6039      	str	r1, [r7, #0]
 8008cd2:	2300      	movs	r3, #0
 8008cd4:	81fb      	strh	r3, [r7, #14]
 8008cd6:	683b      	ldr	r3, [r7, #0]
 8008cd8:	2b00      	cmp	r3, #0
 8008cda:	d101      	bne.n	8008ce0 <USBD_RegisterClass+0x18>
 8008cdc:	2303      	movs	r3, #3
 8008cde:	e025      	b.n	8008d2c <USBD_RegisterClass+0x64>
 8008ce0:	687b      	ldr	r3, [r7, #4]
 8008ce2:	683a      	ldr	r2, [r7, #0]
 8008ce4:	f8c3 22b8 	str.w	r2, [r3, #696]	; 0x2b8
 8008ce8:	687b      	ldr	r3, [r7, #4]
 8008cea:	f8d3 22d4 	ldr.w	r2, [r3, #724]	; 0x2d4
 8008cee:	687b      	ldr	r3, [r7, #4]
 8008cf0:	32ae      	adds	r2, #174	; 0xae
 8008cf2:	f853 3022 	ldr.w	r3, [r3, r2, lsl #2]
 8008cf6:	6adb      	ldr	r3, [r3, #44]	; 0x2c
 8008cf8:	2b00      	cmp	r3, #0
 8008cfa:	d00f      	beq.n	8008d1c <USBD_RegisterClass+0x54>
 8008cfc:	687b      	ldr	r3, [r7, #4]
 8008cfe:	f8d3 22d4 	ldr.w	r2, [r3, #724]	; 0x2d4
 8008d02:	687b      	ldr	r3, [r7, #4]
 8008d04:	32ae      	adds	r2, #174	; 0xae
 8008d06:	f853 3022 	ldr.w	r3, [r3, r2, lsl #2]
 8008d0a:	6adb      	ldr	r3, [r3, #44]	; 0x2c
 8008d0c:	f107 020e 	add.w	r2, r7, #14
 8008d10:	4610      	mov	r0, r2
 8008d12:	4798      	blx	r3
 8008d14:	4602      	mov	r2, r0
 8008d16:	687b      	ldr	r3, [r7, #4]
 8008d18:	f8c3 22d0 	str.w	r2, [r3, #720]	; 0x2d0
 8008d1c:	687b      	ldr	r3, [r7, #4]
 8008d1e:	f8d3 32d8 	ldr.w	r3, [r3, #728]	; 0x2d8
 8008d22:	1c5a      	adds	r2, r3, #1
 8008d24:	687b      	ldr	r3, [r7, #4]
 8008d26:	f8c3 22d8 	str.w	r2, [r3, #728]	; 0x2d8
 8008d2a:	2300      	movs	r3, #0
 8008d2c:	4618      	mov	r0, r3
 8008d2e:	3710      	adds	r7, #16
 8008d30:	46bd      	mov	sp, r7
 8008d32:	bd80      	pop	{r7, pc}

08008d34 <USBD_Start>:
 8008d34:	b580      	push	{r7, lr}
 8008d36:	b082      	sub	sp, #8
 8008d38:	af00      	add	r7, sp, #0
 8008d3a:	6078      	str	r0, [r7, #4]
 8008d3c:	6878      	ldr	r0, [r7, #4]
 8008d3e:	f001 feb1 	bl	800aaa4 <USBD_LL_Start>
 8008d42:	4603      	mov	r3, r0
 8008d44:	4618      	mov	r0, r3
 8008d46:	3708      	adds	r7, #8
 8008d48:	46bd      	mov	sp, r7
 8008d4a:	bd80      	pop	{r7, pc}

08008d4c <USBD_RunTestMode>:
 8008d4c:	b480      	push	{r7}
 8008d4e:	b083      	sub	sp, #12
 8008d50:	af00      	add	r7, sp, #0
 8008d52:	6078      	str	r0, [r7, #4]
 8008d54:	2300      	movs	r3, #0
 8008d56:	4618      	mov	r0, r3
 8008d58:	370c      	adds	r7, #12
 8008d5a:	46bd      	mov	sp, r7
 8008d5c:	f85d 7b04 	ldr.w	r7, [sp], #4
 8008d60:	4770      	bx	lr

08008d62 <USBD_SetClassConfig>:
 8008d62:	b580      	push	{r7, lr}
 8008d64:	b084      	sub	sp, #16
 8008d66:	af00      	add	r7, sp, #0
 8008d68:	6078      	str	r0, [r7, #4]
 8008d6a:	460b      	mov	r3, r1
 8008d6c:	70fb      	strb	r3, [r7, #3]
 8008d6e:	2300      	movs	r3, #0
 8008d70:	73fb      	strb	r3, [r7, #15]
 8008d72:	687b      	ldr	r3, [r7, #4]
 8008d74:	f8d3 32b8 	ldr.w	r3, [r3, #696]	; 0x2b8
 8008d78:	2b00      	cmp	r3, #0
 8008d7a:	d009      	beq.n	8008d90 <USBD_SetClassConfig+0x2e>
 8008d7c:	687b      	ldr	r3, [r7, #4]
 8008d7e:	f8d3 32b8 	ldr.w	r3, [r3, #696]	; 0x2b8
 8008d82:	681b      	ldr	r3, [r3, #0]
 8008d84:	78fa      	ldrb	r2, [r7, #3]
 8008d86:	4611      	mov	r1, r2
 8008d88:	6878      	ldr	r0, [r7, #4]
 8008d8a:	4798      	blx	r3
 8008d8c:	4603      	mov	r3, r0
 8008d8e:	73fb      	strb	r3, [r7, #15]
 8008d90:	7bfb      	ldrb	r3, [r7, #15]
 8008d92:	4618      	mov	r0, r3
 8008d94:	3710      	adds	r7, #16
 8008d96:	46bd      	mov	sp, r7
 8008d98:	bd80      	pop	{r7, pc}

08008d9a <USBD_ClrClassConfig>:
 8008d9a:	b580      	push	{r7, lr}
 8008d9c:	b084      	sub	sp, #16
 8008d9e:	af00      	add	r7, sp, #0
 8008da0:	6078      	str	r0, [r7, #4]
 8008da2:	460b      	mov	r3, r1
 8008da4:	70fb      	strb	r3, [r7, #3]
 8008da6:	2300      	movs	r3, #0
 8008da8:	73fb      	strb	r3, [r7, #15]
 8008daa:	687b      	ldr	r3, [r7, #4]
 8008dac:	f8d3 32b8 	ldr.w	r3, [r3, #696]	; 0x2b8
 8008db0:	685b      	ldr	r3, [r3, #4]
 8008db2:	78fa      	ldrb	r2, [r7, #3]
 8008db4:	4611      	mov	r1, r2
 8008db6:	6878      	ldr	r0, [r7, #4]
 8008db8:	4798      	blx	r3
 8008dba:	4603      	mov	r3, r0
 8008dbc:	2b00      	cmp	r3, #0
 8008dbe:	d001      	beq.n	8008dc4 <USBD_ClrClassConfig+0x2a>
 8008dc0:	2303      	movs	r3, #3
 8008dc2:	73fb      	strb	r3, [r7, #15]
 8008dc4:	7bfb      	ldrb	r3, [r7, #15]
 8008dc6:	4618      	mov	r0, r3
 8008dc8:	3710      	adds	r7, #16
 8008dca:	46bd      	mov	sp, r7
 8008dcc:	bd80      	pop	{r7, pc}

08008dce <USBD_LL_SetupStage>:
 8008dce:	b580      	push	{r7, lr}
 8008dd0:	b084      	sub	sp, #16
 8008dd2:	af00      	add	r7, sp, #0
 8008dd4:	6078      	str	r0, [r7, #4]
 8008dd6:	6039      	str	r1, [r7, #0]
 8008dd8:	687b      	ldr	r3, [r7, #4]
 8008dda:	f203 23aa 	addw	r3, r3, #682	; 0x2aa
 8008dde:	6839      	ldr	r1, [r7, #0]
 8008de0:	4618      	mov	r0, r3
 8008de2:	f001 f924 	bl	800a02e <USBD_ParseSetupRequest>
 8008de6:	687b      	ldr	r3, [r7, #4]
 8008de8:	2201      	movs	r2, #1
 8008dea:	f8c3 2294 	str.w	r2, [r3, #660]	; 0x294
 8008dee:	687b      	ldr	r3, [r7, #4]
 8008df0:	f8b3 32b0 	ldrh.w	r3, [r3, #688]	; 0x2b0
 8008df4:	461a      	mov	r2, r3
 8008df6:	687b      	ldr	r3, [r7, #4]
 8008df8:	f8c3 2298 	str.w	r2, [r3, #664]	; 0x298
 8008dfc:	687b      	ldr	r3, [r7, #4]
 8008dfe:	f893 32aa 	ldrb.w	r3, [r3, #682]	; 0x2aa
 8008e02:	f003 031f 	and.w	r3, r3, #31
 8008e06:	2b02      	cmp	r3, #2
 8008e08:	d01a      	beq.n	8008e40 <USBD_LL_SetupStage+0x72>
 8008e0a:	2b02      	cmp	r3, #2
 8008e0c:	d822      	bhi.n	8008e54 <USBD_LL_SetupStage+0x86>
 8008e0e:	2b00      	cmp	r3, #0
 8008e10:	d002      	beq.n	8008e18 <USBD_LL_SetupStage+0x4a>
 8008e12:	2b01      	cmp	r3, #1
 8008e14:	d00a      	beq.n	8008e2c <USBD_LL_SetupStage+0x5e>
 8008e16:	e01d      	b.n	8008e54 <USBD_LL_SetupStage+0x86>
 8008e18:	687b      	ldr	r3, [r7, #4]
 8008e1a:	f203 23aa 	addw	r3, r3, #682	; 0x2aa
 8008e1e:	4619      	mov	r1, r3
 8008e20:	6878      	ldr	r0, [r7, #4]
 8008e22:	f000 fb79 	bl	8009518 <USBD_StdDevReq>
 8008e26:	4603      	mov	r3, r0
 8008e28:	73fb      	strb	r3, [r7, #15]
 8008e2a:	e020      	b.n	8008e6e <USBD_LL_SetupStage+0xa0>
 8008e2c:	687b      	ldr	r3, [r7, #4]
 8008e2e:	f203 23aa 	addw	r3, r3, #682	; 0x2aa
 8008e32:	4619      	mov	r1, r3
 8008e34:	6878      	ldr	r0, [r7, #4]
 8008e36:	f000 fbe1 	bl	80095fc <USBD_StdItfReq>
 8008e3a:	4603      	mov	r3, r0
 8008e3c:	73fb      	strb	r3, [r7, #15]
 8008e3e:	e016      	b.n	8008e6e <USBD_LL_SetupStage+0xa0>
 8008e40:	687b      	ldr	r3, [r7, #4]
 8008e42:	f203 23aa 	addw	r3, r3, #682	; 0x2aa
 8008e46:	4619      	mov	r1, r3
 8008e48:	6878      	ldr	r0, [r7, #4]
 8008e4a:	f000 fc43 	bl	80096d4 <USBD_StdEPReq>
 8008e4e:	4603      	mov	r3, r0
 8008e50:	73fb      	strb	r3, [r7, #15]
 8008e52:	e00c      	b.n	8008e6e <USBD_LL_SetupStage+0xa0>
 8008e54:	687b      	ldr	r3, [r7, #4]
 8008e56:	f893 32aa 	ldrb.w	r3, [r3, #682]	; 0x2aa
 8008e5a:	f023 037f 	bic.w	r3, r3, #127	; 0x7f
 8008e5e:	b2db      	uxtb	r3, r3
 8008e60:	4619      	mov	r1, r3
 8008e62:	6878      	ldr	r0, [r7, #4]
 8008e64:	f001 fe7e 	bl	800ab64 <USBD_LL_StallEP>
 8008e68:	4603      	mov	r3, r0
 8008e6a:	73fb      	strb	r3, [r7, #15]
 8008e6c:	bf00      	nop
 8008e6e:	7bfb      	ldrb	r3, [r7, #15]
 8008e70:	4618      	mov	r0, r3
 8008e72:	3710      	adds	r7, #16
 8008e74:	46bd      	mov	sp, r7
 8008e76:	bd80      	pop	{r7, pc}

08008e78 <USBD_LL_DataOutStage>:
 8008e78:	b580      	push	{r7, lr}
 8008e7a:	b086      	sub	sp, #24
 8008e7c:	af00      	add	r7, sp, #0
 8008e7e:	60f8      	str	r0, [r7, #12]
 8008e80:	460b      	mov	r3, r1
 8008e82:	607a      	str	r2, [r7, #4]
 8008e84:	72fb      	strb	r3, [r7, #11]
 8008e86:	2300      	movs	r3, #0
 8008e88:	75fb      	strb	r3, [r7, #23]
 8008e8a:	7afb      	ldrb	r3, [r7, #11]
 8008e8c:	2b00      	cmp	r3, #0
 8008e8e:	d177      	bne.n	8008f80 <USBD_LL_DataOutStage+0x108>
 8008e90:	68fb      	ldr	r3, [r7, #12]
 8008e92:	f503 73aa 	add.w	r3, r3, #340	; 0x154
 8008e96:	613b      	str	r3, [r7, #16]
 8008e98:	68fb      	ldr	r3, [r7, #12]
 8008e9a:	f8d3 3294 	ldr.w	r3, [r3, #660]	; 0x294
 8008e9e:	2b03      	cmp	r3, #3
 8008ea0:	f040 80a1 	bne.w	8008fe6 <USBD_LL_DataOutStage+0x16e>
 8008ea4:	693b      	ldr	r3, [r7, #16]
 8008ea6:	685b      	ldr	r3, [r3, #4]
 8008ea8:	693a      	ldr	r2, [r7, #16]
 8008eaa:	8992      	ldrh	r2, [r2, #12]
 8008eac:	4293      	cmp	r3, r2
 8008eae:	d91c      	bls.n	8008eea <USBD_LL_DataOutStage+0x72>
 8008eb0:	693b      	ldr	r3, [r7, #16]
 8008eb2:	685b      	ldr	r3, [r3, #4]
 8008eb4:	693a      	ldr	r2, [r7, #16]
 8008eb6:	8992      	ldrh	r2, [r2, #12]
 8008eb8:	1a9a      	subs	r2, r3, r2
 8008eba:	693b      	ldr	r3, [r7, #16]
 8008ebc:	605a      	str	r2, [r3, #4]
 8008ebe:	693b      	ldr	r3, [r7, #16]
 8008ec0:	691b      	ldr	r3, [r3, #16]
 8008ec2:	693a      	ldr	r2, [r7, #16]
 8008ec4:	8992      	ldrh	r2, [r2, #12]
 8008ec6:	441a      	add	r2, r3
 8008ec8:	693b      	ldr	r3, [r7, #16]
 8008eca:	611a      	str	r2, [r3, #16]
 8008ecc:	693b      	ldr	r3, [r7, #16]
 8008ece:	6919      	ldr	r1, [r3, #16]
 8008ed0:	693b      	ldr	r3, [r7, #16]
 8008ed2:	899b      	ldrh	r3, [r3, #12]
 8008ed4:	461a      	mov	r2, r3
 8008ed6:	693b      	ldr	r3, [r7, #16]
 8008ed8:	685b      	ldr	r3, [r3, #4]
 8008eda:	4293      	cmp	r3, r2
 8008edc:	bf38      	it	cc
 8008ede:	4613      	movcc	r3, r2
 8008ee0:	461a      	mov	r2, r3
 8008ee2:	68f8      	ldr	r0, [r7, #12]
 8008ee4:	f001 f9aa 	bl	800a23c <USBD_CtlContinueRx>
 8008ee8:	e07d      	b.n	8008fe6 <USBD_LL_DataOutStage+0x16e>
 8008eea:	68fb      	ldr	r3, [r7, #12]
 8008eec:	f893 32aa 	ldrb.w	r3, [r3, #682]	; 0x2aa
 8008ef0:	f003 031f 	and.w	r3, r3, #31
 8008ef4:	2b02      	cmp	r3, #2
 8008ef6:	d014      	beq.n	8008f22 <USBD_LL_DataOutStage+0xaa>
 8008ef8:	2b02      	cmp	r3, #2
 8008efa:	d81d      	bhi.n	8008f38 <USBD_LL_DataOutStage+0xc0>
 8008efc:	2b00      	cmp	r3, #0
 8008efe:	d002      	beq.n	8008f06 <USBD_LL_DataOutStage+0x8e>
 8008f00:	2b01      	cmp	r3, #1
 8008f02:	d003      	beq.n	8008f0c <USBD_LL_DataOutStage+0x94>
 8008f04:	e018      	b.n	8008f38 <USBD_LL_DataOutStage+0xc0>
 8008f06:	2300      	movs	r3, #0
 8008f08:	75bb      	strb	r3, [r7, #22]
 8008f0a:	e018      	b.n	8008f3e <USBD_LL_DataOutStage+0xc6>
 8008f0c:	68fb      	ldr	r3, [r7, #12]
 8008f0e:	f8b3 32ae 	ldrh.w	r3, [r3, #686]	; 0x2ae
 8008f12:	b2db      	uxtb	r3, r3
 8008f14:	4619      	mov	r1, r3
 8008f16:	68f8      	ldr	r0, [r7, #12]
 8008f18:	f000 fa6e 	bl	80093f8 <USBD_CoreFindIF>
 8008f1c:	4603      	mov	r3, r0
 8008f1e:	75bb      	strb	r3, [r7, #22]
 8008f20:	e00d      	b.n	8008f3e <USBD_LL_DataOutStage+0xc6>
 8008f22:	68fb      	ldr	r3, [r7, #12]
 8008f24:	f8b3 32ae 	ldrh.w	r3, [r3, #686]	; 0x2ae
 8008f28:	b2db      	uxtb	r3, r3
 8008f2a:	4619      	mov	r1, r3
 8008f2c:	68f8      	ldr	r0, [r7, #12]
 8008f2e:	f000 fa70 	bl	8009412 <USBD_CoreFindEP>
 8008f32:	4603      	mov	r3, r0
 8008f34:	75bb      	strb	r3, [r7, #22]
 8008f36:	e002      	b.n	8008f3e <USBD_LL_DataOutStage+0xc6>
 8008f38:	2300      	movs	r3, #0
 8008f3a:	75bb      	strb	r3, [r7, #22]
 8008f3c:	bf00      	nop
 8008f3e:	7dbb      	ldrb	r3, [r7, #22]
 8008f40:	2b00      	cmp	r3, #0
 8008f42:	d119      	bne.n	8008f78 <USBD_LL_DataOutStage+0x100>
 8008f44:	68fb      	ldr	r3, [r7, #12]
 8008f46:	f893 329c 	ldrb.w	r3, [r3, #668]	; 0x29c
 8008f4a:	b2db      	uxtb	r3, r3
 8008f4c:	2b03      	cmp	r3, #3
 8008f4e:	d113      	bne.n	8008f78 <USBD_LL_DataOutStage+0x100>
 8008f50:	7dba      	ldrb	r2, [r7, #22]
 8008f52:	68fb      	ldr	r3, [r7, #12]
 8008f54:	32ae      	adds	r2, #174	; 0xae
 8008f56:	f853 3022 	ldr.w	r3, [r3, r2, lsl #2]
 8008f5a:	691b      	ldr	r3, [r3, #16]
 8008f5c:	2b00      	cmp	r3, #0
 8008f5e:	d00b      	beq.n	8008f78 <USBD_LL_DataOutStage+0x100>
 8008f60:	7dba      	ldrb	r2, [r7, #22]
 8008f62:	68fb      	ldr	r3, [r7, #12]
 8008f64:	f8c3 22d4 	str.w	r2, [r3, #724]	; 0x2d4
 8008f68:	7dba      	ldrb	r2, [r7, #22]
 8008f6a:	68fb      	ldr	r3, [r7, #12]
 8008f6c:	32ae      	adds	r2, #174	; 0xae
 8008f6e:	f853 3022 	ldr.w	r3, [r3, r2, lsl #2]
 8008f72:	691b      	ldr	r3, [r3, #16]
 8008f74:	68f8      	ldr	r0, [r7, #12]
 8008f76:	4798      	blx	r3
 8008f78:	68f8      	ldr	r0, [r7, #12]
 8008f7a:	f001 f970 	bl	800a25e <USBD_CtlSendStatus>
 8008f7e:	e032      	b.n	8008fe6 <USBD_LL_DataOutStage+0x16e>
 8008f80:	7afb      	ldrb	r3, [r7, #11]
 8008f82:	f003 037f 	and.w	r3, r3, #127	; 0x7f
 8008f86:	b2db      	uxtb	r3, r3
 8008f88:	4619      	mov	r1, r3
 8008f8a:	68f8      	ldr	r0, [r7, #12]
 8008f8c:	f000 fa41 	bl	8009412 <USBD_CoreFindEP>
 8008f90:	4603      	mov	r3, r0
 8008f92:	75bb      	strb	r3, [r7, #22]
 8008f94:	7dbb      	ldrb	r3, [r7, #22]
 8008f96:	2bff      	cmp	r3, #255	; 0xff
 8008f98:	d025      	beq.n	8008fe6 <USBD_LL_DataOutStage+0x16e>
 8008f9a:	7dbb      	ldrb	r3, [r7, #22]
 8008f9c:	2b00      	cmp	r3, #0
 8008f9e:	d122      	bne.n	8008fe6 <USBD_LL_DataOutStage+0x16e>
 8008fa0:	68fb      	ldr	r3, [r7, #12]
 8008fa2:	f893 329c 	ldrb.w	r3, [r3, #668]	; 0x29c
 8008fa6:	b2db      	uxtb	r3, r3
 8008fa8:	2b03      	cmp	r3, #3
 8008faa:	d117      	bne.n	8008fdc <USBD_LL_DataOutStage+0x164>
 8008fac:	7dba      	ldrb	r2, [r7, #22]
 8008fae:	68fb      	ldr	r3, [r7, #12]
 8008fb0:	32ae      	adds	r2, #174	; 0xae
 8008fb2:	f853 3022 	ldr.w	r3, [r3, r2, lsl #2]
 8008fb6:	699b      	ldr	r3, [r3, #24]
 8008fb8:	2b00      	cmp	r3, #0
 8008fba:	d00f      	beq.n	8008fdc <USBD_LL_DataOutStage+0x164>
 8008fbc:	7dba      	ldrb	r2, [r7, #22]
 8008fbe:	68fb      	ldr	r3, [r7, #12]
 8008fc0:	f8c3 22d4 	str.w	r2, [r3, #724]	; 0x2d4
 8008fc4:	7dba      	ldrb	r2, [r7, #22]
 8008fc6:	68fb      	ldr	r3, [r7, #12]
 8008fc8:	32ae      	adds	r2, #174	; 0xae
 8008fca:	f853 3022 	ldr.w	r3, [r3, r2, lsl #2]
 8008fce:	699b      	ldr	r3, [r3, #24]
 8008fd0:	7afa      	ldrb	r2, [r7, #11]
 8008fd2:	4611      	mov	r1, r2
 8008fd4:	68f8      	ldr	r0, [r7, #12]
 8008fd6:	4798      	blx	r3
 8008fd8:	4603      	mov	r3, r0
 8008fda:	75fb      	strb	r3, [r7, #23]
 8008fdc:	7dfb      	ldrb	r3, [r7, #23]
 8008fde:	2b00      	cmp	r3, #0
 8008fe0:	d001      	beq.n	8008fe6 <USBD_LL_DataOutStage+0x16e>
 8008fe2:	7dfb      	ldrb	r3, [r7, #23]
 8008fe4:	e000      	b.n	8008fe8 <USBD_LL_DataOutStage+0x170>
 8008fe6:	2300      	movs	r3, #0
 8008fe8:	4618      	mov	r0, r3
 8008fea:	3718      	adds	r7, #24
 8008fec:	46bd      	mov	sp, r7
 8008fee:	bd80      	pop	{r7, pc}

08008ff0 <USBD_LL_DataInStage>:
 8008ff0:	b580      	push	{r7, lr}
 8008ff2:	b086      	sub	sp, #24
 8008ff4:	af00      	add	r7, sp, #0
 8008ff6:	60f8      	str	r0, [r7, #12]
 8008ff8:	460b      	mov	r3, r1
 8008ffa:	607a      	str	r2, [r7, #4]
 8008ffc:	72fb      	strb	r3, [r7, #11]
 8008ffe:	7afb      	ldrb	r3, [r7, #11]
 8009000:	2b00      	cmp	r3, #0
 8009002:	d178      	bne.n	80090f6 <USBD_LL_DataInStage+0x106>
 8009004:	68fb      	ldr	r3, [r7, #12]
 8009006:	3314      	adds	r3, #20
 8009008:	613b      	str	r3, [r7, #16]
 800900a:	68fb      	ldr	r3, [r7, #12]
 800900c:	f8d3 3294 	ldr.w	r3, [r3, #660]	; 0x294
 8009010:	2b02      	cmp	r3, #2
 8009012:	d163      	bne.n	80090dc <USBD_LL_DataInStage+0xec>
 8009014:	693b      	ldr	r3, [r7, #16]
 8009016:	685b      	ldr	r3, [r3, #4]
 8009018:	693a      	ldr	r2, [r7, #16]
 800901a:	8992      	ldrh	r2, [r2, #12]
 800901c:	4293      	cmp	r3, r2
 800901e:	d91c      	bls.n	800905a <USBD_LL_DataInStage+0x6a>
 8009020:	693b      	ldr	r3, [r7, #16]
 8009022:	685b      	ldr	r3, [r3, #4]
 8009024:	693a      	ldr	r2, [r7, #16]
 8009026:	8992      	ldrh	r2, [r2, #12]
 8009028:	1a9a      	subs	r2, r3, r2
 800902a:	693b      	ldr	r3, [r7, #16]
 800902c:	605a      	str	r2, [r3, #4]
 800902e:	693b      	ldr	r3, [r7, #16]
 8009030:	691b      	ldr	r3, [r3, #16]
 8009032:	693a      	ldr	r2, [r7, #16]
 8009034:	8992      	ldrh	r2, [r2, #12]
 8009036:	441a      	add	r2, r3
 8009038:	693b      	ldr	r3, [r7, #16]
 800903a:	611a      	str	r2, [r3, #16]
 800903c:	693b      	ldr	r3, [r7, #16]
 800903e:	6919      	ldr	r1, [r3, #16]
 8009040:	693b      	ldr	r3, [r7, #16]
 8009042:	685b      	ldr	r3, [r3, #4]
 8009044:	461a      	mov	r2, r3
 8009046:	68f8      	ldr	r0, [r7, #12]
 8009048:	f001 f8c6 	bl	800a1d8 <USBD_CtlContinueSendData>
 800904c:	2300      	movs	r3, #0
 800904e:	2200      	movs	r2, #0
 8009050:	2100      	movs	r1, #0
 8009052:	68f8      	ldr	r0, [r7, #12]
 8009054:	f001 fe30 	bl	800acb8 <USBD_LL_PrepareReceive>
 8009058:	e040      	b.n	80090dc <USBD_LL_DataInStage+0xec>
 800905a:	693b      	ldr	r3, [r7, #16]
 800905c:	899b      	ldrh	r3, [r3, #12]
 800905e:	461a      	mov	r2, r3
 8009060:	693b      	ldr	r3, [r7, #16]
 8009062:	685b      	ldr	r3, [r3, #4]
 8009064:	429a      	cmp	r2, r3
 8009066:	d11c      	bne.n	80090a2 <USBD_LL_DataInStage+0xb2>
 8009068:	693b      	ldr	r3, [r7, #16]
 800906a:	681b      	ldr	r3, [r3, #0]
 800906c:	693a      	ldr	r2, [r7, #16]
 800906e:	8992      	ldrh	r2, [r2, #12]
 8009070:	4293      	cmp	r3, r2
 8009072:	d316      	bcc.n	80090a2 <USBD_LL_DataInStage+0xb2>
 8009074:	693b      	ldr	r3, [r7, #16]
 8009076:	681a      	ldr	r2, [r3, #0]
 8009078:	68fb      	ldr	r3, [r7, #12]
 800907a:	f8d3 3298 	ldr.w	r3, [r3, #664]	; 0x298
 800907e:	429a      	cmp	r2, r3
 8009080:	d20f      	bcs.n	80090a2 <USBD_LL_DataInStage+0xb2>
 8009082:	2200      	movs	r2, #0
 8009084:	2100      	movs	r1, #0
 8009086:	68f8      	ldr	r0, [r7, #12]
 8009088:	f001 f8a6 	bl	800a1d8 <USBD_CtlContinueSendData>
 800908c:	68fb      	ldr	r3, [r7, #12]
 800908e:	2200      	movs	r2, #0
 8009090:	f8c3 2298 	str.w	r2, [r3, #664]	; 0x298
 8009094:	2300      	movs	r3, #0
 8009096:	2200      	movs	r2, #0
 8009098:	2100      	movs	r1, #0
 800909a:	68f8      	ldr	r0, [r7, #12]
 800909c:	f001 fe0c 	bl	800acb8 <USBD_LL_PrepareReceive>
 80090a0:	e01c      	b.n	80090dc <USBD_LL_DataInStage+0xec>
 80090a2:	68fb      	ldr	r3, [r7, #12]
 80090a4:	f893 329c 	ldrb.w	r3, [r3, #668]	; 0x29c
 80090a8:	b2db      	uxtb	r3, r3
 80090aa:	2b03      	cmp	r3, #3
 80090ac:	d10f      	bne.n	80090ce <USBD_LL_DataInStage+0xde>
 80090ae:	68fb      	ldr	r3, [r7, #12]
 80090b0:	f8d3 32b8 	ldr.w	r3, [r3, #696]	; 0x2b8
 80090b4:	68db      	ldr	r3, [r3, #12]
 80090b6:	2b00      	cmp	r3, #0
 80090b8:	d009      	beq.n	80090ce <USBD_LL_DataInStage+0xde>
 80090ba:	68fb      	ldr	r3, [r7, #12]
 80090bc:	2200      	movs	r2, #0
 80090be:	f8c3 22d4 	str.w	r2, [r3, #724]	; 0x2d4
 80090c2:	68fb      	ldr	r3, [r7, #12]
 80090c4:	f8d3 32b8 	ldr.w	r3, [r3, #696]	; 0x2b8
 80090c8:	68db      	ldr	r3, [r3, #12]
 80090ca:	68f8      	ldr	r0, [r7, #12]
 80090cc:	4798      	blx	r3
 80090ce:	2180      	movs	r1, #128	; 0x80
 80090d0:	68f8      	ldr	r0, [r7, #12]
 80090d2:	f001 fd47 	bl	800ab64 <USBD_LL_StallEP>
 80090d6:	68f8      	ldr	r0, [r7, #12]
 80090d8:	f001 f8d4 	bl	800a284 <USBD_CtlReceiveStatus>
 80090dc:	68fb      	ldr	r3, [r7, #12]
 80090de:	f893 32a0 	ldrb.w	r3, [r3, #672]	; 0x2a0
 80090e2:	2b00      	cmp	r3, #0
 80090e4:	d03a      	beq.n	800915c <USBD_LL_DataInStage+0x16c>
 80090e6:	68f8      	ldr	r0, [r7, #12]
 80090e8:	f7ff fe30 	bl	8008d4c <USBD_RunTestMode>
 80090ec:	68fb      	ldr	r3, [r7, #12]
 80090ee:	2200      	movs	r2, #0
 80090f0:	f883 22a0 	strb.w	r2, [r3, #672]	; 0x2a0
 80090f4:	e032      	b.n	800915c <USBD_LL_DataInStage+0x16c>
 80090f6:	7afb      	ldrb	r3, [r7, #11]
 80090f8:	f063 037f 	orn	r3, r3, #127	; 0x7f
 80090fc:	b2db      	uxtb	r3, r3
 80090fe:	4619      	mov	r1, r3
 8009100:	68f8      	ldr	r0, [r7, #12]
 8009102:	f000 f986 	bl	8009412 <USBD_CoreFindEP>
 8009106:	4603      	mov	r3, r0
 8009108:	75fb      	strb	r3, [r7, #23]
 800910a:	7dfb      	ldrb	r3, [r7, #23]
 800910c:	2bff      	cmp	r3, #255	; 0xff
 800910e:	d025      	beq.n	800915c <USBD_LL_DataInStage+0x16c>
 8009110:	7dfb      	ldrb	r3, [r7, #23]
 8009112:	2b00      	cmp	r3, #0
 8009114:	d122      	bne.n	800915c <USBD_LL_DataInStage+0x16c>
 8009116:	68fb      	ldr	r3, [r7, #12]
 8009118:	f893 329c 	ldrb.w	r3, [r3, #668]	; 0x29c
 800911c:	b2db      	uxtb	r3, r3
 800911e:	2b03      	cmp	r3, #3
 8009120:	d11c      	bne.n	800915c <USBD_LL_DataInStage+0x16c>
 8009122:	7dfa      	ldrb	r2, [r7, #23]
 8009124:	68fb      	ldr	r3, [r7, #12]
 8009126:	32ae      	adds	r2, #174	; 0xae
 8009128:	f853 3022 	ldr.w	r3, [r3, r2, lsl #2]
 800912c:	695b      	ldr	r3, [r3, #20]
 800912e:	2b00      	cmp	r3, #0
 8009130:	d014      	beq.n	800915c <USBD_LL_DataInStage+0x16c>
 8009132:	7dfa      	ldrb	r2, [r7, #23]
 8009134:	68fb      	ldr	r3, [r7, #12]
 8009136:	f8c3 22d4 	str.w	r2, [r3, #724]	; 0x2d4
 800913a:	7dfa      	ldrb	r2, [r7, #23]
 800913c:	68fb      	ldr	r3, [r7, #12]
 800913e:	32ae      	adds	r2, #174	; 0xae
 8009140:	f853 3022 	ldr.w	r3, [r3, r2, lsl #2]
 8009144:	695b      	ldr	r3, [r3, #20]
 8009146:	7afa      	ldrb	r2, [r7, #11]
 8009148:	4611      	mov	r1, r2
 800914a:	68f8      	ldr	r0, [r7, #12]
 800914c:	4798      	blx	r3
 800914e:	4603      	mov	r3, r0
 8009150:	75bb      	strb	r3, [r7, #22]
 8009152:	7dbb      	ldrb	r3, [r7, #22]
 8009154:	2b00      	cmp	r3, #0
 8009156:	d001      	beq.n	800915c <USBD_LL_DataInStage+0x16c>
 8009158:	7dbb      	ldrb	r3, [r7, #22]
 800915a:	e000      	b.n	800915e <USBD_LL_DataInStage+0x16e>
 800915c:	2300      	movs	r3, #0
 800915e:	4618      	mov	r0, r3
 8009160:	3718      	adds	r7, #24
 8009162:	46bd      	mov	sp, r7
 8009164:	bd80      	pop	{r7, pc}

08009166 <USBD_LL_Reset>:
 8009166:	b580      	push	{r7, lr}
 8009168:	b084      	sub	sp, #16
 800916a:	af00      	add	r7, sp, #0
 800916c:	6078      	str	r0, [r7, #4]
 800916e:	2300      	movs	r3, #0
 8009170:	73fb      	strb	r3, [r7, #15]
 8009172:	687b      	ldr	r3, [r7, #4]
 8009174:	2201      	movs	r2, #1
 8009176:	f883 229c 	strb.w	r2, [r3, #668]	; 0x29c
 800917a:	687b      	ldr	r3, [r7, #4]
 800917c:	2200      	movs	r2, #0
 800917e:	f8c3 2294 	str.w	r2, [r3, #660]	; 0x294
 8009182:	687b      	ldr	r3, [r7, #4]
 8009184:	2200      	movs	r2, #0
 8009186:	605a      	str	r2, [r3, #4]
 8009188:	687b      	ldr	r3, [r7, #4]
 800918a:	2200      	movs	r2, #0
 800918c:	f8c3 22a4 	str.w	r2, [r3, #676]	; 0x2a4
 8009190:	687b      	ldr	r3, [r7, #4]
 8009192:	2200      	movs	r2, #0
 8009194:	f883 22a0 	strb.w	r2, [r3, #672]	; 0x2a0
 8009198:	687b      	ldr	r3, [r7, #4]
 800919a:	f8d3 32b8 	ldr.w	r3, [r3, #696]	; 0x2b8
 800919e:	2b00      	cmp	r3, #0
 80091a0:	d014      	beq.n	80091cc <USBD_LL_Reset+0x66>
 80091a2:	687b      	ldr	r3, [r7, #4]
 80091a4:	f8d3 32b8 	ldr.w	r3, [r3, #696]	; 0x2b8
 80091a8:	685b      	ldr	r3, [r3, #4]
 80091aa:	2b00      	cmp	r3, #0
 80091ac:	d00e      	beq.n	80091cc <USBD_LL_Reset+0x66>
 80091ae:	687b      	ldr	r3, [r7, #4]
 80091b0:	f8d3 32b8 	ldr.w	r3, [r3, #696]	; 0x2b8
 80091b4:	685b      	ldr	r3, [r3, #4]
 80091b6:	687a      	ldr	r2, [r7, #4]
 80091b8:	6852      	ldr	r2, [r2, #4]
 80091ba:	b2d2      	uxtb	r2, r2
 80091bc:	4611      	mov	r1, r2
 80091be:	6878      	ldr	r0, [r7, #4]
 80091c0:	4798      	blx	r3
 80091c2:	4603      	mov	r3, r0
 80091c4:	2b00      	cmp	r3, #0
 80091c6:	d001      	beq.n	80091cc <USBD_LL_Reset+0x66>
 80091c8:	2303      	movs	r3, #3
 80091ca:	73fb      	strb	r3, [r7, #15]
 80091cc:	2340      	movs	r3, #64	; 0x40
 80091ce:	2200      	movs	r2, #0
 80091d0:	2100      	movs	r1, #0
 80091d2:	6878      	ldr	r0, [r7, #4]
 80091d4:	f001 fc81 	bl	800aada <USBD_LL_OpenEP>
 80091d8:	687b      	ldr	r3, [r7, #4]
 80091da:	2201      	movs	r2, #1
 80091dc:	f883 2163 	strb.w	r2, [r3, #355]	; 0x163
 80091e0:	687b      	ldr	r3, [r7, #4]
 80091e2:	2240      	movs	r2, #64	; 0x40
 80091e4:	f8a3 2160 	strh.w	r2, [r3, #352]	; 0x160
 80091e8:	2340      	movs	r3, #64	; 0x40
 80091ea:	2200      	movs	r2, #0
 80091ec:	2180      	movs	r1, #128	; 0x80
 80091ee:	6878      	ldr	r0, [r7, #4]
 80091f0:	f001 fc73 	bl	800aada <USBD_LL_OpenEP>
 80091f4:	687b      	ldr	r3, [r7, #4]
 80091f6:	2201      	movs	r2, #1
 80091f8:	f883 2023 	strb.w	r2, [r3, #35]	; 0x23
 80091fc:	687b      	ldr	r3, [r7, #4]
 80091fe:	2240      	movs	r2, #64	; 0x40
 8009200:	841a      	strh	r2, [r3, #32]
 8009202:	7bfb      	ldrb	r3, [r7, #15]
 8009204:	4618      	mov	r0, r3
 8009206:	3710      	adds	r7, #16
 8009208:	46bd      	mov	sp, r7
 800920a:	bd80      	pop	{r7, pc}

0800920c <USBD_LL_SetSpeed>:
 800920c:	b480      	push	{r7}
 800920e:	b083      	sub	sp, #12
 8009210:	af00      	add	r7, sp, #0
 8009212:	6078      	str	r0, [r7, #4]
 8009214:	460b      	mov	r3, r1
 8009216:	70fb      	strb	r3, [r7, #3]
 8009218:	687b      	ldr	r3, [r7, #4]
 800921a:	78fa      	ldrb	r2, [r7, #3]
 800921c:	741a      	strb	r2, [r3, #16]
 800921e:	2300      	movs	r3, #0
 8009220:	4618      	mov	r0, r3
 8009222:	370c      	adds	r7, #12
 8009224:	46bd      	mov	sp, r7
 8009226:	f85d 7b04 	ldr.w	r7, [sp], #4
 800922a:	4770      	bx	lr

0800922c <USBD_LL_Suspend>:
 800922c:	b480      	push	{r7}
 800922e:	b083      	sub	sp, #12
 8009230:	af00      	add	r7, sp, #0
 8009232:	6078      	str	r0, [r7, #4]
 8009234:	687b      	ldr	r3, [r7, #4]
 8009236:	f893 329c 	ldrb.w	r3, [r3, #668]	; 0x29c
 800923a:	b2db      	uxtb	r3, r3
 800923c:	2b04      	cmp	r3, #4
 800923e:	d006      	beq.n	800924e <USBD_LL_Suspend+0x22>
 8009240:	687b      	ldr	r3, [r7, #4]
 8009242:	f893 329c 	ldrb.w	r3, [r3, #668]	; 0x29c
 8009246:	b2da      	uxtb	r2, r3
 8009248:	687b      	ldr	r3, [r7, #4]
 800924a:	f883 229d 	strb.w	r2, [r3, #669]	; 0x29d
 800924e:	687b      	ldr	r3, [r7, #4]
 8009250:	2204      	movs	r2, #4
 8009252:	f883 229c 	strb.w	r2, [r3, #668]	; 0x29c
 8009256:	2300      	movs	r3, #0
 8009258:	4618      	mov	r0, r3
 800925a:	370c      	adds	r7, #12
 800925c:	46bd      	mov	sp, r7
 800925e:	f85d 7b04 	ldr.w	r7, [sp], #4
 8009262:	4770      	bx	lr

08009264 <USBD_LL_Resume>:
 8009264:	b480      	push	{r7}
 8009266:	b083      	sub	sp, #12
 8009268:	af00      	add	r7, sp, #0
 800926a:	6078      	str	r0, [r7, #4]
 800926c:	687b      	ldr	r3, [r7, #4]
 800926e:	f893 329c 	ldrb.w	r3, [r3, #668]	; 0x29c
 8009272:	b2db      	uxtb	r3, r3
 8009274:	2b04      	cmp	r3, #4
 8009276:	d106      	bne.n	8009286 <USBD_LL_Resume+0x22>
 8009278:	687b      	ldr	r3, [r7, #4]
 800927a:	f893 329d 	ldrb.w	r3, [r3, #669]	; 0x29d
 800927e:	b2da      	uxtb	r2, r3
 8009280:	687b      	ldr	r3, [r7, #4]
 8009282:	f883 229c 	strb.w	r2, [r3, #668]	; 0x29c
 8009286:	2300      	movs	r3, #0
 8009288:	4618      	mov	r0, r3
 800928a:	370c      	adds	r7, #12
 800928c:	46bd      	mov	sp, r7
 800928e:	f85d 7b04 	ldr.w	r7, [sp], #4
 8009292:	4770      	bx	lr

08009294 <USBD_LL_SOF>:
 8009294:	b580      	push	{r7, lr}
 8009296:	b082      	sub	sp, #8
 8009298:	af00      	add	r7, sp, #0
 800929a:	6078      	str	r0, [r7, #4]
 800929c:	687b      	ldr	r3, [r7, #4]
 800929e:	f893 329c 	ldrb.w	r3, [r3, #668]	; 0x29c
 80092a2:	b2db      	uxtb	r3, r3
 80092a4:	2b03      	cmp	r3, #3
 80092a6:	d110      	bne.n	80092ca <USBD_LL_SOF+0x36>
 80092a8:	687b      	ldr	r3, [r7, #4]
 80092aa:	f8d3 32b8 	ldr.w	r3, [r3, #696]	; 0x2b8
 80092ae:	2b00      	cmp	r3, #0
 80092b0:	d00b      	beq.n	80092ca <USBD_LL_SOF+0x36>
 80092b2:	687b      	ldr	r3, [r7, #4]
 80092b4:	f8d3 32b8 	ldr.w	r3, [r3, #696]	; 0x2b8
 80092b8:	69db      	ldr	r3, [r3, #28]
 80092ba:	2b00      	cmp	r3, #0
 80092bc:	d005      	beq.n	80092ca <USBD_LL_SOF+0x36>
 80092be:	687b      	ldr	r3, [r7, #4]
 80092c0:	f8d3 32b8 	ldr.w	r3, [r3, #696]	; 0x2b8
 80092c4:	69db      	ldr	r3, [r3, #28]
 80092c6:	6878      	ldr	r0, [r7, #4]
 80092c8:	4798      	blx	r3
 80092ca:	2300      	movs	r3, #0
 80092cc:	4618      	mov	r0, r3
 80092ce:	3708      	adds	r7, #8
 80092d0:	46bd      	mov	sp, r7
 80092d2:	bd80      	pop	{r7, pc}

080092d4 <USBD_LL_IsoINIncomplete>:
 80092d4:	b580      	push	{r7, lr}
 80092d6:	b082      	sub	sp, #8
 80092d8:	af00      	add	r7, sp, #0
 80092da:	6078      	str	r0, [r7, #4]
 80092dc:	460b      	mov	r3, r1
 80092de:	70fb      	strb	r3, [r7, #3]
 80092e0:	687b      	ldr	r3, [r7, #4]
 80092e2:	f8d3 22d4 	ldr.w	r2, [r3, #724]	; 0x2d4
 80092e6:	687b      	ldr	r3, [r7, #4]
 80092e8:	32ae      	adds	r2, #174	; 0xae
 80092ea:	f853 3022 	ldr.w	r3, [r3, r2, lsl #2]
 80092ee:	2b00      	cmp	r3, #0
 80092f0:	d101      	bne.n	80092f6 <USBD_LL_IsoINIncomplete+0x22>
 80092f2:	2303      	movs	r3, #3
 80092f4:	e01c      	b.n	8009330 <USBD_LL_IsoINIncomplete+0x5c>
 80092f6:	687b      	ldr	r3, [r7, #4]
 80092f8:	f893 329c 	ldrb.w	r3, [r3, #668]	; 0x29c
 80092fc:	b2db      	uxtb	r3, r3
 80092fe:	2b03      	cmp	r3, #3
 8009300:	d115      	bne.n	800932e <USBD_LL_IsoINIncomplete+0x5a>
 8009302:	687b      	ldr	r3, [r7, #4]
 8009304:	f8d3 22d4 	ldr.w	r2, [r3, #724]	; 0x2d4
 8009308:	687b      	ldr	r3, [r7, #4]
 800930a:	32ae      	adds	r2, #174	; 0xae
 800930c:	f853 3022 	ldr.w	r3, [r3, r2, lsl #2]
 8009310:	6a1b      	ldr	r3, [r3, #32]
 8009312:	2b00      	cmp	r3, #0
 8009314:	d00b      	beq.n	800932e <USBD_LL_IsoINIncomplete+0x5a>
 8009316:	687b      	ldr	r3, [r7, #4]
 8009318:	f8d3 22d4 	ldr.w	r2, [r3, #724]	; 0x2d4
 800931c:	687b      	ldr	r3, [r7, #4]
 800931e:	32ae      	adds	r2, #174	; 0xae
 8009320:	f853 3022 	ldr.w	r3, [r3, r2, lsl #2]
 8009324:	6a1b      	ldr	r3, [r3, #32]
 8009326:	78fa      	ldrb	r2, [r7, #3]
 8009328:	4611      	mov	r1, r2
 800932a:	6878      	ldr	r0, [r7, #4]
 800932c:	4798      	blx	r3
 800932e:	2300      	movs	r3, #0
 8009330:	4618      	mov	r0, r3
 8009332:	3708      	adds	r7, #8
 8009334:	46bd      	mov	sp, r7
 8009336:	bd80      	pop	{r7, pc}

08009338 <USBD_LL_IsoOUTIncomplete>:
 8009338:	b580      	push	{r7, lr}
 800933a:	b082      	sub	sp, #8
 800933c:	af00      	add	r7, sp, #0
 800933e:	6078      	str	r0, [r7, #4]
 8009340:	460b      	mov	r3, r1
 8009342:	70fb      	strb	r3, [r7, #3]
 8009344:	687b      	ldr	r3, [r7, #4]
 8009346:	f8d3 22d4 	ldr.w	r2, [r3, #724]	; 0x2d4
 800934a:	687b      	ldr	r3, [r7, #4]
 800934c:	32ae      	adds	r2, #174	; 0xae
 800934e:	f853 3022 	ldr.w	r3, [r3, r2, lsl #2]
 8009352:	2b00      	cmp	r3, #0
 8009354:	d101      	bne.n	800935a <USBD_LL_IsoOUTIncomplete+0x22>
 8009356:	2303      	movs	r3, #3
 8009358:	e01c      	b.n	8009394 <USBD_LL_IsoOUTIncomplete+0x5c>
 800935a:	687b      	ldr	r3, [r7, #4]
 800935c:	f893 329c 	ldrb.w	r3, [r3, #668]	; 0x29c
 8009360:	b2db      	uxtb	r3, r3
 8009362:	2b03      	cmp	r3, #3
 8009364:	d115      	bne.n	8009392 <USBD_LL_IsoOUTIncomplete+0x5a>
 8009366:	687b      	ldr	r3, [r7, #4]
 8009368:	f8d3 22d4 	ldr.w	r2, [r3, #724]	; 0x2d4
 800936c:	687b      	ldr	r3, [r7, #4]
 800936e:	32ae      	adds	r2, #174	; 0xae
 8009370:	f853 3022 	ldr.w	r3, [r3, r2, lsl #2]
 8009374:	6a5b      	ldr	r3, [r3, #36]	; 0x24
 8009376:	2b00      	cmp	r3, #0
 8009378:	d00b      	beq.n	8009392 <USBD_LL_IsoOUTIncomplete+0x5a>
 800937a:	687b      	ldr	r3, [r7, #4]
 800937c:	f8d3 22d4 	ldr.w	r2, [r3, #724]	; 0x2d4
 8009380:	687b      	ldr	r3, [r7, #4]
 8009382:	32ae      	adds	r2, #174	; 0xae
 8009384:	f853 3022 	ldr.w	r3, [r3, r2, lsl #2]
 8009388:	6a5b      	ldr	r3, [r3, #36]	; 0x24
 800938a:	78fa      	ldrb	r2, [r7, #3]
 800938c:	4611      	mov	r1, r2
 800938e:	6878      	ldr	r0, [r7, #4]
 8009390:	4798      	blx	r3
 8009392:	2300      	movs	r3, #0
 8009394:	4618      	mov	r0, r3
 8009396:	3708      	adds	r7, #8
 8009398:	46bd      	mov	sp, r7
 800939a:	bd80      	pop	{r7, pc}

0800939c <USBD_LL_DevConnected>:
 800939c:	b480      	push	{r7}
 800939e:	b083      	sub	sp, #12
 80093a0:	af00      	add	r7, sp, #0
 80093a2:	6078      	str	r0, [r7, #4]
 80093a4:	2300      	movs	r3, #0
 80093a6:	4618      	mov	r0, r3
 80093a8:	370c      	adds	r7, #12
 80093aa:	46bd      	mov	sp, r7
 80093ac:	f85d 7b04 	ldr.w	r7, [sp], #4
 80093b0:	4770      	bx	lr

080093b2 <USBD_LL_DevDisconnected>:
 80093b2:	b580      	push	{r7, lr}
 80093b4:	b084      	sub	sp, #16
 80093b6:	af00      	add	r7, sp, #0
 80093b8:	6078      	str	r0, [r7, #4]
 80093ba:	2300      	movs	r3, #0
 80093bc:	73fb      	strb	r3, [r7, #15]
 80093be:	687b      	ldr	r3, [r7, #4]
 80093c0:	2201      	movs	r2, #1
 80093c2:	f883 229c 	strb.w	r2, [r3, #668]	; 0x29c
 80093c6:	687b      	ldr	r3, [r7, #4]
 80093c8:	f8d3 32b8 	ldr.w	r3, [r3, #696]	; 0x2b8
 80093cc:	2b00      	cmp	r3, #0
 80093ce:	d00e      	beq.n	80093ee <USBD_LL_DevDisconnected+0x3c>
 80093d0:	687b      	ldr	r3, [r7, #4]
 80093d2:	f8d3 32b8 	ldr.w	r3, [r3, #696]	; 0x2b8
 80093d6:	685b      	ldr	r3, [r3, #4]
 80093d8:	687a      	ldr	r2, [r7, #4]
 80093da:	6852      	ldr	r2, [r2, #4]
 80093dc:	b2d2      	uxtb	r2, r2
 80093de:	4611      	mov	r1, r2
 80093e0:	6878      	ldr	r0, [r7, #4]
 80093e2:	4798      	blx	r3
 80093e4:	4603      	mov	r3, r0
 80093e6:	2b00      	cmp	r3, #0
 80093e8:	d001      	beq.n	80093ee <USBD_LL_DevDisconnected+0x3c>
 80093ea:	2303      	movs	r3, #3
 80093ec:	73fb      	strb	r3, [r7, #15]
 80093ee:	7bfb      	ldrb	r3, [r7, #15]
 80093f0:	4618      	mov	r0, r3
 80093f2:	3710      	adds	r7, #16
 80093f4:	46bd      	mov	sp, r7
 80093f6:	bd80      	pop	{r7, pc}

080093f8 <USBD_CoreFindIF>:
 80093f8:	b480      	push	{r7}
 80093fa:	b083      	sub	sp, #12
 80093fc:	af00      	add	r7, sp, #0
 80093fe:	6078      	str	r0, [r7, #4]
 8009400:	460b      	mov	r3, r1
 8009402:	70fb      	strb	r3, [r7, #3]
 8009404:	2300      	movs	r3, #0
 8009406:	4618      	mov	r0, r3
 8009408:	370c      	adds	r7, #12
 800940a:	46bd      	mov	sp, r7
 800940c:	f85d 7b04 	ldr.w	r7, [sp], #4
 8009410:	4770      	bx	lr

08009412 <USBD_CoreFindEP>:
 8009412:	b480      	push	{r7}
 8009414:	b083      	sub	sp, #12
 8009416:	af00      	add	r7, sp, #0
 8009418:	6078      	str	r0, [r7, #4]
 800941a:	460b      	mov	r3, r1
 800941c:	70fb      	strb	r3, [r7, #3]
 800941e:	2300      	movs	r3, #0
 8009420:	4618      	mov	r0, r3
 8009422:	370c      	adds	r7, #12
 8009424:	46bd      	mov	sp, r7
 8009426:	f85d 7b04 	ldr.w	r7, [sp], #4
 800942a:	4770      	bx	lr

0800942c <USBD_GetEpDesc>:
 800942c:	b580      	push	{r7, lr}
 800942e:	b086      	sub	sp, #24
 8009430:	af00      	add	r7, sp, #0
 8009432:	6078      	str	r0, [r7, #4]
 8009434:	460b      	mov	r3, r1
 8009436:	70fb      	strb	r3, [r7, #3]
 8009438:	687b      	ldr	r3, [r7, #4]
 800943a:	617b      	str	r3, [r7, #20]
 800943c:	687b      	ldr	r3, [r7, #4]
 800943e:	60fb      	str	r3, [r7, #12]
 8009440:	2300      	movs	r3, #0
 8009442:	613b      	str	r3, [r7, #16]
 8009444:	68fb      	ldr	r3, [r7, #12]
 8009446:	885b      	ldrh	r3, [r3, #2]
 8009448:	b29a      	uxth	r2, r3
 800944a:	68fb      	ldr	r3, [r7, #12]
 800944c:	781b      	ldrb	r3, [r3, #0]
 800944e:	b29b      	uxth	r3, r3
 8009450:	429a      	cmp	r2, r3
 8009452:	d920      	bls.n	8009496 <USBD_GetEpDesc+0x6a>
 8009454:	68fb      	ldr	r3, [r7, #12]
 8009456:	781b      	ldrb	r3, [r3, #0]
 8009458:	b29b      	uxth	r3, r3
 800945a:	817b      	strh	r3, [r7, #10]
 800945c:	e013      	b.n	8009486 <USBD_GetEpDesc+0x5a>
 800945e:	f107 030a 	add.w	r3, r7, #10
 8009462:	4619      	mov	r1, r3
 8009464:	6978      	ldr	r0, [r7, #20]
 8009466:	f000 f81b 	bl	80094a0 <USBD_GetNextDesc>
 800946a:	6178      	str	r0, [r7, #20]
 800946c:	697b      	ldr	r3, [r7, #20]
 800946e:	785b      	ldrb	r3, [r3, #1]
 8009470:	2b05      	cmp	r3, #5
 8009472:	d108      	bne.n	8009486 <USBD_GetEpDesc+0x5a>
 8009474:	697b      	ldr	r3, [r7, #20]
 8009476:	613b      	str	r3, [r7, #16]
 8009478:	693b      	ldr	r3, [r7, #16]
 800947a:	789b      	ldrb	r3, [r3, #2]
 800947c:	78fa      	ldrb	r2, [r7, #3]
 800947e:	429a      	cmp	r2, r3
 8009480:	d008      	beq.n	8009494 <USBD_GetEpDesc+0x68>
 8009482:	2300      	movs	r3, #0
 8009484:	613b      	str	r3, [r7, #16]
 8009486:	68fb      	ldr	r3, [r7, #12]
 8009488:	885b      	ldrh	r3, [r3, #2]
 800948a:	b29a      	uxth	r2, r3
 800948c:	897b      	ldrh	r3, [r7, #10]
 800948e:	429a      	cmp	r2, r3
 8009490:	d8e5      	bhi.n	800945e <USBD_GetEpDesc+0x32>
 8009492:	e000      	b.n	8009496 <USBD_GetEpDesc+0x6a>
 8009494:	bf00      	nop
 8009496:	693b      	ldr	r3, [r7, #16]
 8009498:	4618      	mov	r0, r3
 800949a:	3718      	adds	r7, #24
 800949c:	46bd      	mov	sp, r7
 800949e:	bd80      	pop	{r7, pc}

080094a0 <USBD_GetNextDesc>:
 80094a0:	b480      	push	{r7}
 80094a2:	b085      	sub	sp, #20
 80094a4:	af00      	add	r7, sp, #0
 80094a6:	6078      	str	r0, [r7, #4]
 80094a8:	6039      	str	r1, [r7, #0]
 80094aa:	687b      	ldr	r3, [r7, #4]
 80094ac:	60fb      	str	r3, [r7, #12]
 80094ae:	683b      	ldr	r3, [r7, #0]
 80094b0:	881a      	ldrh	r2, [r3, #0]
 80094b2:	68fb      	ldr	r3, [r7, #12]
 80094b4:	781b      	ldrb	r3, [r3, #0]
 80094b6:	b29b      	uxth	r3, r3
 80094b8:	4413      	add	r3, r2
 80094ba:	b29a      	uxth	r2, r3
 80094bc:	683b      	ldr	r3, [r7, #0]
 80094be:	801a      	strh	r2, [r3, #0]
 80094c0:	68fb      	ldr	r3, [r7, #12]
 80094c2:	781b      	ldrb	r3, [r3, #0]
 80094c4:	461a      	mov	r2, r3
 80094c6:	687b      	ldr	r3, [r7, #4]
 80094c8:	4413      	add	r3, r2
 80094ca:	60fb      	str	r3, [r7, #12]
 80094cc:	68fb      	ldr	r3, [r7, #12]
 80094ce:	4618      	mov	r0, r3
 80094d0:	3714      	adds	r7, #20
 80094d2:	46bd      	mov	sp, r7
 80094d4:	f85d 7b04 	ldr.w	r7, [sp], #4
 80094d8:	4770      	bx	lr

080094da <SWAPBYTE>:
 80094da:	b480      	push	{r7}
 80094dc:	b087      	sub	sp, #28
 80094de:	af00      	add	r7, sp, #0
 80094e0:	6078      	str	r0, [r7, #4]
 80094e2:	687b      	ldr	r3, [r7, #4]
 80094e4:	617b      	str	r3, [r7, #20]
 80094e6:	697b      	ldr	r3, [r7, #20]
 80094e8:	781b      	ldrb	r3, [r3, #0]
 80094ea:	827b      	strh	r3, [r7, #18]
 80094ec:	697b      	ldr	r3, [r7, #20]
 80094ee:	3301      	adds	r3, #1
 80094f0:	617b      	str	r3, [r7, #20]
 80094f2:	697b      	ldr	r3, [r7, #20]
 80094f4:	781b      	ldrb	r3, [r3, #0]
 80094f6:	823b      	strh	r3, [r7, #16]
 80094f8:	8a3b      	ldrh	r3, [r7, #16]
 80094fa:	021b      	lsls	r3, r3, #8
 80094fc:	b21a      	sxth	r2, r3
 80094fe:	f9b7 3012 	ldrsh.w	r3, [r7, #18]
 8009502:	4313      	orrs	r3, r2
 8009504:	b21b      	sxth	r3, r3
 8009506:	81fb      	strh	r3, [r7, #14]
 8009508:	89fb      	ldrh	r3, [r7, #14]
 800950a:	4618      	mov	r0, r3
 800950c:	371c      	adds	r7, #28
 800950e:	46bd      	mov	sp, r7
 8009510:	f85d 7b04 	ldr.w	r7, [sp], #4
 8009514:	4770      	bx	lr
	...

08009518 <USBD_StdDevReq>:
 8009518:	b580      	push	{r7, lr}
 800951a:	b084      	sub	sp, #16
 800951c:	af00      	add	r7, sp, #0
 800951e:	6078      	str	r0, [r7, #4]
 8009520:	6039      	str	r1, [r7, #0]
 8009522:	2300      	movs	r3, #0
 8009524:	73fb      	strb	r3, [r7, #15]
 8009526:	683b      	ldr	r3, [r7, #0]
 8009528:	781b      	ldrb	r3, [r3, #0]
 800952a:	f003 0360 	and.w	r3, r3, #96	; 0x60
 800952e:	2b40      	cmp	r3, #64	; 0x40
 8009530:	d005      	beq.n	800953e <USBD_StdDevReq+0x26>
 8009532:	2b40      	cmp	r3, #64	; 0x40
 8009534:	d857      	bhi.n	80095e6 <USBD_StdDevReq+0xce>
 8009536:	2b00      	cmp	r3, #0
 8009538:	d00f      	beq.n	800955a <USBD_StdDevReq+0x42>
 800953a:	2b20      	cmp	r3, #32
 800953c:	d153      	bne.n	80095e6 <USBD_StdDevReq+0xce>
 800953e:	687b      	ldr	r3, [r7, #4]
 8009540:	f8d3 22d4 	ldr.w	r2, [r3, #724]	; 0x2d4
 8009544:	687b      	ldr	r3, [r7, #4]
 8009546:	32ae      	adds	r2, #174	; 0xae
 8009548:	f853 3022 	ldr.w	r3, [r3, r2, lsl #2]
 800954c:	689b      	ldr	r3, [r3, #8]
 800954e:	6839      	ldr	r1, [r7, #0]
 8009550:	6878      	ldr	r0, [r7, #4]
 8009552:	4798      	blx	r3
 8009554:	4603      	mov	r3, r0
 8009556:	73fb      	strb	r3, [r7, #15]
 8009558:	e04a      	b.n	80095f0 <USBD_StdDevReq+0xd8>
 800955a:	683b      	ldr	r3, [r7, #0]
 800955c:	785b      	ldrb	r3, [r3, #1]
 800955e:	2b09      	cmp	r3, #9
 8009560:	d83b      	bhi.n	80095da <USBD_StdDevReq+0xc2>
 8009562:	a201      	add	r2, pc, #4	; (adr r2, 8009568 <USBD_StdDevReq+0x50>)
 8009564:	f852 f023 	ldr.w	pc, [r2, r3, lsl #2]
 8009568:	080095bd 	.word	0x080095bd
 800956c:	080095d1 	.word	0x080095d1
 8009570:	080095db 	.word	0x080095db
 8009574:	080095c7 	.word	0x080095c7
 8009578:	080095db 	.word	0x080095db
 800957c:	0800959b 	.word	0x0800959b
 8009580:	08009591 	.word	0x08009591
 8009584:	080095db 	.word	0x080095db
 8009588:	080095b3 	.word	0x080095b3
 800958c:	080095a5 	.word	0x080095a5
 8009590:	6839      	ldr	r1, [r7, #0]
 8009592:	6878      	ldr	r0, [r7, #4]
 8009594:	f000 fa3e 	bl	8009a14 <USBD_GetDescriptor>
 8009598:	e024      	b.n	80095e4 <USBD_StdDevReq+0xcc>
 800959a:	6839      	ldr	r1, [r7, #0]
 800959c:	6878      	ldr	r0, [r7, #4]
 800959e:	f000 fba3 	bl	8009ce8 <USBD_SetAddress>
 80095a2:	e01f      	b.n	80095e4 <USBD_StdDevReq+0xcc>
 80095a4:	6839      	ldr	r1, [r7, #0]
 80095a6:	6878      	ldr	r0, [r7, #4]
 80095a8:	f000 fbe2 	bl	8009d70 <USBD_SetConfig>
 80095ac:	4603      	mov	r3, r0
 80095ae:	73fb      	strb	r3, [r7, #15]
 80095b0:	e018      	b.n	80095e4 <USBD_StdDevReq+0xcc>
 80095b2:	6839      	ldr	r1, [r7, #0]
 80095b4:	6878      	ldr	r0, [r7, #4]
 80095b6:	f000 fc85 	bl	8009ec4 <USBD_GetConfig>
 80095ba:	e013      	b.n	80095e4 <USBD_StdDevReq+0xcc>
 80095bc:	6839      	ldr	r1, [r7, #0]
 80095be:	6878      	ldr	r0, [r7, #4]
 80095c0:	f000 fcb6 	bl	8009f30 <USBD_GetStatus>
 80095c4:	e00e      	b.n	80095e4 <USBD_StdDevReq+0xcc>
 80095c6:	6839      	ldr	r1, [r7, #0]
 80095c8:	6878      	ldr	r0, [r7, #4]
 80095ca:	f000 fce5 	bl	8009f98 <USBD_SetFeature>
 80095ce:	e009      	b.n	80095e4 <USBD_StdDevReq+0xcc>
 80095d0:	6839      	ldr	r1, [r7, #0]
 80095d2:	6878      	ldr	r0, [r7, #4]
 80095d4:	f000 fd09 	bl	8009fea <USBD_ClrFeature>
 80095d8:	e004      	b.n	80095e4 <USBD_StdDevReq+0xcc>
 80095da:	6839      	ldr	r1, [r7, #0]
 80095dc:	6878      	ldr	r0, [r7, #4]
 80095de:	f000 fd60 	bl	800a0a2 <USBD_CtlError>
 80095e2:	bf00      	nop
 80095e4:	e004      	b.n	80095f0 <USBD_StdDevReq+0xd8>
 80095e6:	6839      	ldr	r1, [r7, #0]
 80095e8:	6878      	ldr	r0, [r7, #4]
 80095ea:	f000 fd5a 	bl	800a0a2 <USBD_CtlError>
 80095ee:	bf00      	nop
 80095f0:	7bfb      	ldrb	r3, [r7, #15]
 80095f2:	4618      	mov	r0, r3
 80095f4:	3710      	adds	r7, #16
 80095f6:	46bd      	mov	sp, r7
 80095f8:	bd80      	pop	{r7, pc}
 80095fa:	bf00      	nop

080095fc <USBD_StdItfReq>:
 80095fc:	b580      	push	{r7, lr}
 80095fe:	b084      	sub	sp, #16
 8009600:	af00      	add	r7, sp, #0
 8009602:	6078      	str	r0, [r7, #4]
 8009604:	6039      	str	r1, [r7, #0]
 8009606:	2300      	movs	r3, #0
 8009608:	73fb      	strb	r3, [r7, #15]
 800960a:	683b      	ldr	r3, [r7, #0]
 800960c:	781b      	ldrb	r3, [r3, #0]
 800960e:	f003 0360 	and.w	r3, r3, #96	; 0x60
 8009612:	2b40      	cmp	r3, #64	; 0x40
 8009614:	d005      	beq.n	8009622 <USBD_StdItfReq+0x26>
 8009616:	2b40      	cmp	r3, #64	; 0x40
 8009618:	d852      	bhi.n	80096c0 <USBD_StdItfReq+0xc4>
 800961a:	2b00      	cmp	r3, #0
 800961c:	d001      	beq.n	8009622 <USBD_StdItfReq+0x26>
 800961e:	2b20      	cmp	r3, #32
 8009620:	d14e      	bne.n	80096c0 <USBD_StdItfReq+0xc4>
 8009622:	687b      	ldr	r3, [r7, #4]
 8009624:	f893 329c 	ldrb.w	r3, [r3, #668]	; 0x29c
 8009628:	b2db      	uxtb	r3, r3
 800962a:	3b01      	subs	r3, #1
 800962c:	2b02      	cmp	r3, #2
 800962e:	d840      	bhi.n	80096b2 <USBD_StdItfReq+0xb6>
 8009630:	683b      	ldr	r3, [r7, #0]
 8009632:	889b      	ldrh	r3, [r3, #4]
 8009634:	b2db      	uxtb	r3, r3
 8009636:	2b01      	cmp	r3, #1
 8009638:	d836      	bhi.n	80096a8 <USBD_StdItfReq+0xac>
 800963a:	683b      	ldr	r3, [r7, #0]
 800963c:	889b      	ldrh	r3, [r3, #4]
 800963e:	b2db      	uxtb	r3, r3
 8009640:	4619      	mov	r1, r3
 8009642:	6878      	ldr	r0, [r7, #4]
 8009644:	f7ff fed8 	bl	80093f8 <USBD_CoreFindIF>
 8009648:	4603      	mov	r3, r0
 800964a:	73bb      	strb	r3, [r7, #14]
 800964c:	7bbb      	ldrb	r3, [r7, #14]
 800964e:	2bff      	cmp	r3, #255	; 0xff
 8009650:	d01d      	beq.n	800968e <USBD_StdItfReq+0x92>
 8009652:	7bbb      	ldrb	r3, [r7, #14]
 8009654:	2b00      	cmp	r3, #0
 8009656:	d11a      	bne.n	800968e <USBD_StdItfReq+0x92>
 8009658:	7bba      	ldrb	r2, [r7, #14]
 800965a:	687b      	ldr	r3, [r7, #4]
 800965c:	32ae      	adds	r2, #174	; 0xae
 800965e:	f853 3022 	ldr.w	r3, [r3, r2, lsl #2]
 8009662:	689b      	ldr	r3, [r3, #8]
 8009664:	2b00      	cmp	r3, #0
 8009666:	d00f      	beq.n	8009688 <USBD_StdItfReq+0x8c>
 8009668:	7bba      	ldrb	r2, [r7, #14]
 800966a:	687b      	ldr	r3, [r7, #4]
 800966c:	f8c3 22d4 	str.w	r2, [r3, #724]	; 0x2d4
 8009670:	7bba      	ldrb	r2, [r7, #14]
 8009672:	687b      	ldr	r3, [r7, #4]
 8009674:	32ae      	adds	r2, #174	; 0xae
 8009676:	f853 3022 	ldr.w	r3, [r3, r2, lsl #2]
 800967a:	689b      	ldr	r3, [r3, #8]
 800967c:	6839      	ldr	r1, [r7, #0]
 800967e:	6878      	ldr	r0, [r7, #4]
 8009680:	4798      	blx	r3
 8009682:	4603      	mov	r3, r0
 8009684:	73fb      	strb	r3, [r7, #15]
 8009686:	e004      	b.n	8009692 <USBD_StdItfReq+0x96>
 8009688:	2303      	movs	r3, #3
 800968a:	73fb      	strb	r3, [r7, #15]
 800968c:	e001      	b.n	8009692 <USBD_StdItfReq+0x96>
 800968e:	2303      	movs	r3, #3
 8009690:	73fb      	strb	r3, [r7, #15]
 8009692:	683b      	ldr	r3, [r7, #0]
 8009694:	88db      	ldrh	r3, [r3, #6]
 8009696:	2b00      	cmp	r3, #0
 8009698:	d110      	bne.n	80096bc <USBD_StdItfReq+0xc0>
 800969a:	7bfb      	ldrb	r3, [r7, #15]
 800969c:	2b00      	cmp	r3, #0
 800969e:	d10d      	bne.n	80096bc <USBD_StdItfReq+0xc0>
 80096a0:	6878      	ldr	r0, [r7, #4]
 80096a2:	f000 fddc 	bl	800a25e <USBD_CtlSendStatus>
 80096a6:	e009      	b.n	80096bc <USBD_StdItfReq+0xc0>
 80096a8:	6839      	ldr	r1, [r7, #0]
 80096aa:	6878      	ldr	r0, [r7, #4]
 80096ac:	f000 fcf9 	bl	800a0a2 <USBD_CtlError>
 80096b0:	e004      	b.n	80096bc <USBD_StdItfReq+0xc0>
 80096b2:	6839      	ldr	r1, [r7, #0]
 80096b4:	6878      	ldr	r0, [r7, #4]
 80096b6:	f000 fcf4 	bl	800a0a2 <USBD_CtlError>
 80096ba:	e000      	b.n	80096be <USBD_StdItfReq+0xc2>
 80096bc:	bf00      	nop
 80096be:	e004      	b.n	80096ca <USBD_StdItfReq+0xce>
 80096c0:	6839      	ldr	r1, [r7, #0]
 80096c2:	6878      	ldr	r0, [r7, #4]
 80096c4:	f000 fced 	bl	800a0a2 <USBD_CtlError>
 80096c8:	bf00      	nop
 80096ca:	7bfb      	ldrb	r3, [r7, #15]
 80096cc:	4618      	mov	r0, r3
 80096ce:	3710      	adds	r7, #16
 80096d0:	46bd      	mov	sp, r7
 80096d2:	bd80      	pop	{r7, pc}

080096d4 <USBD_StdEPReq>:
 80096d4:	b580      	push	{r7, lr}
 80096d6:	b084      	sub	sp, #16
 80096d8:	af00      	add	r7, sp, #0
 80096da:	6078      	str	r0, [r7, #4]
 80096dc:	6039      	str	r1, [r7, #0]
 80096de:	2300      	movs	r3, #0
 80096e0:	73fb      	strb	r3, [r7, #15]
 80096e2:	683b      	ldr	r3, [r7, #0]
 80096e4:	889b      	ldrh	r3, [r3, #4]
 80096e6:	73bb      	strb	r3, [r7, #14]
 80096e8:	683b      	ldr	r3, [r7, #0]
 80096ea:	781b      	ldrb	r3, [r3, #0]
 80096ec:	f003 0360 	and.w	r3, r3, #96	; 0x60
 80096f0:	2b40      	cmp	r3, #64	; 0x40
 80096f2:	d007      	beq.n	8009704 <USBD_StdEPReq+0x30>
 80096f4:	2b40      	cmp	r3, #64	; 0x40
 80096f6:	f200 8181 	bhi.w	80099fc <USBD_StdEPReq+0x328>
 80096fa:	2b00      	cmp	r3, #0
 80096fc:	d02a      	beq.n	8009754 <USBD_StdEPReq+0x80>
 80096fe:	2b20      	cmp	r3, #32
 8009700:	f040 817c 	bne.w	80099fc <USBD_StdEPReq+0x328>
 8009704:	7bbb      	ldrb	r3, [r7, #14]
 8009706:	4619      	mov	r1, r3
 8009708:	6878      	ldr	r0, [r7, #4]
 800970a:	f7ff fe82 	bl	8009412 <USBD_CoreFindEP>
 800970e:	4603      	mov	r3, r0
 8009710:	737b      	strb	r3, [r7, #13]
 8009712:	7b7b      	ldrb	r3, [r7, #13]
 8009714:	2bff      	cmp	r3, #255	; 0xff
 8009716:	f000 8176 	beq.w	8009a06 <USBD_StdEPReq+0x332>
 800971a:	7b7b      	ldrb	r3, [r7, #13]
 800971c:	2b00      	cmp	r3, #0
 800971e:	f040 8172 	bne.w	8009a06 <USBD_StdEPReq+0x332>
 8009722:	7b7a      	ldrb	r2, [r7, #13]
 8009724:	687b      	ldr	r3, [r7, #4]
 8009726:	f8c3 22d4 	str.w	r2, [r3, #724]	; 0x2d4
 800972a:	7b7a      	ldrb	r2, [r7, #13]
 800972c:	687b      	ldr	r3, [r7, #4]
 800972e:	32ae      	adds	r2, #174	; 0xae
 8009730:	f853 3022 	ldr.w	r3, [r3, r2, lsl #2]
 8009734:	689b      	ldr	r3, [r3, #8]
 8009736:	2b00      	cmp	r3, #0
 8009738:	f000 8165 	beq.w	8009a06 <USBD_StdEPReq+0x332>
 800973c:	7b7a      	ldrb	r2, [r7, #13]
 800973e:	687b      	ldr	r3, [r7, #4]
 8009740:	32ae      	adds	r2, #174	; 0xae
 8009742:	f853 3022 	ldr.w	r3, [r3, r2, lsl #2]
 8009746:	689b      	ldr	r3, [r3, #8]
 8009748:	6839      	ldr	r1, [r7, #0]
 800974a:	6878      	ldr	r0, [r7, #4]
 800974c:	4798      	blx	r3
 800974e:	4603      	mov	r3, r0
 8009750:	73fb      	strb	r3, [r7, #15]
 8009752:	e158      	b.n	8009a06 <USBD_StdEPReq+0x332>
 8009754:	683b      	ldr	r3, [r7, #0]
 8009756:	785b      	ldrb	r3, [r3, #1]
 8009758:	2b03      	cmp	r3, #3
 800975a:	d008      	beq.n	800976e <USBD_StdEPReq+0x9a>
 800975c:	2b03      	cmp	r3, #3
 800975e:	f300 8147 	bgt.w	80099f0 <USBD_StdEPReq+0x31c>
 8009762:	2b00      	cmp	r3, #0
 8009764:	f000 809b 	beq.w	800989e <USBD_StdEPReq+0x1ca>
 8009768:	2b01      	cmp	r3, #1
 800976a:	d03c      	beq.n	80097e6 <USBD_StdEPReq+0x112>
 800976c:	e140      	b.n	80099f0 <USBD_StdEPReq+0x31c>
 800976e:	687b      	ldr	r3, [r7, #4]
 8009770:	f893 329c 	ldrb.w	r3, [r3, #668]	; 0x29c
 8009774:	b2db      	uxtb	r3, r3
 8009776:	2b02      	cmp	r3, #2
 8009778:	d002      	beq.n	8009780 <USBD_StdEPReq+0xac>
 800977a:	2b03      	cmp	r3, #3
 800977c:	d016      	beq.n	80097ac <USBD_StdEPReq+0xd8>
 800977e:	e02c      	b.n	80097da <USBD_StdEPReq+0x106>
 8009780:	7bbb      	ldrb	r3, [r7, #14]
 8009782:	2b00      	cmp	r3, #0
 8009784:	d00d      	beq.n	80097a2 <USBD_StdEPReq+0xce>
 8009786:	7bbb      	ldrb	r3, [r7, #14]
 8009788:	2b80      	cmp	r3, #128	; 0x80
 800978a:	d00a      	beq.n	80097a2 <USBD_StdEPReq+0xce>
 800978c:	7bbb      	ldrb	r3, [r7, #14]
 800978e:	4619      	mov	r1, r3
 8009790:	6878      	ldr	r0, [r7, #4]
 8009792:	f001 f9e7 	bl	800ab64 <USBD_LL_StallEP>
 8009796:	2180      	movs	r1, #128	; 0x80
 8009798:	6878      	ldr	r0, [r7, #4]
 800979a:	f001 f9e3 	bl	800ab64 <USBD_LL_StallEP>
 800979e:	bf00      	nop
 80097a0:	e020      	b.n	80097e4 <USBD_StdEPReq+0x110>
 80097a2:	6839      	ldr	r1, [r7, #0]
 80097a4:	6878      	ldr	r0, [r7, #4]
 80097a6:	f000 fc7c 	bl	800a0a2 <USBD_CtlError>
 80097aa:	e01b      	b.n	80097e4 <USBD_StdEPReq+0x110>
 80097ac:	683b      	ldr	r3, [r7, #0]
 80097ae:	885b      	ldrh	r3, [r3, #2]
 80097b0:	2b00      	cmp	r3, #0
 80097b2:	d10e      	bne.n	80097d2 <USBD_StdEPReq+0xfe>
 80097b4:	7bbb      	ldrb	r3, [r7, #14]
 80097b6:	2b00      	cmp	r3, #0
 80097b8:	d00b      	beq.n	80097d2 <USBD_StdEPReq+0xfe>
 80097ba:	7bbb      	ldrb	r3, [r7, #14]
 80097bc:	2b80      	cmp	r3, #128	; 0x80
 80097be:	d008      	beq.n	80097d2 <USBD_StdEPReq+0xfe>
 80097c0:	683b      	ldr	r3, [r7, #0]
 80097c2:	88db      	ldrh	r3, [r3, #6]
 80097c4:	2b00      	cmp	r3, #0
 80097c6:	d104      	bne.n	80097d2 <USBD_StdEPReq+0xfe>
 80097c8:	7bbb      	ldrb	r3, [r7, #14]
 80097ca:	4619      	mov	r1, r3
 80097cc:	6878      	ldr	r0, [r7, #4]
 80097ce:	f001 f9c9 	bl	800ab64 <USBD_LL_StallEP>
 80097d2:	6878      	ldr	r0, [r7, #4]
 80097d4:	f000 fd43 	bl	800a25e <USBD_CtlSendStatus>
 80097d8:	e004      	b.n	80097e4 <USBD_StdEPReq+0x110>
 80097da:	6839      	ldr	r1, [r7, #0]
 80097dc:	6878      	ldr	r0, [r7, #4]
 80097de:	f000 fc60 	bl	800a0a2 <USBD_CtlError>
 80097e2:	bf00      	nop
 80097e4:	e109      	b.n	80099fa <USBD_StdEPReq+0x326>
 80097e6:	687b      	ldr	r3, [r7, #4]
 80097e8:	f893 329c 	ldrb.w	r3, [r3, #668]	; 0x29c
 80097ec:	b2db      	uxtb	r3, r3
 80097ee:	2b02      	cmp	r3, #2
 80097f0:	d002      	beq.n	80097f8 <USBD_StdEPReq+0x124>
 80097f2:	2b03      	cmp	r3, #3
 80097f4:	d016      	beq.n	8009824 <USBD_StdEPReq+0x150>
 80097f6:	e04b      	b.n	8009890 <USBD_StdEPReq+0x1bc>
 80097f8:	7bbb      	ldrb	r3, [r7, #14]
 80097fa:	2b00      	cmp	r3, #0
 80097fc:	d00d      	beq.n	800981a <USBD_StdEPReq+0x146>
 80097fe:	7bbb      	ldrb	r3, [r7, #14]
 8009800:	2b80      	cmp	r3, #128	; 0x80
 8009802:	d00a      	beq.n	800981a <USBD_StdEPReq+0x146>
 8009804:	7bbb      	ldrb	r3, [r7, #14]
 8009806:	4619      	mov	r1, r3
 8009808:	6878      	ldr	r0, [r7, #4]
 800980a:	f001 f9ab 	bl	800ab64 <USBD_LL_StallEP>
 800980e:	2180      	movs	r1, #128	; 0x80
 8009810:	6878      	ldr	r0, [r7, #4]
 8009812:	f001 f9a7 	bl	800ab64 <USBD_LL_StallEP>
 8009816:	bf00      	nop
 8009818:	e040      	b.n	800989c <USBD_StdEPReq+0x1c8>
 800981a:	6839      	ldr	r1, [r7, #0]
 800981c:	6878      	ldr	r0, [r7, #4]
 800981e:	f000 fc40 	bl	800a0a2 <USBD_CtlError>
 8009822:	e03b      	b.n	800989c <USBD_StdEPReq+0x1c8>
 8009824:	683b      	ldr	r3, [r7, #0]
 8009826:	885b      	ldrh	r3, [r3, #2]
 8009828:	2b00      	cmp	r3, #0
 800982a:	d136      	bne.n	800989a <USBD_StdEPReq+0x1c6>
 800982c:	7bbb      	ldrb	r3, [r7, #14]
 800982e:	f003 037f 	and.w	r3, r3, #127	; 0x7f
 8009832:	2b00      	cmp	r3, #0
 8009834:	d004      	beq.n	8009840 <USBD_StdEPReq+0x16c>
 8009836:	7bbb      	ldrb	r3, [r7, #14]
 8009838:	4619      	mov	r1, r3
 800983a:	6878      	ldr	r0, [r7, #4]
 800983c:	f001 f9b1 	bl	800aba2 <USBD_LL_ClearStallEP>
 8009840:	6878      	ldr	r0, [r7, #4]
 8009842:	f000 fd0c 	bl	800a25e <USBD_CtlSendStatus>
 8009846:	7bbb      	ldrb	r3, [r7, #14]
 8009848:	4619      	mov	r1, r3
 800984a:	6878      	ldr	r0, [r7, #4]
 800984c:	f7ff fde1 	bl	8009412 <USBD_CoreFindEP>
 8009850:	4603      	mov	r3, r0
 8009852:	737b      	strb	r3, [r7, #13]
 8009854:	7b7b      	ldrb	r3, [r7, #13]
 8009856:	2bff      	cmp	r3, #255	; 0xff
 8009858:	d01f      	beq.n	800989a <USBD_StdEPReq+0x1c6>
 800985a:	7b7b      	ldrb	r3, [r7, #13]
 800985c:	2b00      	cmp	r3, #0
 800985e:	d11c      	bne.n	800989a <USBD_StdEPReq+0x1c6>
 8009860:	7b7a      	ldrb	r2, [r7, #13]
 8009862:	687b      	ldr	r3, [r7, #4]
 8009864:	f8c3 22d4 	str.w	r2, [r3, #724]	; 0x2d4
 8009868:	7b7a      	ldrb	r2, [r7, #13]
 800986a:	687b      	ldr	r3, [r7, #4]
 800986c:	32ae      	adds	r2, #174	; 0xae
 800986e:	f853 3022 	ldr.w	r3, [r3, r2, lsl #2]
 8009872:	689b      	ldr	r3, [r3, #8]
 8009874:	2b00      	cmp	r3, #0
 8009876:	d010      	beq.n	800989a <USBD_StdEPReq+0x1c6>
 8009878:	7b7a      	ldrb	r2, [r7, #13]
 800987a:	687b      	ldr	r3, [r7, #4]
 800987c:	32ae      	adds	r2, #174	; 0xae
 800987e:	f853 3022 	ldr.w	r3, [r3, r2, lsl #2]
 8009882:	689b      	ldr	r3, [r3, #8]
 8009884:	6839      	ldr	r1, [r7, #0]
 8009886:	6878      	ldr	r0, [r7, #4]
 8009888:	4798      	blx	r3
 800988a:	4603      	mov	r3, r0
 800988c:	73fb      	strb	r3, [r7, #15]
 800988e:	e004      	b.n	800989a <USBD_StdEPReq+0x1c6>
 8009890:	6839      	ldr	r1, [r7, #0]
 8009892:	6878      	ldr	r0, [r7, #4]
 8009894:	f000 fc05 	bl	800a0a2 <USBD_CtlError>
 8009898:	e000      	b.n	800989c <USBD_StdEPReq+0x1c8>
 800989a:	bf00      	nop
 800989c:	e0ad      	b.n	80099fa <USBD_StdEPReq+0x326>
 800989e:	687b      	ldr	r3, [r7, #4]
 80098a0:	f893 329c 	ldrb.w	r3, [r3, #668]	; 0x29c
 80098a4:	b2db      	uxtb	r3, r3
 80098a6:	2b02      	cmp	r3, #2
 80098a8:	d002      	beq.n	80098b0 <USBD_StdEPReq+0x1dc>
 80098aa:	2b03      	cmp	r3, #3
 80098ac:	d033      	beq.n	8009916 <USBD_StdEPReq+0x242>
 80098ae:	e099      	b.n	80099e4 <USBD_StdEPReq+0x310>
 80098b0:	7bbb      	ldrb	r3, [r7, #14]
 80098b2:	2b00      	cmp	r3, #0
 80098b4:	d007      	beq.n	80098c6 <USBD_StdEPReq+0x1f2>
 80098b6:	7bbb      	ldrb	r3, [r7, #14]
 80098b8:	2b80      	cmp	r3, #128	; 0x80
 80098ba:	d004      	beq.n	80098c6 <USBD_StdEPReq+0x1f2>
 80098bc:	6839      	ldr	r1, [r7, #0]
 80098be:	6878      	ldr	r0, [r7, #4]
 80098c0:	f000 fbef 	bl	800a0a2 <USBD_CtlError>
 80098c4:	e093      	b.n	80099ee <USBD_StdEPReq+0x31a>
 80098c6:	f997 300e 	ldrsb.w	r3, [r7, #14]
 80098ca:	2b00      	cmp	r3, #0
 80098cc:	da0b      	bge.n	80098e6 <USBD_StdEPReq+0x212>
 80098ce:	7bbb      	ldrb	r3, [r7, #14]
 80098d0:	f003 027f 	and.w	r2, r3, #127	; 0x7f
 80098d4:	4613      	mov	r3, r2
 80098d6:	009b      	lsls	r3, r3, #2
 80098d8:	4413      	add	r3, r2
 80098da:	009b      	lsls	r3, r3, #2
 80098dc:	3310      	adds	r3, #16
 80098de:	687a      	ldr	r2, [r7, #4]
 80098e0:	4413      	add	r3, r2
 80098e2:	3304      	adds	r3, #4
 80098e4:	e00b      	b.n	80098fe <USBD_StdEPReq+0x22a>
 80098e6:	7bbb      	ldrb	r3, [r7, #14]
 80098e8:	f003 027f 	and.w	r2, r3, #127	; 0x7f
 80098ec:	4613      	mov	r3, r2
 80098ee:	009b      	lsls	r3, r3, #2
 80098f0:	4413      	add	r3, r2
 80098f2:	009b      	lsls	r3, r3, #2
 80098f4:	f503 73a8 	add.w	r3, r3, #336	; 0x150
 80098f8:	687a      	ldr	r2, [r7, #4]
 80098fa:	4413      	add	r3, r2
 80098fc:	3304      	adds	r3, #4
 80098fe:	60bb      	str	r3, [r7, #8]
 8009900:	68bb      	ldr	r3, [r7, #8]
 8009902:	2200      	movs	r2, #0
 8009904:	739a      	strb	r2, [r3, #14]
 8009906:	68bb      	ldr	r3, [r7, #8]
 8009908:	330e      	adds	r3, #14
 800990a:	2202      	movs	r2, #2
 800990c:	4619      	mov	r1, r3
 800990e:	6878      	ldr	r0, [r7, #4]
 8009910:	f000 fc44 	bl	800a19c <USBD_CtlSendData>
 8009914:	e06b      	b.n	80099ee <USBD_StdEPReq+0x31a>
 8009916:	f997 300e 	ldrsb.w	r3, [r7, #14]
 800991a:	2b00      	cmp	r3, #0
 800991c:	da11      	bge.n	8009942 <USBD_StdEPReq+0x26e>
 800991e:	7bbb      	ldrb	r3, [r7, #14]
 8009920:	f003 020f 	and.w	r2, r3, #15
 8009924:	6879      	ldr	r1, [r7, #4]
 8009926:	4613      	mov	r3, r2
 8009928:	009b      	lsls	r3, r3, #2
 800992a:	4413      	add	r3, r2
 800992c:	009b      	lsls	r3, r3, #2
 800992e:	440b      	add	r3, r1
 8009930:	3323      	adds	r3, #35	; 0x23
 8009932:	781b      	ldrb	r3, [r3, #0]
 8009934:	2b00      	cmp	r3, #0
 8009936:	d117      	bne.n	8009968 <USBD_StdEPReq+0x294>
 8009938:	6839      	ldr	r1, [r7, #0]
 800993a:	6878      	ldr	r0, [r7, #4]
 800993c:	f000 fbb1 	bl	800a0a2 <USBD_CtlError>
 8009940:	e055      	b.n	80099ee <USBD_StdEPReq+0x31a>
 8009942:	7bbb      	ldrb	r3, [r7, #14]
 8009944:	f003 020f 	and.w	r2, r3, #15
 8009948:	6879      	ldr	r1, [r7, #4]
 800994a:	4613      	mov	r3, r2
 800994c:	009b      	lsls	r3, r3, #2
 800994e:	4413      	add	r3, r2
 8009950:	009b      	lsls	r3, r3, #2
 8009952:	440b      	add	r3, r1
 8009954:	f203 1363 	addw	r3, r3, #355	; 0x163
 8009958:	781b      	ldrb	r3, [r3, #0]
 800995a:	2b00      	cmp	r3, #0
 800995c:	d104      	bne.n	8009968 <USBD_StdEPReq+0x294>
 800995e:	6839      	ldr	r1, [r7, #0]
 8009960:	6878      	ldr	r0, [r7, #4]
 8009962:	f000 fb9e 	bl	800a0a2 <USBD_CtlError>
 8009966:	e042      	b.n	80099ee <USBD_StdEPReq+0x31a>
 8009968:	f997 300e 	ldrsb.w	r3, [r7, #14]
 800996c:	2b00      	cmp	r3, #0
 800996e:	da0b      	bge.n	8009988 <USBD_StdEPReq+0x2b4>
 8009970:	7bbb      	ldrb	r3, [r7, #14]
 8009972:	f003 027f 	and.w	r2, r3, #127	; 0x7f
 8009976:	4613      	mov	r3, r2
 8009978:	009b      	lsls	r3, r3, #2
 800997a:	4413      	add	r3, r2
 800997c:	009b      	lsls	r3, r3, #2
 800997e:	3310      	adds	r3, #16
 8009980:	687a      	ldr	r2, [r7, #4]
 8009982:	4413      	add	r3, r2
 8009984:	3304      	adds	r3, #4
 8009986:	e00b      	b.n	80099a0 <USBD_StdEPReq+0x2cc>
 8009988:	7bbb      	ldrb	r3, [r7, #14]
 800998a:	f003 027f 	and.w	r2, r3, #127	; 0x7f
 800998e:	4613      	mov	r3, r2
 8009990:	009b      	lsls	r3, r3, #2
 8009992:	4413      	add	r3, r2
 8009994:	009b      	lsls	r3, r3, #2
 8009996:	f503 73a8 	add.w	r3, r3, #336	; 0x150
 800999a:	687a      	ldr	r2, [r7, #4]
 800999c:	4413      	add	r3, r2
 800999e:	3304      	adds	r3, #4
 80099a0:	60bb      	str	r3, [r7, #8]
 80099a2:	7bbb      	ldrb	r3, [r7, #14]
 80099a4:	2b00      	cmp	r3, #0
 80099a6:	d002      	beq.n	80099ae <USBD_StdEPReq+0x2da>
 80099a8:	7bbb      	ldrb	r3, [r7, #14]
 80099aa:	2b80      	cmp	r3, #128	; 0x80
 80099ac:	d103      	bne.n	80099b6 <USBD_StdEPReq+0x2e2>
 80099ae:	68bb      	ldr	r3, [r7, #8]
 80099b0:	2200      	movs	r2, #0
 80099b2:	739a      	strb	r2, [r3, #14]
 80099b4:	e00e      	b.n	80099d4 <USBD_StdEPReq+0x300>
 80099b6:	7bbb      	ldrb	r3, [r7, #14]
 80099b8:	4619      	mov	r1, r3
 80099ba:	6878      	ldr	r0, [r7, #4]
 80099bc:	f001 f910 	bl	800abe0 <USBD_LL_IsStallEP>
 80099c0:	4603      	mov	r3, r0
 80099c2:	2b00      	cmp	r3, #0
 80099c4:	d003      	beq.n	80099ce <USBD_StdEPReq+0x2fa>
 80099c6:	68bb      	ldr	r3, [r7, #8]
 80099c8:	2201      	movs	r2, #1
 80099ca:	739a      	strb	r2, [r3, #14]
 80099cc:	e002      	b.n	80099d4 <USBD_StdEPReq+0x300>
 80099ce:	68bb      	ldr	r3, [r7, #8]
 80099d0:	2200      	movs	r2, #0
 80099d2:	739a      	strb	r2, [r3, #14]
 80099d4:	68bb      	ldr	r3, [r7, #8]
 80099d6:	330e      	adds	r3, #14
 80099d8:	2202      	movs	r2, #2
 80099da:	4619      	mov	r1, r3
 80099dc:	6878      	ldr	r0, [r7, #4]
 80099de:	f000 fbdd 	bl	800a19c <USBD_CtlSendData>
 80099e2:	e004      	b.n	80099ee <USBD_StdEPReq+0x31a>
 80099e4:	6839      	ldr	r1, [r7, #0]
 80099e6:	6878      	ldr	r0, [r7, #4]
 80099e8:	f000 fb5b 	bl	800a0a2 <USBD_CtlError>
 80099ec:	bf00      	nop
 80099ee:	e004      	b.n	80099fa <USBD_StdEPReq+0x326>
 80099f0:	6839      	ldr	r1, [r7, #0]
 80099f2:	6878      	ldr	r0, [r7, #4]
 80099f4:	f000 fb55 	bl	800a0a2 <USBD_CtlError>
 80099f8:	bf00      	nop
 80099fa:	e005      	b.n	8009a08 <USBD_StdEPReq+0x334>
 80099fc:	6839      	ldr	r1, [r7, #0]
 80099fe:	6878      	ldr	r0, [r7, #4]
 8009a00:	f000 fb4f 	bl	800a0a2 <USBD_CtlError>
 8009a04:	e000      	b.n	8009a08 <USBD_StdEPReq+0x334>
 8009a06:	bf00      	nop
 8009a08:	7bfb      	ldrb	r3, [r7, #15]
 8009a0a:	4618      	mov	r0, r3
 8009a0c:	3710      	adds	r7, #16
 8009a0e:	46bd      	mov	sp, r7
 8009a10:	bd80      	pop	{r7, pc}
	...

08009a14 <USBD_GetDescriptor>:
 8009a14:	b580      	push	{r7, lr}
 8009a16:	b084      	sub	sp, #16
 8009a18:	af00      	add	r7, sp, #0
 8009a1a:	6078      	str	r0, [r7, #4]
 8009a1c:	6039      	str	r1, [r7, #0]
 8009a1e:	2300      	movs	r3, #0
 8009a20:	813b      	strh	r3, [r7, #8]
 8009a22:	2300      	movs	r3, #0
 8009a24:	60fb      	str	r3, [r7, #12]
 8009a26:	2300      	movs	r3, #0
 8009a28:	72fb      	strb	r3, [r7, #11]
 8009a2a:	683b      	ldr	r3, [r7, #0]
 8009a2c:	885b      	ldrh	r3, [r3, #2]
 8009a2e:	0a1b      	lsrs	r3, r3, #8
 8009a30:	b29b      	uxth	r3, r3
 8009a32:	3b01      	subs	r3, #1
 8009a34:	2b06      	cmp	r3, #6
 8009a36:	f200 8128 	bhi.w	8009c8a <USBD_GetDescriptor+0x276>
 8009a3a:	a201      	add	r2, pc, #4	; (adr r2, 8009a40 <USBD_GetDescriptor+0x2c>)
 8009a3c:	f852 f023 	ldr.w	pc, [r2, r3, lsl #2]
 8009a40:	08009a5d 	.word	0x08009a5d
 8009a44:	08009a75 	.word	0x08009a75
 8009a48:	08009ab5 	.word	0x08009ab5
 8009a4c:	08009c8b 	.word	0x08009c8b
 8009a50:	08009c8b 	.word	0x08009c8b
 8009a54:	08009c2b 	.word	0x08009c2b
 8009a58:	08009c57 	.word	0x08009c57
 8009a5c:	687b      	ldr	r3, [r7, #4]
 8009a5e:	f8d3 32b4 	ldr.w	r3, [r3, #692]	; 0x2b4
 8009a62:	681b      	ldr	r3, [r3, #0]
 8009a64:	687a      	ldr	r2, [r7, #4]
 8009a66:	7c12      	ldrb	r2, [r2, #16]
 8009a68:	f107 0108 	add.w	r1, r7, #8
 8009a6c:	4610      	mov	r0, r2
 8009a6e:	4798      	blx	r3
 8009a70:	60f8      	str	r0, [r7, #12]
 8009a72:	e112      	b.n	8009c9a <USBD_GetDescriptor+0x286>
 8009a74:	687b      	ldr	r3, [r7, #4]
 8009a76:	7c1b      	ldrb	r3, [r3, #16]
 8009a78:	2b00      	cmp	r3, #0
 8009a7a:	d10d      	bne.n	8009a98 <USBD_GetDescriptor+0x84>
 8009a7c:	687b      	ldr	r3, [r7, #4]
 8009a7e:	f8d3 32b8 	ldr.w	r3, [r3, #696]	; 0x2b8
 8009a82:	6a9b      	ldr	r3, [r3, #40]	; 0x28
 8009a84:	f107 0208 	add.w	r2, r7, #8
 8009a88:	4610      	mov	r0, r2
 8009a8a:	4798      	blx	r3
 8009a8c:	60f8      	str	r0, [r7, #12]
 8009a8e:	68fb      	ldr	r3, [r7, #12]
 8009a90:	3301      	adds	r3, #1
 8009a92:	2202      	movs	r2, #2
 8009a94:	701a      	strb	r2, [r3, #0]
 8009a96:	e100      	b.n	8009c9a <USBD_GetDescriptor+0x286>
 8009a98:	687b      	ldr	r3, [r7, #4]
 8009a9a:	f8d3 32b8 	ldr.w	r3, [r3, #696]	; 0x2b8
 8009a9e:	6adb      	ldr	r3, [r3, #44]	; 0x2c
 8009aa0:	f107 0208 	add.w	r2, r7, #8
 8009aa4:	4610      	mov	r0, r2
 8009aa6:	4798      	blx	r3
 8009aa8:	60f8      	str	r0, [r7, #12]
 8009aaa:	68fb      	ldr	r3, [r7, #12]
 8009aac:	3301      	adds	r3, #1
 8009aae:	2202      	movs	r2, #2
 8009ab0:	701a      	strb	r2, [r3, #0]
 8009ab2:	e0f2      	b.n	8009c9a <USBD_GetDescriptor+0x286>
 8009ab4:	683b      	ldr	r3, [r7, #0]
 8009ab6:	885b      	ldrh	r3, [r3, #2]
 8009ab8:	b2db      	uxtb	r3, r3
 8009aba:	2b05      	cmp	r3, #5
 8009abc:	f200 80ac 	bhi.w	8009c18 <USBD_GetDescriptor+0x204>
 8009ac0:	a201      	add	r2, pc, #4	; (adr r2, 8009ac8 <USBD_GetDescriptor+0xb4>)
 8009ac2:	f852 f023 	ldr.w	pc, [r2, r3, lsl #2]
 8009ac6:	bf00      	nop
 8009ac8:	08009ae1 	.word	0x08009ae1
 8009acc:	08009b15 	.word	0x08009b15
 8009ad0:	08009b49 	.word	0x08009b49
 8009ad4:	08009b7d 	.word	0x08009b7d
 8009ad8:	08009bb1 	.word	0x08009bb1
 8009adc:	08009be5 	.word	0x08009be5
 8009ae0:	687b      	ldr	r3, [r7, #4]
 8009ae2:	f8d3 32b4 	ldr.w	r3, [r3, #692]	; 0x2b4
 8009ae6:	685b      	ldr	r3, [r3, #4]
 8009ae8:	2b00      	cmp	r3, #0
 8009aea:	d00b      	beq.n	8009b04 <USBD_GetDescriptor+0xf0>
 8009aec:	687b      	ldr	r3, [r7, #4]
 8009aee:	f8d3 32b4 	ldr.w	r3, [r3, #692]	; 0x2b4
 8009af2:	685b      	ldr	r3, [r3, #4]
 8009af4:	687a      	ldr	r2, [r7, #4]
 8009af6:	7c12      	ldrb	r2, [r2, #16]
 8009af8:	f107 0108 	add.w	r1, r7, #8
 8009afc:	4610      	mov	r0, r2
 8009afe:	4798      	blx	r3
 8009b00:	60f8      	str	r0, [r7, #12]
 8009b02:	e091      	b.n	8009c28 <USBD_GetDescriptor+0x214>
 8009b04:	6839      	ldr	r1, [r7, #0]
 8009b06:	6878      	ldr	r0, [r7, #4]
 8009b08:	f000 facb 	bl	800a0a2 <USBD_CtlError>
 8009b0c:	7afb      	ldrb	r3, [r7, #11]
 8009b0e:	3301      	adds	r3, #1
 8009b10:	72fb      	strb	r3, [r7, #11]
 8009b12:	e089      	b.n	8009c28 <USBD_GetDescriptor+0x214>
 8009b14:	687b      	ldr	r3, [r7, #4]
 8009b16:	f8d3 32b4 	ldr.w	r3, [r3, #692]	; 0x2b4
 8009b1a:	689b      	ldr	r3, [r3, #8]
 8009b1c:	2b00      	cmp	r3, #0
 8009b1e:	d00b      	beq.n	8009b38 <USBD_GetDescriptor+0x124>
 8009b20:	687b      	ldr	r3, [r7, #4]
 8009b22:	f8d3 32b4 	ldr.w	r3, [r3, #692]	; 0x2b4
 8009b26:	689b      	ldr	r3, [r3, #8]
 8009b28:	687a      	ldr	r2, [r7, #4]
 8009b2a:	7c12      	ldrb	r2, [r2, #16]
 8009b2c:	f107 0108 	add.w	r1, r7, #8
 8009b30:	4610      	mov	r0, r2
 8009b32:	4798      	blx	r3
 8009b34:	60f8      	str	r0, [r7, #12]
 8009b36:	e077      	b.n	8009c28 <USBD_GetDescriptor+0x214>
 8009b38:	6839      	ldr	r1, [r7, #0]
 8009b3a:	6878      	ldr	r0, [r7, #4]
 8009b3c:	f000 fab1 	bl	800a0a2 <USBD_CtlError>
 8009b40:	7afb      	ldrb	r3, [r7, #11]
 8009b42:	3301      	adds	r3, #1
 8009b44:	72fb      	strb	r3, [r7, #11]
 8009b46:	e06f      	b.n	8009c28 <USBD_GetDescriptor+0x214>
 8009b48:	687b      	ldr	r3, [r7, #4]
 8009b4a:	f8d3 32b4 	ldr.w	r3, [r3, #692]	; 0x2b4
 8009b4e:	68db      	ldr	r3, [r3, #12]
 8009b50:	2b00      	cmp	r3, #0
 8009b52:	d00b      	beq.n	8009b6c <USBD_GetDescriptor+0x158>
 8009b54:	687b      	ldr	r3, [r7, #4]
 8009b56:	f8d3 32b4 	ldr.w	r3, [r3, #692]	; 0x2b4
 8009b5a:	68db      	ldr	r3, [r3, #12]
 8009b5c:	687a      	ldr	r2, [r7, #4]
 8009b5e:	7c12      	ldrb	r2, [r2, #16]
 8009b60:	f107 0108 	add.w	r1, r7, #8
 8009b64:	4610      	mov	r0, r2
 8009b66:	4798      	blx	r3
 8009b68:	60f8      	str	r0, [r7, #12]
 8009b6a:	e05d      	b.n	8009c28 <USBD_GetDescriptor+0x214>
 8009b6c:	6839      	ldr	r1, [r7, #0]
 8009b6e:	6878      	ldr	r0, [r7, #4]
 8009b70:	f000 fa97 	bl	800a0a2 <USBD_CtlError>
 8009b74:	7afb      	ldrb	r3, [r7, #11]
 8009b76:	3301      	adds	r3, #1
 8009b78:	72fb      	strb	r3, [r7, #11]
 8009b7a:	e055      	b.n	8009c28 <USBD_GetDescriptor+0x214>
 8009b7c:	687b      	ldr	r3, [r7, #4]
 8009b7e:	f8d3 32b4 	ldr.w	r3, [r3, #692]	; 0x2b4
 8009b82:	691b      	ldr	r3, [r3, #16]
 8009b84:	2b00      	cmp	r3, #0
 8009b86:	d00b      	beq.n	8009ba0 <USBD_GetDescriptor+0x18c>
 8009b88:	687b      	ldr	r3, [r7, #4]
 8009b8a:	f8d3 32b4 	ldr.w	r3, [r3, #692]	; 0x2b4
 8009b8e:	691b      	ldr	r3, [r3, #16]
 8009b90:	687a      	ldr	r2, [r7, #4]
 8009b92:	7c12      	ldrb	r2, [r2, #16]
 8009b94:	f107 0108 	add.w	r1, r7, #8
 8009b98:	4610      	mov	r0, r2
 8009b9a:	4798      	blx	r3
 8009b9c:	60f8      	str	r0, [r7, #12]
 8009b9e:	e043      	b.n	8009c28 <USBD_GetDescriptor+0x214>
 8009ba0:	6839      	ldr	r1, [r7, #0]
 8009ba2:	6878      	ldr	r0, [r7, #4]
 8009ba4:	f000 fa7d 	bl	800a0a2 <USBD_CtlError>
 8009ba8:	7afb      	ldrb	r3, [r7, #11]
 8009baa:	3301      	adds	r3, #1
 8009bac:	72fb      	strb	r3, [r7, #11]
 8009bae:	e03b      	b.n	8009c28 <USBD_GetDescriptor+0x214>
 8009bb0:	687b      	ldr	r3, [r7, #4]
 8009bb2:	f8d3 32b4 	ldr.w	r3, [r3, #692]	; 0x2b4
 8009bb6:	695b      	ldr	r3, [r3, #20]
 8009bb8:	2b00      	cmp	r3, #0
 8009bba:	d00b      	beq.n	8009bd4 <USBD_GetDescriptor+0x1c0>
 8009bbc:	687b      	ldr	r3, [r7, #4]
 8009bbe:	f8d3 32b4 	ldr.w	r3, [r3, #692]	; 0x2b4
 8009bc2:	695b      	ldr	r3, [r3, #20]
 8009bc4:	687a      	ldr	r2, [r7, #4]
 8009bc6:	7c12      	ldrb	r2, [r2, #16]
 8009bc8:	f107 0108 	add.w	r1, r7, #8
 8009bcc:	4610      	mov	r0, r2
 8009bce:	4798      	blx	r3
 8009bd0:	60f8      	str	r0, [r7, #12]
 8009bd2:	e029      	b.n	8009c28 <USBD_GetDescriptor+0x214>
 8009bd4:	6839      	ldr	r1, [r7, #0]
 8009bd6:	6878      	ldr	r0, [r7, #4]
 8009bd8:	f000 fa63 	bl	800a0a2 <USBD_CtlError>
 8009bdc:	7afb      	ldrb	r3, [r7, #11]
 8009bde:	3301      	adds	r3, #1
 8009be0:	72fb      	strb	r3, [r7, #11]
 8009be2:	e021      	b.n	8009c28 <USBD_GetDescriptor+0x214>
 8009be4:	687b      	ldr	r3, [r7, #4]
 8009be6:	f8d3 32b4 	ldr.w	r3, [r3, #692]	; 0x2b4
 8009bea:	699b      	ldr	r3, [r3, #24]
 8009bec:	2b00      	cmp	r3, #0
 8009bee:	d00b      	beq.n	8009c08 <USBD_GetDescriptor+0x1f4>
 8009bf0:	687b      	ldr	r3, [r7, #4]
 8009bf2:	f8d3 32b4 	ldr.w	r3, [r3, #692]	; 0x2b4
 8009bf6:	699b      	ldr	r3, [r3, #24]
 8009bf8:	687a      	ldr	r2, [r7, #4]
 8009bfa:	7c12      	ldrb	r2, [r2, #16]
 8009bfc:	f107 0108 	add.w	r1, r7, #8
 8009c00:	4610      	mov	r0, r2
 8009c02:	4798      	blx	r3
 8009c04:	60f8      	str	r0, [r7, #12]
 8009c06:	e00f      	b.n	8009c28 <USBD_GetDescriptor+0x214>
 8009c08:	6839      	ldr	r1, [r7, #0]
 8009c0a:	6878      	ldr	r0, [r7, #4]
 8009c0c:	f000 fa49 	bl	800a0a2 <USBD_CtlError>
 8009c10:	7afb      	ldrb	r3, [r7, #11]
 8009c12:	3301      	adds	r3, #1
 8009c14:	72fb      	strb	r3, [r7, #11]
 8009c16:	e007      	b.n	8009c28 <USBD_GetDescriptor+0x214>
 8009c18:	6839      	ldr	r1, [r7, #0]
 8009c1a:	6878      	ldr	r0, [r7, #4]
 8009c1c:	f000 fa41 	bl	800a0a2 <USBD_CtlError>
 8009c20:	7afb      	ldrb	r3, [r7, #11]
 8009c22:	3301      	adds	r3, #1
 8009c24:	72fb      	strb	r3, [r7, #11]
 8009c26:	bf00      	nop
 8009c28:	e037      	b.n	8009c9a <USBD_GetDescriptor+0x286>
 8009c2a:	687b      	ldr	r3, [r7, #4]
 8009c2c:	7c1b      	ldrb	r3, [r3, #16]
 8009c2e:	2b00      	cmp	r3, #0
 8009c30:	d109      	bne.n	8009c46 <USBD_GetDescriptor+0x232>
 8009c32:	687b      	ldr	r3, [r7, #4]
 8009c34:	f8d3 32b8 	ldr.w	r3, [r3, #696]	; 0x2b8
 8009c38:	6b5b      	ldr	r3, [r3, #52]	; 0x34
 8009c3a:	f107 0208 	add.w	r2, r7, #8
 8009c3e:	4610      	mov	r0, r2
 8009c40:	4798      	blx	r3
 8009c42:	60f8      	str	r0, [r7, #12]
 8009c44:	e029      	b.n	8009c9a <USBD_GetDescriptor+0x286>
 8009c46:	6839      	ldr	r1, [r7, #0]
 8009c48:	6878      	ldr	r0, [r7, #4]
 8009c4a:	f000 fa2a 	bl	800a0a2 <USBD_CtlError>
 8009c4e:	7afb      	ldrb	r3, [r7, #11]
 8009c50:	3301      	adds	r3, #1
 8009c52:	72fb      	strb	r3, [r7, #11]
 8009c54:	e021      	b.n	8009c9a <USBD_GetDescriptor+0x286>
 8009c56:	687b      	ldr	r3, [r7, #4]
 8009c58:	7c1b      	ldrb	r3, [r3, #16]
 8009c5a:	2b00      	cmp	r3, #0
 8009c5c:	d10d      	bne.n	8009c7a <USBD_GetDescriptor+0x266>
 8009c5e:	687b      	ldr	r3, [r7, #4]
 8009c60:	f8d3 32b8 	ldr.w	r3, [r3, #696]	; 0x2b8
 8009c64:	6b1b      	ldr	r3, [r3, #48]	; 0x30
 8009c66:	f107 0208 	add.w	r2, r7, #8
 8009c6a:	4610      	mov	r0, r2
 8009c6c:	4798      	blx	r3
 8009c6e:	60f8      	str	r0, [r7, #12]
 8009c70:	68fb      	ldr	r3, [r7, #12]
 8009c72:	3301      	adds	r3, #1
 8009c74:	2207      	movs	r2, #7
 8009c76:	701a      	strb	r2, [r3, #0]
 8009c78:	e00f      	b.n	8009c9a <USBD_GetDescriptor+0x286>
 8009c7a:	6839      	ldr	r1, [r7, #0]
 8009c7c:	6878      	ldr	r0, [r7, #4]
 8009c7e:	f000 fa10 	bl	800a0a2 <USBD_CtlError>
 8009c82:	7afb      	ldrb	r3, [r7, #11]
 8009c84:	3301      	adds	r3, #1
 8009c86:	72fb      	strb	r3, [r7, #11]
 8009c88:	e007      	b.n	8009c9a <USBD_GetDescriptor+0x286>
 8009c8a:	6839      	ldr	r1, [r7, #0]
 8009c8c:	6878      	ldr	r0, [r7, #4]
 8009c8e:	f000 fa08 	bl	800a0a2 <USBD_CtlError>
 8009c92:	7afb      	ldrb	r3, [r7, #11]
 8009c94:	3301      	adds	r3, #1
 8009c96:	72fb      	strb	r3, [r7, #11]
 8009c98:	bf00      	nop
 8009c9a:	7afb      	ldrb	r3, [r7, #11]
 8009c9c:	2b00      	cmp	r3, #0
 8009c9e:	d11e      	bne.n	8009cde <USBD_GetDescriptor+0x2ca>
 8009ca0:	683b      	ldr	r3, [r7, #0]
 8009ca2:	88db      	ldrh	r3, [r3, #6]
 8009ca4:	2b00      	cmp	r3, #0
 8009ca6:	d016      	beq.n	8009cd6 <USBD_GetDescriptor+0x2c2>
 8009ca8:	893b      	ldrh	r3, [r7, #8]
 8009caa:	2b00      	cmp	r3, #0
 8009cac:	d00e      	beq.n	8009ccc <USBD_GetDescriptor+0x2b8>
 8009cae:	683b      	ldr	r3, [r7, #0]
 8009cb0:	88da      	ldrh	r2, [r3, #6]
 8009cb2:	893b      	ldrh	r3, [r7, #8]
 8009cb4:	4293      	cmp	r3, r2
 8009cb6:	bf28      	it	cs
 8009cb8:	4613      	movcs	r3, r2
 8009cba:	b29b      	uxth	r3, r3
 8009cbc:	813b      	strh	r3, [r7, #8]
 8009cbe:	893b      	ldrh	r3, [r7, #8]
 8009cc0:	461a      	mov	r2, r3
 8009cc2:	68f9      	ldr	r1, [r7, #12]
 8009cc4:	6878      	ldr	r0, [r7, #4]
 8009cc6:	f000 fa69 	bl	800a19c <USBD_CtlSendData>
 8009cca:	e009      	b.n	8009ce0 <USBD_GetDescriptor+0x2cc>
 8009ccc:	6839      	ldr	r1, [r7, #0]
 8009cce:	6878      	ldr	r0, [r7, #4]
 8009cd0:	f000 f9e7 	bl	800a0a2 <USBD_CtlError>
 8009cd4:	e004      	b.n	8009ce0 <USBD_GetDescriptor+0x2cc>
 8009cd6:	6878      	ldr	r0, [r7, #4]
 8009cd8:	f000 fac1 	bl	800a25e <USBD_CtlSendStatus>
 8009cdc:	e000      	b.n	8009ce0 <USBD_GetDescriptor+0x2cc>
 8009cde:	bf00      	nop
 8009ce0:	3710      	adds	r7, #16
 8009ce2:	46bd      	mov	sp, r7
 8009ce4:	bd80      	pop	{r7, pc}
 8009ce6:	bf00      	nop

08009ce8 <USBD_SetAddress>:
 8009ce8:	b580      	push	{r7, lr}
 8009cea:	b084      	sub	sp, #16
 8009cec:	af00      	add	r7, sp, #0
 8009cee:	6078      	str	r0, [r7, #4]
 8009cf0:	6039      	str	r1, [r7, #0]
 8009cf2:	683b      	ldr	r3, [r7, #0]
 8009cf4:	889b      	ldrh	r3, [r3, #4]
 8009cf6:	2b00      	cmp	r3, #0
 8009cf8:	d131      	bne.n	8009d5e <USBD_SetAddress+0x76>
 8009cfa:	683b      	ldr	r3, [r7, #0]
 8009cfc:	88db      	ldrh	r3, [r3, #6]
 8009cfe:	2b00      	cmp	r3, #0
 8009d00:	d12d      	bne.n	8009d5e <USBD_SetAddress+0x76>
 8009d02:	683b      	ldr	r3, [r7, #0]
 8009d04:	885b      	ldrh	r3, [r3, #2]
 8009d06:	2b7f      	cmp	r3, #127	; 0x7f
 8009d08:	d829      	bhi.n	8009d5e <USBD_SetAddress+0x76>
 8009d0a:	683b      	ldr	r3, [r7, #0]
 8009d0c:	885b      	ldrh	r3, [r3, #2]
 8009d0e:	b2db      	uxtb	r3, r3
 8009d10:	f003 037f 	and.w	r3, r3, #127	; 0x7f
 8009d14:	73fb      	strb	r3, [r7, #15]
 8009d16:	687b      	ldr	r3, [r7, #4]
 8009d18:	f893 329c 	ldrb.w	r3, [r3, #668]	; 0x29c
 8009d1c:	b2db      	uxtb	r3, r3
 8009d1e:	2b03      	cmp	r3, #3
 8009d20:	d104      	bne.n	8009d2c <USBD_SetAddress+0x44>
 8009d22:	6839      	ldr	r1, [r7, #0]
 8009d24:	6878      	ldr	r0, [r7, #4]
 8009d26:	f000 f9bc 	bl	800a0a2 <USBD_CtlError>
 8009d2a:	e01d      	b.n	8009d68 <USBD_SetAddress+0x80>
 8009d2c:	687b      	ldr	r3, [r7, #4]
 8009d2e:	7bfa      	ldrb	r2, [r7, #15]
 8009d30:	f883 229e 	strb.w	r2, [r3, #670]	; 0x29e
 8009d34:	7bfb      	ldrb	r3, [r7, #15]
 8009d36:	4619      	mov	r1, r3
 8009d38:	6878      	ldr	r0, [r7, #4]
 8009d3a:	f000 ff7d 	bl	800ac38 <USBD_LL_SetUSBAddress>
 8009d3e:	6878      	ldr	r0, [r7, #4]
 8009d40:	f000 fa8d 	bl	800a25e <USBD_CtlSendStatus>
 8009d44:	7bfb      	ldrb	r3, [r7, #15]
 8009d46:	2b00      	cmp	r3, #0
 8009d48:	d004      	beq.n	8009d54 <USBD_SetAddress+0x6c>
 8009d4a:	687b      	ldr	r3, [r7, #4]
 8009d4c:	2202      	movs	r2, #2
 8009d4e:	f883 229c 	strb.w	r2, [r3, #668]	; 0x29c
 8009d52:	e009      	b.n	8009d68 <USBD_SetAddress+0x80>
 8009d54:	687b      	ldr	r3, [r7, #4]
 8009d56:	2201      	movs	r2, #1
 8009d58:	f883 229c 	strb.w	r2, [r3, #668]	; 0x29c
 8009d5c:	e004      	b.n	8009d68 <USBD_SetAddress+0x80>
 8009d5e:	6839      	ldr	r1, [r7, #0]
 8009d60:	6878      	ldr	r0, [r7, #4]
 8009d62:	f000 f99e 	bl	800a0a2 <USBD_CtlError>
 8009d66:	bf00      	nop
 8009d68:	bf00      	nop
 8009d6a:	3710      	adds	r7, #16
 8009d6c:	46bd      	mov	sp, r7
 8009d6e:	bd80      	pop	{r7, pc}

08009d70 <USBD_SetConfig>:
 8009d70:	b580      	push	{r7, lr}
 8009d72:	b084      	sub	sp, #16
 8009d74:	af00      	add	r7, sp, #0
 8009d76:	6078      	str	r0, [r7, #4]
 8009d78:	6039      	str	r1, [r7, #0]
 8009d7a:	2300      	movs	r3, #0
 8009d7c:	73fb      	strb	r3, [r7, #15]
 8009d7e:	683b      	ldr	r3, [r7, #0]
 8009d80:	885b      	ldrh	r3, [r3, #2]
 8009d82:	b2da      	uxtb	r2, r3
 8009d84:	4b4e      	ldr	r3, [pc, #312]	; (8009ec0 <USBD_SetConfig+0x150>)
 8009d86:	701a      	strb	r2, [r3, #0]
 8009d88:	4b4d      	ldr	r3, [pc, #308]	; (8009ec0 <USBD_SetConfig+0x150>)
 8009d8a:	781b      	ldrb	r3, [r3, #0]
 8009d8c:	2b01      	cmp	r3, #1
 8009d8e:	d905      	bls.n	8009d9c <USBD_SetConfig+0x2c>
 8009d90:	6839      	ldr	r1, [r7, #0]
 8009d92:	6878      	ldr	r0, [r7, #4]
 8009d94:	f000 f985 	bl	800a0a2 <USBD_CtlError>
 8009d98:	2303      	movs	r3, #3
 8009d9a:	e08c      	b.n	8009eb6 <USBD_SetConfig+0x146>
 8009d9c:	687b      	ldr	r3, [r7, #4]
 8009d9e:	f893 329c 	ldrb.w	r3, [r3, #668]	; 0x29c
 8009da2:	b2db      	uxtb	r3, r3
 8009da4:	2b02      	cmp	r3, #2
 8009da6:	d002      	beq.n	8009dae <USBD_SetConfig+0x3e>
 8009da8:	2b03      	cmp	r3, #3
 8009daa:	d029      	beq.n	8009e00 <USBD_SetConfig+0x90>
 8009dac:	e075      	b.n	8009e9a <USBD_SetConfig+0x12a>
 8009dae:	4b44      	ldr	r3, [pc, #272]	; (8009ec0 <USBD_SetConfig+0x150>)
 8009db0:	781b      	ldrb	r3, [r3, #0]
 8009db2:	2b00      	cmp	r3, #0
 8009db4:	d020      	beq.n	8009df8 <USBD_SetConfig+0x88>
 8009db6:	4b42      	ldr	r3, [pc, #264]	; (8009ec0 <USBD_SetConfig+0x150>)
 8009db8:	781b      	ldrb	r3, [r3, #0]
 8009dba:	461a      	mov	r2, r3
 8009dbc:	687b      	ldr	r3, [r7, #4]
 8009dbe:	605a      	str	r2, [r3, #4]
 8009dc0:	4b3f      	ldr	r3, [pc, #252]	; (8009ec0 <USBD_SetConfig+0x150>)
 8009dc2:	781b      	ldrb	r3, [r3, #0]
 8009dc4:	4619      	mov	r1, r3
 8009dc6:	6878      	ldr	r0, [r7, #4]
 8009dc8:	f7fe ffcb 	bl	8008d62 <USBD_SetClassConfig>
 8009dcc:	4603      	mov	r3, r0
 8009dce:	73fb      	strb	r3, [r7, #15]
 8009dd0:	7bfb      	ldrb	r3, [r7, #15]
 8009dd2:	2b00      	cmp	r3, #0
 8009dd4:	d008      	beq.n	8009de8 <USBD_SetConfig+0x78>
 8009dd6:	6839      	ldr	r1, [r7, #0]
 8009dd8:	6878      	ldr	r0, [r7, #4]
 8009dda:	f000 f962 	bl	800a0a2 <USBD_CtlError>
 8009dde:	687b      	ldr	r3, [r7, #4]
 8009de0:	2202      	movs	r2, #2
 8009de2:	f883 229c 	strb.w	r2, [r3, #668]	; 0x29c
 8009de6:	e065      	b.n	8009eb4 <USBD_SetConfig+0x144>
 8009de8:	6878      	ldr	r0, [r7, #4]
 8009dea:	f000 fa38 	bl	800a25e <USBD_CtlSendStatus>
 8009dee:	687b      	ldr	r3, [r7, #4]
 8009df0:	2203      	movs	r2, #3
 8009df2:	f883 229c 	strb.w	r2, [r3, #668]	; 0x29c
 8009df6:	e05d      	b.n	8009eb4 <USBD_SetConfig+0x144>
 8009df8:	6878      	ldr	r0, [r7, #4]
 8009dfa:	f000 fa30 	bl	800a25e <USBD_CtlSendStatus>
 8009dfe:	e059      	b.n	8009eb4 <USBD_SetConfig+0x144>
 8009e00:	4b2f      	ldr	r3, [pc, #188]	; (8009ec0 <USBD_SetConfig+0x150>)
 8009e02:	781b      	ldrb	r3, [r3, #0]
 8009e04:	2b00      	cmp	r3, #0
 8009e06:	d112      	bne.n	8009e2e <USBD_SetConfig+0xbe>
 8009e08:	687b      	ldr	r3, [r7, #4]
 8009e0a:	2202      	movs	r2, #2
 8009e0c:	f883 229c 	strb.w	r2, [r3, #668]	; 0x29c
 8009e10:	4b2b      	ldr	r3, [pc, #172]	; (8009ec0 <USBD_SetConfig+0x150>)
 8009e12:	781b      	ldrb	r3, [r3, #0]
 8009e14:	461a      	mov	r2, r3
 8009e16:	687b      	ldr	r3, [r7, #4]
 8009e18:	605a      	str	r2, [r3, #4]
 8009e1a:	4b29      	ldr	r3, [pc, #164]	; (8009ec0 <USBD_SetConfig+0x150>)
 8009e1c:	781b      	ldrb	r3, [r3, #0]
 8009e1e:	4619      	mov	r1, r3
 8009e20:	6878      	ldr	r0, [r7, #4]
 8009e22:	f7fe ffba 	bl	8008d9a <USBD_ClrClassConfig>
 8009e26:	6878      	ldr	r0, [r7, #4]
 8009e28:	f000 fa19 	bl	800a25e <USBD_CtlSendStatus>
 8009e2c:	e042      	b.n	8009eb4 <USBD_SetConfig+0x144>
 8009e2e:	4b24      	ldr	r3, [pc, #144]	; (8009ec0 <USBD_SetConfig+0x150>)
 8009e30:	781b      	ldrb	r3, [r3, #0]
 8009e32:	461a      	mov	r2, r3
 8009e34:	687b      	ldr	r3, [r7, #4]
 8009e36:	685b      	ldr	r3, [r3, #4]
 8009e38:	429a      	cmp	r2, r3
 8009e3a:	d02a      	beq.n	8009e92 <USBD_SetConfig+0x122>
 8009e3c:	687b      	ldr	r3, [r7, #4]
 8009e3e:	685b      	ldr	r3, [r3, #4]
 8009e40:	b2db      	uxtb	r3, r3
 8009e42:	4619      	mov	r1, r3
 8009e44:	6878      	ldr	r0, [r7, #4]
 8009e46:	f7fe ffa8 	bl	8008d9a <USBD_ClrClassConfig>
 8009e4a:	4b1d      	ldr	r3, [pc, #116]	; (8009ec0 <USBD_SetConfig+0x150>)
 8009e4c:	781b      	ldrb	r3, [r3, #0]
 8009e4e:	461a      	mov	r2, r3
 8009e50:	687b      	ldr	r3, [r7, #4]
 8009e52:	605a      	str	r2, [r3, #4]
 8009e54:	4b1a      	ldr	r3, [pc, #104]	; (8009ec0 <USBD_SetConfig+0x150>)
 8009e56:	781b      	ldrb	r3, [r3, #0]
 8009e58:	4619      	mov	r1, r3
 8009e5a:	6878      	ldr	r0, [r7, #4]
 8009e5c:	f7fe ff81 	bl	8008d62 <USBD_SetClassConfig>
 8009e60:	4603      	mov	r3, r0
 8009e62:	73fb      	strb	r3, [r7, #15]
 8009e64:	7bfb      	ldrb	r3, [r7, #15]
 8009e66:	2b00      	cmp	r3, #0
 8009e68:	d00f      	beq.n	8009e8a <USBD_SetConfig+0x11a>
 8009e6a:	6839      	ldr	r1, [r7, #0]
 8009e6c:	6878      	ldr	r0, [r7, #4]
 8009e6e:	f000 f918 	bl	800a0a2 <USBD_CtlError>
 8009e72:	687b      	ldr	r3, [r7, #4]
 8009e74:	685b      	ldr	r3, [r3, #4]
 8009e76:	b2db      	uxtb	r3, r3
 8009e78:	4619      	mov	r1, r3
 8009e7a:	6878      	ldr	r0, [r7, #4]
 8009e7c:	f7fe ff8d 	bl	8008d9a <USBD_ClrClassConfig>
 8009e80:	687b      	ldr	r3, [r7, #4]
 8009e82:	2202      	movs	r2, #2
 8009e84:	f883 229c 	strb.w	r2, [r3, #668]	; 0x29c
 8009e88:	e014      	b.n	8009eb4 <USBD_SetConfig+0x144>
 8009e8a:	6878      	ldr	r0, [r7, #4]
 8009e8c:	f000 f9e7 	bl	800a25e <USBD_CtlSendStatus>
 8009e90:	e010      	b.n	8009eb4 <USBD_SetConfig+0x144>
 8009e92:	6878      	ldr	r0, [r7, #4]
 8009e94:	f000 f9e3 	bl	800a25e <USBD_CtlSendStatus>
 8009e98:	e00c      	b.n	8009eb4 <USBD_SetConfig+0x144>
 8009e9a:	6839      	ldr	r1, [r7, #0]
 8009e9c:	6878      	ldr	r0, [r7, #4]
 8009e9e:	f000 f900 	bl	800a0a2 <USBD_CtlError>
 8009ea2:	4b07      	ldr	r3, [pc, #28]	; (8009ec0 <USBD_SetConfig+0x150>)
 8009ea4:	781b      	ldrb	r3, [r3, #0]
 8009ea6:	4619      	mov	r1, r3
 8009ea8:	6878      	ldr	r0, [r7, #4]
 8009eaa:	f7fe ff76 	bl	8008d9a <USBD_ClrClassConfig>
 8009eae:	2303      	movs	r3, #3
 8009eb0:	73fb      	strb	r3, [r7, #15]
 8009eb2:	bf00      	nop
 8009eb4:	7bfb      	ldrb	r3, [r7, #15]
 8009eb6:	4618      	mov	r0, r3
 8009eb8:	3710      	adds	r7, #16
 8009eba:	46bd      	mov	sp, r7
 8009ebc:	bd80      	pop	{r7, pc}
 8009ebe:	bf00      	nop
 8009ec0:	20000630 	.word	0x20000630

08009ec4 <USBD_GetConfig>:
 8009ec4:	b580      	push	{r7, lr}
 8009ec6:	b082      	sub	sp, #8
 8009ec8:	af00      	add	r7, sp, #0
 8009eca:	6078      	str	r0, [r7, #4]
 8009ecc:	6039      	str	r1, [r7, #0]
 8009ece:	683b      	ldr	r3, [r7, #0]
 8009ed0:	88db      	ldrh	r3, [r3, #6]
 8009ed2:	2b01      	cmp	r3, #1
 8009ed4:	d004      	beq.n	8009ee0 <USBD_GetConfig+0x1c>
 8009ed6:	6839      	ldr	r1, [r7, #0]
 8009ed8:	6878      	ldr	r0, [r7, #4]
 8009eda:	f000 f8e2 	bl	800a0a2 <USBD_CtlError>
 8009ede:	e023      	b.n	8009f28 <USBD_GetConfig+0x64>
 8009ee0:	687b      	ldr	r3, [r7, #4]
 8009ee2:	f893 329c 	ldrb.w	r3, [r3, #668]	; 0x29c
 8009ee6:	b2db      	uxtb	r3, r3
 8009ee8:	2b02      	cmp	r3, #2
 8009eea:	dc02      	bgt.n	8009ef2 <USBD_GetConfig+0x2e>
 8009eec:	2b00      	cmp	r3, #0
 8009eee:	dc03      	bgt.n	8009ef8 <USBD_GetConfig+0x34>
 8009ef0:	e015      	b.n	8009f1e <USBD_GetConfig+0x5a>
 8009ef2:	2b03      	cmp	r3, #3
 8009ef4:	d00b      	beq.n	8009f0e <USBD_GetConfig+0x4a>
 8009ef6:	e012      	b.n	8009f1e <USBD_GetConfig+0x5a>
 8009ef8:	687b      	ldr	r3, [r7, #4]
 8009efa:	2200      	movs	r2, #0
 8009efc:	609a      	str	r2, [r3, #8]
 8009efe:	687b      	ldr	r3, [r7, #4]
 8009f00:	3308      	adds	r3, #8
 8009f02:	2201      	movs	r2, #1
 8009f04:	4619      	mov	r1, r3
 8009f06:	6878      	ldr	r0, [r7, #4]
 8009f08:	f000 f948 	bl	800a19c <USBD_CtlSendData>
 8009f0c:	e00c      	b.n	8009f28 <USBD_GetConfig+0x64>
 8009f0e:	687b      	ldr	r3, [r7, #4]
 8009f10:	3304      	adds	r3, #4
 8009f12:	2201      	movs	r2, #1
 8009f14:	4619      	mov	r1, r3
 8009f16:	6878      	ldr	r0, [r7, #4]
 8009f18:	f000 f940 	bl	800a19c <USBD_CtlSendData>
 8009f1c:	e004      	b.n	8009f28 <USBD_GetConfig+0x64>
 8009f1e:	6839      	ldr	r1, [r7, #0]
 8009f20:	6878      	ldr	r0, [r7, #4]
 8009f22:	f000 f8be 	bl	800a0a2 <USBD_CtlError>
 8009f26:	bf00      	nop
 8009f28:	bf00      	nop
 8009f2a:	3708      	adds	r7, #8
 8009f2c:	46bd      	mov	sp, r7
 8009f2e:	bd80      	pop	{r7, pc}

08009f30 <USBD_GetStatus>:
 8009f30:	b580      	push	{r7, lr}
 8009f32:	b082      	sub	sp, #8
 8009f34:	af00      	add	r7, sp, #0
 8009f36:	6078      	str	r0, [r7, #4]
 8009f38:	6039      	str	r1, [r7, #0]
 8009f3a:	687b      	ldr	r3, [r7, #4]
 8009f3c:	f893 329c 	ldrb.w	r3, [r3, #668]	; 0x29c
 8009f40:	b2db      	uxtb	r3, r3
 8009f42:	3b01      	subs	r3, #1
 8009f44:	2b02      	cmp	r3, #2
 8009f46:	d81e      	bhi.n	8009f86 <USBD_GetStatus+0x56>
 8009f48:	683b      	ldr	r3, [r7, #0]
 8009f4a:	88db      	ldrh	r3, [r3, #6]
 8009f4c:	2b02      	cmp	r3, #2
 8009f4e:	d004      	beq.n	8009f5a <USBD_GetStatus+0x2a>
 8009f50:	6839      	ldr	r1, [r7, #0]
 8009f52:	6878      	ldr	r0, [r7, #4]
 8009f54:	f000 f8a5 	bl	800a0a2 <USBD_CtlError>
 8009f58:	e01a      	b.n	8009f90 <USBD_GetStatus+0x60>
 8009f5a:	687b      	ldr	r3, [r7, #4]
 8009f5c:	2201      	movs	r2, #1
 8009f5e:	60da      	str	r2, [r3, #12]
 8009f60:	687b      	ldr	r3, [r7, #4]
 8009f62:	f8d3 32a4 	ldr.w	r3, [r3, #676]	; 0x2a4
 8009f66:	2b00      	cmp	r3, #0
 8009f68:	d005      	beq.n	8009f76 <USBD_GetStatus+0x46>
 8009f6a:	687b      	ldr	r3, [r7, #4]
 8009f6c:	68db      	ldr	r3, [r3, #12]
 8009f6e:	f043 0202 	orr.w	r2, r3, #2
 8009f72:	687b      	ldr	r3, [r7, #4]
 8009f74:	60da      	str	r2, [r3, #12]
 8009f76:	687b      	ldr	r3, [r7, #4]
 8009f78:	330c      	adds	r3, #12
 8009f7a:	2202      	movs	r2, #2
 8009f7c:	4619      	mov	r1, r3
 8009f7e:	6878      	ldr	r0, [r7, #4]
 8009f80:	f000 f90c 	bl	800a19c <USBD_CtlSendData>
 8009f84:	e004      	b.n	8009f90 <USBD_GetStatus+0x60>
 8009f86:	6839      	ldr	r1, [r7, #0]
 8009f88:	6878      	ldr	r0, [r7, #4]
 8009f8a:	f000 f88a 	bl	800a0a2 <USBD_CtlError>
 8009f8e:	bf00      	nop
 8009f90:	bf00      	nop
 8009f92:	3708      	adds	r7, #8
 8009f94:	46bd      	mov	sp, r7
 8009f96:	bd80      	pop	{r7, pc}

08009f98 <USBD_SetFeature>:
 8009f98:	b580      	push	{r7, lr}
 8009f9a:	b082      	sub	sp, #8
 8009f9c:	af00      	add	r7, sp, #0
 8009f9e:	6078      	str	r0, [r7, #4]
 8009fa0:	6039      	str	r1, [r7, #0]
 8009fa2:	683b      	ldr	r3, [r7, #0]
 8009fa4:	885b      	ldrh	r3, [r3, #2]
 8009fa6:	2b01      	cmp	r3, #1
 8009fa8:	d107      	bne.n	8009fba <USBD_SetFeature+0x22>
 8009faa:	687b      	ldr	r3, [r7, #4]
 8009fac:	2201      	movs	r2, #1
 8009fae:	f8c3 22a4 	str.w	r2, [r3, #676]	; 0x2a4
 8009fb2:	6878      	ldr	r0, [r7, #4]
 8009fb4:	f000 f953 	bl	800a25e <USBD_CtlSendStatus>
 8009fb8:	e013      	b.n	8009fe2 <USBD_SetFeature+0x4a>
 8009fba:	683b      	ldr	r3, [r7, #0]
 8009fbc:	885b      	ldrh	r3, [r3, #2]
 8009fbe:	2b02      	cmp	r3, #2
 8009fc0:	d10b      	bne.n	8009fda <USBD_SetFeature+0x42>
 8009fc2:	683b      	ldr	r3, [r7, #0]
 8009fc4:	889b      	ldrh	r3, [r3, #4]
 8009fc6:	0a1b      	lsrs	r3, r3, #8
 8009fc8:	b29b      	uxth	r3, r3
 8009fca:	b2da      	uxtb	r2, r3
 8009fcc:	687b      	ldr	r3, [r7, #4]
 8009fce:	f883 22a0 	strb.w	r2, [r3, #672]	; 0x2a0
 8009fd2:	6878      	ldr	r0, [r7, #4]
 8009fd4:	f000 f943 	bl	800a25e <USBD_CtlSendStatus>
 8009fd8:	e003      	b.n	8009fe2 <USBD_SetFeature+0x4a>
 8009fda:	6839      	ldr	r1, [r7, #0]
 8009fdc:	6878      	ldr	r0, [r7, #4]
 8009fde:	f000 f860 	bl	800a0a2 <USBD_CtlError>
 8009fe2:	bf00      	nop
 8009fe4:	3708      	adds	r7, #8
 8009fe6:	46bd      	mov	sp, r7
 8009fe8:	bd80      	pop	{r7, pc}

08009fea <USBD_ClrFeature>:
 8009fea:	b580      	push	{r7, lr}
 8009fec:	b082      	sub	sp, #8
 8009fee:	af00      	add	r7, sp, #0
 8009ff0:	6078      	str	r0, [r7, #4]
 8009ff2:	6039      	str	r1, [r7, #0]
 8009ff4:	687b      	ldr	r3, [r7, #4]
 8009ff6:	f893 329c 	ldrb.w	r3, [r3, #668]	; 0x29c
 8009ffa:	b2db      	uxtb	r3, r3
 8009ffc:	3b01      	subs	r3, #1
 8009ffe:	2b02      	cmp	r3, #2
 800a000:	d80b      	bhi.n	800a01a <USBD_ClrFeature+0x30>
 800a002:	683b      	ldr	r3, [r7, #0]
 800a004:	885b      	ldrh	r3, [r3, #2]
 800a006:	2b01      	cmp	r3, #1
 800a008:	d10c      	bne.n	800a024 <USBD_ClrFeature+0x3a>
 800a00a:	687b      	ldr	r3, [r7, #4]
 800a00c:	2200      	movs	r2, #0
 800a00e:	f8c3 22a4 	str.w	r2, [r3, #676]	; 0x2a4
 800a012:	6878      	ldr	r0, [r7, #4]
 800a014:	f000 f923 	bl	800a25e <USBD_CtlSendStatus>
 800a018:	e004      	b.n	800a024 <USBD_ClrFeature+0x3a>
 800a01a:	6839      	ldr	r1, [r7, #0]
 800a01c:	6878      	ldr	r0, [r7, #4]
 800a01e:	f000 f840 	bl	800a0a2 <USBD_CtlError>
 800a022:	e000      	b.n	800a026 <USBD_ClrFeature+0x3c>
 800a024:	bf00      	nop
 800a026:	bf00      	nop
 800a028:	3708      	adds	r7, #8
 800a02a:	46bd      	mov	sp, r7
 800a02c:	bd80      	pop	{r7, pc}

0800a02e <USBD_ParseSetupRequest>:
 800a02e:	b580      	push	{r7, lr}
 800a030:	b084      	sub	sp, #16
 800a032:	af00      	add	r7, sp, #0
 800a034:	6078      	str	r0, [r7, #4]
 800a036:	6039      	str	r1, [r7, #0]
 800a038:	683b      	ldr	r3, [r7, #0]
 800a03a:	60fb      	str	r3, [r7, #12]
 800a03c:	68fb      	ldr	r3, [r7, #12]
 800a03e:	781a      	ldrb	r2, [r3, #0]
 800a040:	687b      	ldr	r3, [r7, #4]
 800a042:	701a      	strb	r2, [r3, #0]
 800a044:	68fb      	ldr	r3, [r7, #12]
 800a046:	3301      	adds	r3, #1
 800a048:	60fb      	str	r3, [r7, #12]
 800a04a:	68fb      	ldr	r3, [r7, #12]
 800a04c:	781a      	ldrb	r2, [r3, #0]
 800a04e:	687b      	ldr	r3, [r7, #4]
 800a050:	705a      	strb	r2, [r3, #1]
 800a052:	68fb      	ldr	r3, [r7, #12]
 800a054:	3301      	adds	r3, #1
 800a056:	60fb      	str	r3, [r7, #12]
 800a058:	68f8      	ldr	r0, [r7, #12]
 800a05a:	f7ff fa3e 	bl	80094da <SWAPBYTE>
 800a05e:	4603      	mov	r3, r0
 800a060:	461a      	mov	r2, r3
 800a062:	687b      	ldr	r3, [r7, #4]
 800a064:	805a      	strh	r2, [r3, #2]
 800a066:	68fb      	ldr	r3, [r7, #12]
 800a068:	3301      	adds	r3, #1
 800a06a:	60fb      	str	r3, [r7, #12]
 800a06c:	68fb      	ldr	r3, [r7, #12]
 800a06e:	3301      	adds	r3, #1
 800a070:	60fb      	str	r3, [r7, #12]
 800a072:	68f8      	ldr	r0, [r7, #12]
 800a074:	f7ff fa31 	bl	80094da <SWAPBYTE>
 800a078:	4603      	mov	r3, r0
 800a07a:	461a      	mov	r2, r3
 800a07c:	687b      	ldr	r3, [r7, #4]
 800a07e:	809a      	strh	r2, [r3, #4]
 800a080:	68fb      	ldr	r3, [r7, #12]
 800a082:	3301      	adds	r3, #1
 800a084:	60fb      	str	r3, [r7, #12]
 800a086:	68fb      	ldr	r3, [r7, #12]
 800a088:	3301      	adds	r3, #1
 800a08a:	60fb      	str	r3, [r7, #12]
 800a08c:	68f8      	ldr	r0, [r7, #12]
 800a08e:	f7ff fa24 	bl	80094da <SWAPBYTE>
 800a092:	4603      	mov	r3, r0
 800a094:	461a      	mov	r2, r3
 800a096:	687b      	ldr	r3, [r7, #4]
 800a098:	80da      	strh	r2, [r3, #6]
 800a09a:	bf00      	nop
 800a09c:	3710      	adds	r7, #16
 800a09e:	46bd      	mov	sp, r7
 800a0a0:	bd80      	pop	{r7, pc}

0800a0a2 <USBD_CtlError>:
 800a0a2:	b580      	push	{r7, lr}
 800a0a4:	b082      	sub	sp, #8
 800a0a6:	af00      	add	r7, sp, #0
 800a0a8:	6078      	str	r0, [r7, #4]
 800a0aa:	6039      	str	r1, [r7, #0]
 800a0ac:	2180      	movs	r1, #128	; 0x80
 800a0ae:	6878      	ldr	r0, [r7, #4]
 800a0b0:	f000 fd58 	bl	800ab64 <USBD_LL_StallEP>
 800a0b4:	2100      	movs	r1, #0
 800a0b6:	6878      	ldr	r0, [r7, #4]
 800a0b8:	f000 fd54 	bl	800ab64 <USBD_LL_StallEP>
 800a0bc:	bf00      	nop
 800a0be:	3708      	adds	r7, #8
 800a0c0:	46bd      	mov	sp, r7
 800a0c2:	bd80      	pop	{r7, pc}

0800a0c4 <USBD_GetString>:
 800a0c4:	b580      	push	{r7, lr}
 800a0c6:	b086      	sub	sp, #24
 800a0c8:	af00      	add	r7, sp, #0
 800a0ca:	60f8      	str	r0, [r7, #12]
 800a0cc:	60b9      	str	r1, [r7, #8]
 800a0ce:	607a      	str	r2, [r7, #4]
 800a0d0:	2300      	movs	r3, #0
 800a0d2:	75fb      	strb	r3, [r7, #23]
 800a0d4:	68fb      	ldr	r3, [r7, #12]
 800a0d6:	2b00      	cmp	r3, #0
 800a0d8:	d042      	beq.n	800a160 <USBD_GetString+0x9c>
 800a0da:	68fb      	ldr	r3, [r7, #12]
 800a0dc:	613b      	str	r3, [r7, #16]
 800a0de:	6938      	ldr	r0, [r7, #16]
 800a0e0:	f000 f842 	bl	800a168 <USBD_GetLen>
 800a0e4:	4603      	mov	r3, r0
 800a0e6:	3301      	adds	r3, #1
 800a0e8:	005b      	lsls	r3, r3, #1
 800a0ea:	f5b3 7f00 	cmp.w	r3, #512	; 0x200
 800a0ee:	d808      	bhi.n	800a102 <USBD_GetString+0x3e>
 800a0f0:	6938      	ldr	r0, [r7, #16]
 800a0f2:	f000 f839 	bl	800a168 <USBD_GetLen>
 800a0f6:	4603      	mov	r3, r0
 800a0f8:	3301      	adds	r3, #1
 800a0fa:	b29b      	uxth	r3, r3
 800a0fc:	005b      	lsls	r3, r3, #1
 800a0fe:	b29a      	uxth	r2, r3
 800a100:	e001      	b.n	800a106 <USBD_GetString+0x42>
 800a102:	f44f 7200 	mov.w	r2, #512	; 0x200
 800a106:	687b      	ldr	r3, [r7, #4]
 800a108:	801a      	strh	r2, [r3, #0]
 800a10a:	7dfb      	ldrb	r3, [r7, #23]
 800a10c:	68ba      	ldr	r2, [r7, #8]
 800a10e:	4413      	add	r3, r2
 800a110:	687a      	ldr	r2, [r7, #4]
 800a112:	7812      	ldrb	r2, [r2, #0]
 800a114:	701a      	strb	r2, [r3, #0]
 800a116:	7dfb      	ldrb	r3, [r7, #23]
 800a118:	3301      	adds	r3, #1
 800a11a:	75fb      	strb	r3, [r7, #23]
 800a11c:	7dfb      	ldrb	r3, [r7, #23]
 800a11e:	68ba      	ldr	r2, [r7, #8]
 800a120:	4413      	add	r3, r2
 800a122:	2203      	movs	r2, #3
 800a124:	701a      	strb	r2, [r3, #0]
 800a126:	7dfb      	ldrb	r3, [r7, #23]
 800a128:	3301      	adds	r3, #1
 800a12a:	75fb      	strb	r3, [r7, #23]
 800a12c:	e013      	b.n	800a156 <USBD_GetString+0x92>
 800a12e:	7dfb      	ldrb	r3, [r7, #23]
 800a130:	68ba      	ldr	r2, [r7, #8]
 800a132:	4413      	add	r3, r2
 800a134:	693a      	ldr	r2, [r7, #16]
 800a136:	7812      	ldrb	r2, [r2, #0]
 800a138:	701a      	strb	r2, [r3, #0]
 800a13a:	693b      	ldr	r3, [r7, #16]
 800a13c:	3301      	adds	r3, #1
 800a13e:	613b      	str	r3, [r7, #16]
 800a140:	7dfb      	ldrb	r3, [r7, #23]
 800a142:	3301      	adds	r3, #1
 800a144:	75fb      	strb	r3, [r7, #23]
 800a146:	7dfb      	ldrb	r3, [r7, #23]
 800a148:	68ba      	ldr	r2, [r7, #8]
 800a14a:	4413      	add	r3, r2
 800a14c:	2200      	movs	r2, #0
 800a14e:	701a      	strb	r2, [r3, #0]
 800a150:	7dfb      	ldrb	r3, [r7, #23]
 800a152:	3301      	adds	r3, #1
 800a154:	75fb      	strb	r3, [r7, #23]
 800a156:	693b      	ldr	r3, [r7, #16]
 800a158:	781b      	ldrb	r3, [r3, #0]
 800a15a:	2b00      	cmp	r3, #0
 800a15c:	d1e7      	bne.n	800a12e <USBD_GetString+0x6a>
 800a15e:	e000      	b.n	800a162 <USBD_GetString+0x9e>
 800a160:	bf00      	nop
 800a162:	3718      	adds	r7, #24
 800a164:	46bd      	mov	sp, r7
 800a166:	bd80      	pop	{r7, pc}

0800a168 <USBD_GetLen>:
 800a168:	b480      	push	{r7}
 800a16a:	b085      	sub	sp, #20
 800a16c:	af00      	add	r7, sp, #0
 800a16e:	6078      	str	r0, [r7, #4]
 800a170:	2300      	movs	r3, #0
 800a172:	73fb      	strb	r3, [r7, #15]
 800a174:	687b      	ldr	r3, [r7, #4]
 800a176:	60bb      	str	r3, [r7, #8]
 800a178:	e005      	b.n	800a186 <USBD_GetLen+0x1e>
 800a17a:	7bfb      	ldrb	r3, [r7, #15]
 800a17c:	3301      	adds	r3, #1
 800a17e:	73fb      	strb	r3, [r7, #15]
 800a180:	68bb      	ldr	r3, [r7, #8]
 800a182:	3301      	adds	r3, #1
 800a184:	60bb      	str	r3, [r7, #8]
 800a186:	68bb      	ldr	r3, [r7, #8]
 800a188:	781b      	ldrb	r3, [r3, #0]
 800a18a:	2b00      	cmp	r3, #0
 800a18c:	d1f5      	bne.n	800a17a <USBD_GetLen+0x12>
 800a18e:	7bfb      	ldrb	r3, [r7, #15]
 800a190:	4618      	mov	r0, r3
 800a192:	3714      	adds	r7, #20
 800a194:	46bd      	mov	sp, r7
 800a196:	f85d 7b04 	ldr.w	r7, [sp], #4
 800a19a:	4770      	bx	lr

0800a19c <USBD_CtlSendData>:
 800a19c:	b580      	push	{r7, lr}
 800a19e:	b084      	sub	sp, #16
 800a1a0:	af00      	add	r7, sp, #0
 800a1a2:	60f8      	str	r0, [r7, #12]
 800a1a4:	60b9      	str	r1, [r7, #8]
 800a1a6:	607a      	str	r2, [r7, #4]
 800a1a8:	68fb      	ldr	r3, [r7, #12]
 800a1aa:	2202      	movs	r2, #2
 800a1ac:	f8c3 2294 	str.w	r2, [r3, #660]	; 0x294
 800a1b0:	68fb      	ldr	r3, [r7, #12]
 800a1b2:	687a      	ldr	r2, [r7, #4]
 800a1b4:	615a      	str	r2, [r3, #20]
 800a1b6:	68fb      	ldr	r3, [r7, #12]
 800a1b8:	68ba      	ldr	r2, [r7, #8]
 800a1ba:	625a      	str	r2, [r3, #36]	; 0x24
 800a1bc:	68fb      	ldr	r3, [r7, #12]
 800a1be:	687a      	ldr	r2, [r7, #4]
 800a1c0:	619a      	str	r2, [r3, #24]
 800a1c2:	687b      	ldr	r3, [r7, #4]
 800a1c4:	68ba      	ldr	r2, [r7, #8]
 800a1c6:	2100      	movs	r1, #0
 800a1c8:	68f8      	ldr	r0, [r7, #12]
 800a1ca:	f000 fd54 	bl	800ac76 <USBD_LL_Transmit>
 800a1ce:	2300      	movs	r3, #0
 800a1d0:	4618      	mov	r0, r3
 800a1d2:	3710      	adds	r7, #16
 800a1d4:	46bd      	mov	sp, r7
 800a1d6:	bd80      	pop	{r7, pc}

0800a1d8 <USBD_CtlContinueSendData>:
 800a1d8:	b580      	push	{r7, lr}
 800a1da:	b084      	sub	sp, #16
 800a1dc:	af00      	add	r7, sp, #0
 800a1de:	60f8      	str	r0, [r7, #12]
 800a1e0:	60b9      	str	r1, [r7, #8]
 800a1e2:	607a      	str	r2, [r7, #4]
 800a1e4:	687b      	ldr	r3, [r7, #4]
 800a1e6:	68ba      	ldr	r2, [r7, #8]
 800a1e8:	2100      	movs	r1, #0
 800a1ea:	68f8      	ldr	r0, [r7, #12]
 800a1ec:	f000 fd43 	bl	800ac76 <USBD_LL_Transmit>
 800a1f0:	2300      	movs	r3, #0
 800a1f2:	4618      	mov	r0, r3
 800a1f4:	3710      	adds	r7, #16
 800a1f6:	46bd      	mov	sp, r7
 800a1f8:	bd80      	pop	{r7, pc}

0800a1fa <USBD_CtlPrepareRx>:
 800a1fa:	b580      	push	{r7, lr}
 800a1fc:	b084      	sub	sp, #16
 800a1fe:	af00      	add	r7, sp, #0
 800a200:	60f8      	str	r0, [r7, #12]
 800a202:	60b9      	str	r1, [r7, #8]
 800a204:	607a      	str	r2, [r7, #4]
 800a206:	68fb      	ldr	r3, [r7, #12]
 800a208:	2203      	movs	r2, #3
 800a20a:	f8c3 2294 	str.w	r2, [r3, #660]	; 0x294
 800a20e:	68fb      	ldr	r3, [r7, #12]
 800a210:	687a      	ldr	r2, [r7, #4]
 800a212:	f8c3 2154 	str.w	r2, [r3, #340]	; 0x154
 800a216:	68fb      	ldr	r3, [r7, #12]
 800a218:	68ba      	ldr	r2, [r7, #8]
 800a21a:	f8c3 2164 	str.w	r2, [r3, #356]	; 0x164
 800a21e:	68fb      	ldr	r3, [r7, #12]
 800a220:	687a      	ldr	r2, [r7, #4]
 800a222:	f8c3 2158 	str.w	r2, [r3, #344]	; 0x158
 800a226:	687b      	ldr	r3, [r7, #4]
 800a228:	68ba      	ldr	r2, [r7, #8]
 800a22a:	2100      	movs	r1, #0
 800a22c:	68f8      	ldr	r0, [r7, #12]
 800a22e:	f000 fd43 	bl	800acb8 <USBD_LL_PrepareReceive>
 800a232:	2300      	movs	r3, #0
 800a234:	4618      	mov	r0, r3
 800a236:	3710      	adds	r7, #16
 800a238:	46bd      	mov	sp, r7
 800a23a:	bd80      	pop	{r7, pc}

0800a23c <USBD_CtlContinueRx>:
 800a23c:	b580      	push	{r7, lr}
 800a23e:	b084      	sub	sp, #16
 800a240:	af00      	add	r7, sp, #0
 800a242:	60f8      	str	r0, [r7, #12]
 800a244:	60b9      	str	r1, [r7, #8]
 800a246:	607a      	str	r2, [r7, #4]
 800a248:	687b      	ldr	r3, [r7, #4]
 800a24a:	68ba      	ldr	r2, [r7, #8]
 800a24c:	2100      	movs	r1, #0
 800a24e:	68f8      	ldr	r0, [r7, #12]
 800a250:	f000 fd32 	bl	800acb8 <USBD_LL_PrepareReceive>
 800a254:	2300      	movs	r3, #0
 800a256:	4618      	mov	r0, r3
 800a258:	3710      	adds	r7, #16
 800a25a:	46bd      	mov	sp, r7
 800a25c:	bd80      	pop	{r7, pc}

0800a25e <USBD_CtlSendStatus>:
 800a25e:	b580      	push	{r7, lr}
 800a260:	b082      	sub	sp, #8
 800a262:	af00      	add	r7, sp, #0
 800a264:	6078      	str	r0, [r7, #4]
 800a266:	687b      	ldr	r3, [r7, #4]
 800a268:	2204      	movs	r2, #4
 800a26a:	f8c3 2294 	str.w	r2, [r3, #660]	; 0x294
 800a26e:	2300      	movs	r3, #0
 800a270:	2200      	movs	r2, #0
 800a272:	2100      	movs	r1, #0
 800a274:	6878      	ldr	r0, [r7, #4]
 800a276:	f000 fcfe 	bl	800ac76 <USBD_LL_Transmit>
 800a27a:	2300      	movs	r3, #0
 800a27c:	4618      	mov	r0, r3
 800a27e:	3708      	adds	r7, #8
 800a280:	46bd      	mov	sp, r7
 800a282:	bd80      	pop	{r7, pc}

0800a284 <USBD_CtlReceiveStatus>:
 800a284:	b580      	push	{r7, lr}
 800a286:	b082      	sub	sp, #8
 800a288:	af00      	add	r7, sp, #0
 800a28a:	6078      	str	r0, [r7, #4]
 800a28c:	687b      	ldr	r3, [r7, #4]
 800a28e:	2205      	movs	r2, #5
 800a290:	f8c3 2294 	str.w	r2, [r3, #660]	; 0x294
 800a294:	2300      	movs	r3, #0
 800a296:	2200      	movs	r2, #0
 800a298:	2100      	movs	r1, #0
 800a29a:	6878      	ldr	r0, [r7, #4]
 800a29c:	f000 fd0c 	bl	800acb8 <USBD_LL_PrepareReceive>
 800a2a0:	2300      	movs	r3, #0
 800a2a2:	4618      	mov	r0, r3
 800a2a4:	3708      	adds	r7, #8
 800a2a6:	46bd      	mov	sp, r7
 800a2a8:	bd80      	pop	{r7, pc}
	...

0800a2ac <MX_USB_DEVICE_Init>:
 800a2ac:	b580      	push	{r7, lr}
 800a2ae:	af00      	add	r7, sp, #0
 800a2b0:	2200      	movs	r2, #0
 800a2b2:	4912      	ldr	r1, [pc, #72]	; (800a2fc <MX_USB_DEVICE_Init+0x50>)
 800a2b4:	4812      	ldr	r0, [pc, #72]	; (800a300 <MX_USB_DEVICE_Init+0x54>)
 800a2b6:	f7fe fcd7 	bl	8008c68 <USBD_Init>
 800a2ba:	4603      	mov	r3, r0
 800a2bc:	2b00      	cmp	r3, #0
 800a2be:	d001      	beq.n	800a2c4 <MX_USB_DEVICE_Init+0x18>
 800a2c0:	f7f7 fa6e 	bl	80017a0 <Error_Handler>
 800a2c4:	490f      	ldr	r1, [pc, #60]	; (800a304 <MX_USB_DEVICE_Init+0x58>)
 800a2c6:	480e      	ldr	r0, [pc, #56]	; (800a300 <MX_USB_DEVICE_Init+0x54>)
 800a2c8:	f7fe fcfe 	bl	8008cc8 <USBD_RegisterClass>
 800a2cc:	4603      	mov	r3, r0
 800a2ce:	2b00      	cmp	r3, #0
 800a2d0:	d001      	beq.n	800a2d6 <MX_USB_DEVICE_Init+0x2a>
 800a2d2:	f7f7 fa65 	bl	80017a0 <Error_Handler>
 800a2d6:	490c      	ldr	r1, [pc, #48]	; (800a308 <MX_USB_DEVICE_Init+0x5c>)
 800a2d8:	4809      	ldr	r0, [pc, #36]	; (800a300 <MX_USB_DEVICE_Init+0x54>)
 800a2da:	f7fe fbf5 	bl	8008ac8 <USBD_CDC_RegisterInterface>
 800a2de:	4603      	mov	r3, r0
 800a2e0:	2b00      	cmp	r3, #0
 800a2e2:	d001      	beq.n	800a2e8 <MX_USB_DEVICE_Init+0x3c>
 800a2e4:	f7f7 fa5c 	bl	80017a0 <Error_Handler>
 800a2e8:	4805      	ldr	r0, [pc, #20]	; (800a300 <MX_USB_DEVICE_Init+0x54>)
 800a2ea:	f7fe fd23 	bl	8008d34 <USBD_Start>
 800a2ee:	4603      	mov	r3, r0
 800a2f0:	2b00      	cmp	r3, #0
 800a2f2:	d001      	beq.n	800a2f8 <MX_USB_DEVICE_Init+0x4c>
 800a2f4:	f7f7 fa54 	bl	80017a0 <Error_Handler>
 800a2f8:	bf00      	nop
 800a2fa:	bd80      	pop	{r7, pc}
 800a2fc:	200000b4 	.word	0x200000b4
 800a300:	20000634 	.word	0x20000634
 800a304:	20000018 	.word	0x20000018
 800a308:	200000a0 	.word	0x200000a0

0800a30c <CDC_Init_FS>:
/**
  * @brief  Initializes the CDC media low layer over the FS USB IP
  * @retval USBD_OK if all operations are OK else USBD_FAIL
  */
static int8_t CDC_Init_FS(void)
{
 800a30c:	b580      	push	{r7, lr}
 800a30e:	af00      	add	r7, sp, #0
  /* USER CODE BEGIN 3 */
  /* Set Application Buffers */
  USBD_CDC_SetTxBuffer(&hUsbDeviceFS, UserTxBufferFS, 0);
 800a310:	2200      	movs	r2, #0
 800a312:	4905      	ldr	r1, [pc, #20]	; (800a328 <CDC_Init_FS+0x1c>)
 800a314:	4805      	ldr	r0, [pc, #20]	; (800a32c <CDC_Init_FS+0x20>)
 800a316:	f7fe fbf1 	bl	8008afc <USBD_CDC_SetTxBuffer>
  USBD_CDC_SetRxBuffer(&hUsbDeviceFS, UserRxBufferFS);
 800a31a:	4905      	ldr	r1, [pc, #20]	; (800a330 <CDC_Init_FS+0x24>)
 800a31c:	4803      	ldr	r0, [pc, #12]	; (800a32c <CDC_Init_FS+0x20>)
 800a31e:	f7fe fc0f 	bl	8008b40 <USBD_CDC_SetRxBuffer>
  return (USBD_OK);
 800a322:	2300      	movs	r3, #0
  /* USER CODE END 3 */
}
 800a324:	4618      	mov	r0, r3
 800a326:	bd80      	pop	{r7, pc}
 800a328:	20000b10 	.word	0x20000b10
 800a32c:	20000634 	.word	0x20000634
 800a330:	20000910 	.word	0x20000910

0800a334 <CDC_DeInit_FS>:
/**
  * @brief  DeInitializes the CDC media low layer
  * @retval USBD_OK if all operations are OK else USBD_FAIL
  */
static int8_t CDC_DeInit_FS(void)
{
 800a334:	b480      	push	{r7}
 800a336:	af00      	add	r7, sp, #0
  /* USER CODE BEGIN 4 */
  return (USBD_OK);
 800a338:	2300      	movs	r3, #0
  /* USER CODE END 4 */
}
 800a33a:	4618      	mov	r0, r3
 800a33c:	46bd      	mov	sp, r7
 800a33e:	f85d 7b04 	ldr.w	r7, [sp], #4
 800a342:	4770      	bx	lr

0800a344 <CDC_Control_FS>:
  * @param  pbuf: Buffer containing command data (request parameters)
  * @param  length: Number of data to be sent (in bytes)
  * @retval Result of the operation: USBD_OK if all operations are OK else USBD_FAIL
  */
static int8_t CDC_Control_FS(uint8_t cmd, uint8_t* pbuf, uint16_t length)
{
 800a344:	b480      	push	{r7}
 800a346:	b083      	sub	sp, #12
 800a348:	af00      	add	r7, sp, #0
 800a34a:	4603      	mov	r3, r0
 800a34c:	6039      	str	r1, [r7, #0]
 800a34e:	71fb      	strb	r3, [r7, #7]
 800a350:	4613      	mov	r3, r2
 800a352:	80bb      	strh	r3, [r7, #4]
  /* USER CODE BEGIN 5 */
  switch(cmd)
 800a354:	79fb      	ldrb	r3, [r7, #7]
 800a356:	2b23      	cmp	r3, #35	; 0x23
 800a358:	f200 8098 	bhi.w	800a48c <CDC_Control_FS+0x148>
 800a35c:	a201      	add	r2, pc, #4	; (adr r2, 800a364 <CDC_Control_FS+0x20>)
 800a35e:	f852 f023 	ldr.w	pc, [r2, r3, lsl #2]
 800a362:	bf00      	nop
 800a364:	0800a48d 	.word	0x0800a48d
 800a368:	0800a48d 	.word	0x0800a48d
 800a36c:	0800a48d 	.word	0x0800a48d
 800a370:	0800a48d 	.word	0x0800a48d
 800a374:	0800a48d 	.word	0x0800a48d
 800a378:	0800a48d 	.word	0x0800a48d
 800a37c:	0800a48d 	.word	0x0800a48d
 800a380:	0800a48d 	.word	0x0800a48d
 800a384:	0800a48d 	.word	0x0800a48d
 800a388:	0800a48d 	.word	0x0800a48d
 800a38c:	0800a48d 	.word	0x0800a48d
 800a390:	0800a48d 	.word	0x0800a48d
 800a394:	0800a48d 	.word	0x0800a48d
 800a398:	0800a48d 	.word	0x0800a48d
 800a39c:	0800a48d 	.word	0x0800a48d
 800a3a0:	0800a48d 	.word	0x0800a48d
 800a3a4:	0800a48d 	.word	0x0800a48d
 800a3a8:	0800a48d 	.word	0x0800a48d
 800a3ac:	0800a48d 	.word	0x0800a48d
 800a3b0:	0800a48d 	.word	0x0800a48d
 800a3b4:	0800a48d 	.word	0x0800a48d
 800a3b8:	0800a48d 	.word	0x0800a48d
 800a3bc:	0800a48d 	.word	0x0800a48d
 800a3c0:	0800a48d 	.word	0x0800a48d
 800a3c4:	0800a48d 	.word	0x0800a48d
 800a3c8:	0800a48d 	.word	0x0800a48d
 800a3cc:	0800a48d 	.word	0x0800a48d
 800a3d0:	0800a48d 	.word	0x0800a48d
 800a3d4:	0800a48d 	.word	0x0800a48d
 800a3d8:	0800a48d 	.word	0x0800a48d
 800a3dc:	0800a48d 	.word	0x0800a48d
 800a3e0:	0800a48d 	.word	0x0800a48d
 800a3e4:	0800a3f5 	.word	0x0800a3f5
 800a3e8:	0800a439 	.word	0x0800a439
 800a3ec:	0800a48d 	.word	0x0800a48d
 800a3f0:	0800a48d 	.word	0x0800a48d
  /*                                        3 - Mark                             */
  /*                                        4 - Space                            */
  /* 6      | bDataBits  |   1   | Number Data bits (5, 6, 7, 8 or 16).          */
  /*******************************************************************************/
    case CDC_SET_LINE_CODING:
    	LineCoding.bitrate = (uint32_t)(pbuf[0] | (pbuf[1] << 8) | (pbuf[2] << 16) | (pbuf[3] << 24));
 800a3f4:	683b      	ldr	r3, [r7, #0]
 800a3f6:	781b      	ldrb	r3, [r3, #0]
 800a3f8:	461a      	mov	r2, r3
 800a3fa:	683b      	ldr	r3, [r7, #0]
 800a3fc:	3301      	adds	r3, #1
 800a3fe:	781b      	ldrb	r3, [r3, #0]
 800a400:	021b      	lsls	r3, r3, #8
 800a402:	431a      	orrs	r2, r3
 800a404:	683b      	ldr	r3, [r7, #0]
 800a406:	3302      	adds	r3, #2
 800a408:	781b      	ldrb	r3, [r3, #0]
 800a40a:	041b      	lsls	r3, r3, #16
 800a40c:	431a      	orrs	r2, r3
 800a40e:	683b      	ldr	r3, [r7, #0]
 800a410:	3303      	adds	r3, #3
 800a412:	781b      	ldrb	r3, [r3, #0]
 800a414:	061b      	lsls	r3, r3, #24
 800a416:	4313      	orrs	r3, r2
 800a418:	461a      	mov	r2, r3
 800a41a:	4b20      	ldr	r3, [pc, #128]	; (800a49c <CDC_Control_FS+0x158>)
 800a41c:	601a      	str	r2, [r3, #0]
		LineCoding.format = pbuf[4];
 800a41e:	683b      	ldr	r3, [r7, #0]
 800a420:	791a      	ldrb	r2, [r3, #4]
 800a422:	4b1e      	ldr	r3, [pc, #120]	; (800a49c <CDC_Control_FS+0x158>)
 800a424:	711a      	strb	r2, [r3, #4]
		LineCoding.paritytype = pbuf[5];
 800a426:	683b      	ldr	r3, [r7, #0]
 800a428:	795a      	ldrb	r2, [r3, #5]
 800a42a:	4b1c      	ldr	r3, [pc, #112]	; (800a49c <CDC_Control_FS+0x158>)
 800a42c:	715a      	strb	r2, [r3, #5]
		LineCoding.datatype = pbuf[6];
 800a42e:	683b      	ldr	r3, [r7, #0]
 800a430:	799a      	ldrb	r2, [r3, #6]
 800a432:	4b1a      	ldr	r3, [pc, #104]	; (800a49c <CDC_Control_FS+0x158>)
 800a434:	719a      	strb	r2, [r3, #6]
    break;
 800a436:	e02a      	b.n	800a48e <CDC_Control_FS+0x14a>

    case CDC_GET_LINE_CODING:
    	pbuf[0] = (uint8_t)(LineCoding.bitrate);
 800a438:	4b18      	ldr	r3, [pc, #96]	; (800a49c <CDC_Control_FS+0x158>)
 800a43a:	681b      	ldr	r3, [r3, #0]
 800a43c:	b2da      	uxtb	r2, r3
 800a43e:	683b      	ldr	r3, [r7, #0]
 800a440:	701a      	strb	r2, [r3, #0]
		pbuf[1] = (uint8_t)(LineCoding.bitrate >> 8);
 800a442:	4b16      	ldr	r3, [pc, #88]	; (800a49c <CDC_Control_FS+0x158>)
 800a444:	681b      	ldr	r3, [r3, #0]
 800a446:	0a1a      	lsrs	r2, r3, #8
 800a448:	683b      	ldr	r3, [r7, #0]
 800a44a:	3301      	adds	r3, #1
 800a44c:	b2d2      	uxtb	r2, r2
 800a44e:	701a      	strb	r2, [r3, #0]
		pbuf[2] = (uint8_t)(LineCoding.bitrate >> 16);
 800a450:	4b12      	ldr	r3, [pc, #72]	; (800a49c <CDC_Control_FS+0x158>)
 800a452:	681b      	ldr	r3, [r3, #0]
 800a454:	0c1a      	lsrs	r2, r3, #16
 800a456:	683b      	ldr	r3, [r7, #0]
 800a458:	3302      	adds	r3, #2
 800a45a:	b2d2      	uxtb	r2, r2
 800a45c:	701a      	strb	r2, [r3, #0]
		pbuf[3] = (uint8_t)(LineCoding.bitrate >> 24);
 800a45e:	4b0f      	ldr	r3, [pc, #60]	; (800a49c <CDC_Control_FS+0x158>)
 800a460:	681b      	ldr	r3, [r3, #0]
 800a462:	0e1a      	lsrs	r2, r3, #24
 800a464:	683b      	ldr	r3, [r7, #0]
 800a466:	3303      	adds	r3, #3
 800a468:	b2d2      	uxtb	r2, r2
 800a46a:	701a      	strb	r2, [r3, #0]
		pbuf[4] = LineCoding.format;
 800a46c:	683b      	ldr	r3, [r7, #0]
 800a46e:	3304      	adds	r3, #4
 800a470:	4a0a      	ldr	r2, [pc, #40]	; (800a49c <CDC_Control_FS+0x158>)
 800a472:	7912      	ldrb	r2, [r2, #4]
 800a474:	701a      	strb	r2, [r3, #0]
		pbuf[5] = LineCoding.paritytype;
 800a476:	683b      	ldr	r3, [r7, #0]
 800a478:	3305      	adds	r3, #5
 800a47a:	4a08      	ldr	r2, [pc, #32]	; (800a49c <CDC_Control_FS+0x158>)
 800a47c:	7952      	ldrb	r2, [r2, #5]
 800a47e:	701a      	strb	r2, [r3, #0]
		pbuf[6] = LineCoding.datatype;
 800a480:	683b      	ldr	r3, [r7, #0]
 800a482:	3306      	adds	r3, #6
 800a484:	4a05      	ldr	r2, [pc, #20]	; (800a49c <CDC_Control_FS+0x158>)
 800a486:	7992      	ldrb	r2, [r2, #6]
 800a488:	701a      	strb	r2, [r3, #0]
    break;
 800a48a:	e000      	b.n	800a48e <CDC_Control_FS+0x14a>
    case CDC_SEND_BREAK:

    break;

  default:
    break;
 800a48c:	bf00      	nop
  }

  return (USBD_OK);
 800a48e:	2300      	movs	r3, #0
  /* USER CODE END 5 */
}
 800a490:	4618      	mov	r0, r3
 800a492:	370c      	adds	r7, #12
 800a494:	46bd      	mov	sp, r7
 800a496:	f85d 7b04 	ldr.w	r7, [sp], #4
 800a49a:	4770      	bx	lr
 800a49c:	20000098 	.word	0x20000098

0800a4a0 <CDC_Receive_FS>:
  * @param  Buf: Buffer of data to be received
  * @param  Len: Number of data received (in bytes)
  * @retval Result of the operation: USBD_OK if all operations are OK else USBD_FAIL
  */
static int8_t CDC_Receive_FS(uint8_t* Buf, uint32_t *Len)
{
 800a4a0:	b580      	push	{r7, lr}
 800a4a2:	b082      	sub	sp, #8
 800a4a4:	af00      	add	r7, sp, #0
 800a4a6:	6078      	str	r0, [r7, #4]
 800a4a8:	6039      	str	r1, [r7, #0]
  /* USER CODE BEGIN 6 */
	if(MyPtrRx != NULL)
 800a4aa:	4b0c      	ldr	r3, [pc, #48]	; (800a4dc <CDC_Receive_FS+0x3c>)
 800a4ac:	681b      	ldr	r3, [r3, #0]
 800a4ae:	2b00      	cmp	r3, #0
 800a4b0:	d007      	beq.n	800a4c2 <CDC_Receive_FS+0x22>
		MyPtrRx(Buf, *Len);
 800a4b2:	4b0a      	ldr	r3, [pc, #40]	; (800a4dc <CDC_Receive_FS+0x3c>)
 800a4b4:	681b      	ldr	r3, [r3, #0]
 800a4b6:	683a      	ldr	r2, [r7, #0]
 800a4b8:	6812      	ldr	r2, [r2, #0]
 800a4ba:	b292      	uxth	r2, r2
 800a4bc:	4611      	mov	r1, r2
 800a4be:	6878      	ldr	r0, [r7, #4]
 800a4c0:	4798      	blx	r3

  USBD_CDC_SetRxBuffer(&hUsbDeviceFS, &Buf[0]);
 800a4c2:	6879      	ldr	r1, [r7, #4]
 800a4c4:	4806      	ldr	r0, [pc, #24]	; (800a4e0 <CDC_Receive_FS+0x40>)
 800a4c6:	f7fe fb3b 	bl	8008b40 <USBD_CDC_SetRxBuffer>
  USBD_CDC_ReceivePacket(&hUsbDeviceFS);
 800a4ca:	4805      	ldr	r0, [pc, #20]	; (800a4e0 <CDC_Receive_FS+0x40>)
 800a4cc:	f7fe fb96 	bl	8008bfc <USBD_CDC_ReceivePacket>
  return (USBD_OK);
 800a4d0:	2300      	movs	r3, #0
  /* USER CODE END 6 */
}
 800a4d2:	4618      	mov	r0, r3
 800a4d4:	3708      	adds	r7, #8
 800a4d6:	46bd      	mov	sp, r7
 800a4d8:	bd80      	pop	{r7, pc}
 800a4da:	bf00      	nop
 800a4dc:	20000d10 	.word	0x20000d10
 800a4e0:	20000634 	.word	0x20000634

0800a4e4 <CDC_Transmit_FS>:
  * @param  Buf: Buffer of data to be sent
  * @param  Len: Number of data to be sent (in bytes)
  * @retval USBD_OK if all operations are OK else USBD_FAIL or USBD_BUSY
  */
uint8_t CDC_Transmit_FS(uint8_t* Buf, uint16_t Len)
{
 800a4e4:	b580      	push	{r7, lr}
 800a4e6:	b084      	sub	sp, #16
 800a4e8:	af00      	add	r7, sp, #0
 800a4ea:	6078      	str	r0, [r7, #4]
 800a4ec:	460b      	mov	r3, r1
 800a4ee:	807b      	strh	r3, [r7, #2]
  uint8_t result = USBD_OK;
 800a4f0:	2300      	movs	r3, #0
 800a4f2:	73fb      	strb	r3, [r7, #15]
  /* USER CODE BEGIN 7 */
  USBD_CDC_HandleTypeDef *hcdc = (USBD_CDC_HandleTypeDef*)hUsbDeviceFS.pClassData;
 800a4f4:	4b0d      	ldr	r3, [pc, #52]	; (800a52c <CDC_Transmit_FS+0x48>)
 800a4f6:	f8d3 32bc 	ldr.w	r3, [r3, #700]	; 0x2bc
 800a4fa:	60bb      	str	r3, [r7, #8]
  if (hcdc->TxState != 0){
 800a4fc:	68bb      	ldr	r3, [r7, #8]
 800a4fe:	f8d3 3214 	ldr.w	r3, [r3, #532]	; 0x214
 800a502:	2b00      	cmp	r3, #0
 800a504:	d001      	beq.n	800a50a <CDC_Transmit_FS+0x26>
    return USBD_BUSY;
 800a506:	2301      	movs	r3, #1
 800a508:	e00b      	b.n	800a522 <CDC_Transmit_FS+0x3e>
  }
  USBD_CDC_SetTxBuffer(&hUsbDeviceFS, Buf, Len);
 800a50a:	887b      	ldrh	r3, [r7, #2]
 800a50c:	461a      	mov	r2, r3
 800a50e:	6879      	ldr	r1, [r7, #4]
 800a510:	4806      	ldr	r0, [pc, #24]	; (800a52c <CDC_Transmit_FS+0x48>)
 800a512:	f7fe faf3 	bl	8008afc <USBD_CDC_SetTxBuffer>
  result = USBD_CDC_TransmitPacket(&hUsbDeviceFS);
 800a516:	4805      	ldr	r0, [pc, #20]	; (800a52c <CDC_Transmit_FS+0x48>)
 800a518:	f7fe fb30 	bl	8008b7c <USBD_CDC_TransmitPacket>
 800a51c:	4603      	mov	r3, r0
 800a51e:	73fb      	strb	r3, [r7, #15]
  /* USER CODE END 7 */
  return result;
 800a520:	7bfb      	ldrb	r3, [r7, #15]
}
 800a522:	4618      	mov	r0, r3
 800a524:	3710      	adds	r7, #16
 800a526:	46bd      	mov	sp, r7
 800a528:	bd80      	pop	{r7, pc}
 800a52a:	bf00      	nop
 800a52c:	20000634 	.word	0x20000634

0800a530 <CDC_TransmitCplt_FS>:
  * @param  Buf: Buffer of data to be received
  * @param  Len: Number of data received (in bytes)
  * @retval Result of the operation: USBD_OK if all operations are OK else USBD_FAIL
  */
static int8_t CDC_TransmitCplt_FS(uint8_t *Buf, uint32_t *Len, uint8_t epnum)
{
 800a530:	b480      	push	{r7}
 800a532:	b087      	sub	sp, #28
 800a534:	af00      	add	r7, sp, #0
 800a536:	60f8      	str	r0, [r7, #12]
 800a538:	60b9      	str	r1, [r7, #8]
 800a53a:	4613      	mov	r3, r2
 800a53c:	71fb      	strb	r3, [r7, #7]
  uint8_t result = USBD_OK;
 800a53e:	2300      	movs	r3, #0
 800a540:	75fb      	strb	r3, [r7, #23]
  /* USER CODE BEGIN 13 */
  UNUSED(Buf);
  UNUSED(Len);
  UNUSED(epnum);
  /* USER CODE END 13 */
  return result;
 800a542:	f997 3017 	ldrsb.w	r3, [r7, #23]
}
 800a546:	4618      	mov	r0, r3
 800a548:	371c      	adds	r7, #28
 800a54a:	46bd      	mov	sp, r7
 800a54c:	f85d 7b04 	ldr.w	r7, [sp], #4
 800a550:	4770      	bx	lr
	...

0800a554 <CDC_Attach_Rx>:
 *
 * @param: buf contiene los bytes recibidos
 * @param: len cuantos bytes llegaron
 */
void CDC_Attach_Rx(void (*PtrRx)(uint8_t *buf, uint16_t Len))
{
 800a554:	b480      	push	{r7}
 800a556:	b083      	sub	sp, #12
 800a558:	af00      	add	r7, sp, #0
 800a55a:	6078      	str	r0, [r7, #4]
	MyPtrRx = PtrRx;
 800a55c:	4a04      	ldr	r2, [pc, #16]	; (800a570 <CDC_Attach_Rx+0x1c>)
 800a55e:	687b      	ldr	r3, [r7, #4]
 800a560:	6013      	str	r3, [r2, #0]
}
 800a562:	bf00      	nop
 800a564:	370c      	adds	r7, #12
 800a566:	46bd      	mov	sp, r7
 800a568:	f85d 7b04 	ldr.w	r7, [sp], #4
 800a56c:	4770      	bx	lr
 800a56e:	bf00      	nop
 800a570:	20000d10 	.word	0x20000d10

0800a574 <USBD_FS_DeviceDescriptor>:
 800a574:	b480      	push	{r7}
 800a576:	b083      	sub	sp, #12
 800a578:	af00      	add	r7, sp, #0
 800a57a:	4603      	mov	r3, r0
 800a57c:	6039      	str	r1, [r7, #0]
 800a57e:	71fb      	strb	r3, [r7, #7]
 800a580:	683b      	ldr	r3, [r7, #0]
 800a582:	2212      	movs	r2, #18
 800a584:	801a      	strh	r2, [r3, #0]
 800a586:	4b03      	ldr	r3, [pc, #12]	; (800a594 <USBD_FS_DeviceDescriptor+0x20>)
 800a588:	4618      	mov	r0, r3
 800a58a:	370c      	adds	r7, #12
 800a58c:	46bd      	mov	sp, r7
 800a58e:	f85d 7b04 	ldr.w	r7, [sp], #4
 800a592:	4770      	bx	lr
 800a594:	200000d0 	.word	0x200000d0

0800a598 <USBD_FS_LangIDStrDescriptor>:
 800a598:	b480      	push	{r7}
 800a59a:	b083      	sub	sp, #12
 800a59c:	af00      	add	r7, sp, #0
 800a59e:	4603      	mov	r3, r0
 800a5a0:	6039      	str	r1, [r7, #0]
 800a5a2:	71fb      	strb	r3, [r7, #7]
 800a5a4:	683b      	ldr	r3, [r7, #0]
 800a5a6:	2204      	movs	r2, #4
 800a5a8:	801a      	strh	r2, [r3, #0]
 800a5aa:	4b03      	ldr	r3, [pc, #12]	; (800a5b8 <USBD_FS_LangIDStrDescriptor+0x20>)
 800a5ac:	4618      	mov	r0, r3
 800a5ae:	370c      	adds	r7, #12
 800a5b0:	46bd      	mov	sp, r7
 800a5b2:	f85d 7b04 	ldr.w	r7, [sp], #4
 800a5b6:	4770      	bx	lr
 800a5b8:	200000e4 	.word	0x200000e4

0800a5bc <USBD_FS_ProductStrDescriptor>:
 800a5bc:	b580      	push	{r7, lr}
 800a5be:	b082      	sub	sp, #8
 800a5c0:	af00      	add	r7, sp, #0
 800a5c2:	4603      	mov	r3, r0
 800a5c4:	6039      	str	r1, [r7, #0]
 800a5c6:	71fb      	strb	r3, [r7, #7]
 800a5c8:	79fb      	ldrb	r3, [r7, #7]
 800a5ca:	2b00      	cmp	r3, #0
 800a5cc:	d105      	bne.n	800a5da <USBD_FS_ProductStrDescriptor+0x1e>
 800a5ce:	683a      	ldr	r2, [r7, #0]
 800a5d0:	4907      	ldr	r1, [pc, #28]	; (800a5f0 <USBD_FS_ProductStrDescriptor+0x34>)
 800a5d2:	4808      	ldr	r0, [pc, #32]	; (800a5f4 <USBD_FS_ProductStrDescriptor+0x38>)
 800a5d4:	f7ff fd76 	bl	800a0c4 <USBD_GetString>
 800a5d8:	e004      	b.n	800a5e4 <USBD_FS_ProductStrDescriptor+0x28>
 800a5da:	683a      	ldr	r2, [r7, #0]
 800a5dc:	4904      	ldr	r1, [pc, #16]	; (800a5f0 <USBD_FS_ProductStrDescriptor+0x34>)
 800a5de:	4805      	ldr	r0, [pc, #20]	; (800a5f4 <USBD_FS_ProductStrDescriptor+0x38>)
 800a5e0:	f7ff fd70 	bl	800a0c4 <USBD_GetString>
 800a5e4:	4b02      	ldr	r3, [pc, #8]	; (800a5f0 <USBD_FS_ProductStrDescriptor+0x34>)
 800a5e6:	4618      	mov	r0, r3
 800a5e8:	3708      	adds	r7, #8
 800a5ea:	46bd      	mov	sp, r7
 800a5ec:	bd80      	pop	{r7, pc}
 800a5ee:	bf00      	nop
 800a5f0:	20000d14 	.word	0x20000d14
 800a5f4:	0800ae18 	.word	0x0800ae18

0800a5f8 <USBD_FS_ManufacturerStrDescriptor>:
 800a5f8:	b580      	push	{r7, lr}
 800a5fa:	b082      	sub	sp, #8
 800a5fc:	af00      	add	r7, sp, #0
 800a5fe:	4603      	mov	r3, r0
 800a600:	6039      	str	r1, [r7, #0]
 800a602:	71fb      	strb	r3, [r7, #7]
 800a604:	683a      	ldr	r2, [r7, #0]
 800a606:	4904      	ldr	r1, [pc, #16]	; (800a618 <USBD_FS_ManufacturerStrDescriptor+0x20>)
 800a608:	4804      	ldr	r0, [pc, #16]	; (800a61c <USBD_FS_ManufacturerStrDescriptor+0x24>)
 800a60a:	f7ff fd5b 	bl	800a0c4 <USBD_GetString>
 800a60e:	4b02      	ldr	r3, [pc, #8]	; (800a618 <USBD_FS_ManufacturerStrDescriptor+0x20>)
 800a610:	4618      	mov	r0, r3
 800a612:	3708      	adds	r7, #8
 800a614:	46bd      	mov	sp, r7
 800a616:	bd80      	pop	{r7, pc}
 800a618:	20000d14 	.word	0x20000d14
 800a61c:	0800ae30 	.word	0x0800ae30

0800a620 <USBD_FS_SerialStrDescriptor>:
 800a620:	b580      	push	{r7, lr}
 800a622:	b082      	sub	sp, #8
 800a624:	af00      	add	r7, sp, #0
 800a626:	4603      	mov	r3, r0
 800a628:	6039      	str	r1, [r7, #0]
 800a62a:	71fb      	strb	r3, [r7, #7]
 800a62c:	683b      	ldr	r3, [r7, #0]
 800a62e:	221a      	movs	r2, #26
 800a630:	801a      	strh	r2, [r3, #0]
 800a632:	f000 f843 	bl	800a6bc <Get_SerialNum>
 800a636:	4b02      	ldr	r3, [pc, #8]	; (800a640 <USBD_FS_SerialStrDescriptor+0x20>)
 800a638:	4618      	mov	r0, r3
 800a63a:	3708      	adds	r7, #8
 800a63c:	46bd      	mov	sp, r7
 800a63e:	bd80      	pop	{r7, pc}
 800a640:	200000e8 	.word	0x200000e8

0800a644 <USBD_FS_ConfigStrDescriptor>:
 800a644:	b580      	push	{r7, lr}
 800a646:	b082      	sub	sp, #8
 800a648:	af00      	add	r7, sp, #0
 800a64a:	4603      	mov	r3, r0
 800a64c:	6039      	str	r1, [r7, #0]
 800a64e:	71fb      	strb	r3, [r7, #7]
 800a650:	79fb      	ldrb	r3, [r7, #7]
 800a652:	2b00      	cmp	r3, #0
 800a654:	d105      	bne.n	800a662 <USBD_FS_ConfigStrDescriptor+0x1e>
 800a656:	683a      	ldr	r2, [r7, #0]
 800a658:	4907      	ldr	r1, [pc, #28]	; (800a678 <USBD_FS_ConfigStrDescriptor+0x34>)
 800a65a:	4808      	ldr	r0, [pc, #32]	; (800a67c <USBD_FS_ConfigStrDescriptor+0x38>)
 800a65c:	f7ff fd32 	bl	800a0c4 <USBD_GetString>
 800a660:	e004      	b.n	800a66c <USBD_FS_ConfigStrDescriptor+0x28>
 800a662:	683a      	ldr	r2, [r7, #0]
 800a664:	4904      	ldr	r1, [pc, #16]	; (800a678 <USBD_FS_ConfigStrDescriptor+0x34>)
 800a666:	4805      	ldr	r0, [pc, #20]	; (800a67c <USBD_FS_ConfigStrDescriptor+0x38>)
 800a668:	f7ff fd2c 	bl	800a0c4 <USBD_GetString>
 800a66c:	4b02      	ldr	r3, [pc, #8]	; (800a678 <USBD_FS_ConfigStrDescriptor+0x34>)
 800a66e:	4618      	mov	r0, r3
 800a670:	3708      	adds	r7, #8
 800a672:	46bd      	mov	sp, r7
 800a674:	bd80      	pop	{r7, pc}
 800a676:	bf00      	nop
 800a678:	20000d14 	.word	0x20000d14
 800a67c:	0800ae44 	.word	0x0800ae44

0800a680 <USBD_FS_InterfaceStrDescriptor>:
 800a680:	b580      	push	{r7, lr}
 800a682:	b082      	sub	sp, #8
 800a684:	af00      	add	r7, sp, #0
 800a686:	4603      	mov	r3, r0
 800a688:	6039      	str	r1, [r7, #0]
 800a68a:	71fb      	strb	r3, [r7, #7]
 800a68c:	79fb      	ldrb	r3, [r7, #7]
 800a68e:	2b00      	cmp	r3, #0
 800a690:	d105      	bne.n	800a69e <USBD_FS_InterfaceStrDescriptor+0x1e>
 800a692:	683a      	ldr	r2, [r7, #0]
 800a694:	4907      	ldr	r1, [pc, #28]	; (800a6b4 <USBD_FS_InterfaceStrDescriptor+0x34>)
 800a696:	4808      	ldr	r0, [pc, #32]	; (800a6b8 <USBD_FS_InterfaceStrDescriptor+0x38>)
 800a698:	f7ff fd14 	bl	800a0c4 <USBD_GetString>
 800a69c:	e004      	b.n	800a6a8 <USBD_FS_InterfaceStrDescriptor+0x28>
 800a69e:	683a      	ldr	r2, [r7, #0]
 800a6a0:	4904      	ldr	r1, [pc, #16]	; (800a6b4 <USBD_FS_InterfaceStrDescriptor+0x34>)
 800a6a2:	4805      	ldr	r0, [pc, #20]	; (800a6b8 <USBD_FS_InterfaceStrDescriptor+0x38>)
 800a6a4:	f7ff fd0e 	bl	800a0c4 <USBD_GetString>
 800a6a8:	4b02      	ldr	r3, [pc, #8]	; (800a6b4 <USBD_FS_InterfaceStrDescriptor+0x34>)
 800a6aa:	4618      	mov	r0, r3
 800a6ac:	3708      	adds	r7, #8
 800a6ae:	46bd      	mov	sp, r7
 800a6b0:	bd80      	pop	{r7, pc}
 800a6b2:	bf00      	nop
 800a6b4:	20000d14 	.word	0x20000d14
 800a6b8:	0800ae50 	.word	0x0800ae50

0800a6bc <Get_SerialNum>:
 800a6bc:	b580      	push	{r7, lr}
 800a6be:	b084      	sub	sp, #16
 800a6c0:	af00      	add	r7, sp, #0
 800a6c2:	4b0f      	ldr	r3, [pc, #60]	; (800a700 <Get_SerialNum+0x44>)
 800a6c4:	681b      	ldr	r3, [r3, #0]
 800a6c6:	60fb      	str	r3, [r7, #12]
 800a6c8:	4b0e      	ldr	r3, [pc, #56]	; (800a704 <Get_SerialNum+0x48>)
 800a6ca:	681b      	ldr	r3, [r3, #0]
 800a6cc:	60bb      	str	r3, [r7, #8]
 800a6ce:	4b0e      	ldr	r3, [pc, #56]	; (800a708 <Get_SerialNum+0x4c>)
 800a6d0:	681b      	ldr	r3, [r3, #0]
 800a6d2:	607b      	str	r3, [r7, #4]
 800a6d4:	68fa      	ldr	r2, [r7, #12]
 800a6d6:	687b      	ldr	r3, [r7, #4]
 800a6d8:	4413      	add	r3, r2
 800a6da:	60fb      	str	r3, [r7, #12]
 800a6dc:	68fb      	ldr	r3, [r7, #12]
 800a6de:	2b00      	cmp	r3, #0
 800a6e0:	d009      	beq.n	800a6f6 <Get_SerialNum+0x3a>
 800a6e2:	2208      	movs	r2, #8
 800a6e4:	4909      	ldr	r1, [pc, #36]	; (800a70c <Get_SerialNum+0x50>)
 800a6e6:	68f8      	ldr	r0, [r7, #12]
 800a6e8:	f000 f814 	bl	800a714 <IntToUnicode>
 800a6ec:	2204      	movs	r2, #4
 800a6ee:	4908      	ldr	r1, [pc, #32]	; (800a710 <Get_SerialNum+0x54>)
 800a6f0:	68b8      	ldr	r0, [r7, #8]
 800a6f2:	f000 f80f 	bl	800a714 <IntToUnicode>
 800a6f6:	bf00      	nop
 800a6f8:	3710      	adds	r7, #16
 800a6fa:	46bd      	mov	sp, r7
 800a6fc:	bd80      	pop	{r7, pc}
 800a6fe:	bf00      	nop
 800a700:	1fff7a10 	.word	0x1fff7a10
 800a704:	1fff7a14 	.word	0x1fff7a14
 800a708:	1fff7a18 	.word	0x1fff7a18
 800a70c:	200000ea 	.word	0x200000ea
 800a710:	200000fa 	.word	0x200000fa

0800a714 <IntToUnicode>:
 800a714:	b480      	push	{r7}
 800a716:	b087      	sub	sp, #28
 800a718:	af00      	add	r7, sp, #0
 800a71a:	60f8      	str	r0, [r7, #12]
 800a71c:	60b9      	str	r1, [r7, #8]
 800a71e:	4613      	mov	r3, r2
 800a720:	71fb      	strb	r3, [r7, #7]
 800a722:	2300      	movs	r3, #0
 800a724:	75fb      	strb	r3, [r7, #23]
 800a726:	2300      	movs	r3, #0
 800a728:	75fb      	strb	r3, [r7, #23]
 800a72a:	e027      	b.n	800a77c <IntToUnicode+0x68>
 800a72c:	68fb      	ldr	r3, [r7, #12]
 800a72e:	0f1b      	lsrs	r3, r3, #28
 800a730:	2b09      	cmp	r3, #9
 800a732:	d80b      	bhi.n	800a74c <IntToUnicode+0x38>
 800a734:	68fb      	ldr	r3, [r7, #12]
 800a736:	0f1b      	lsrs	r3, r3, #28
 800a738:	b2da      	uxtb	r2, r3
 800a73a:	7dfb      	ldrb	r3, [r7, #23]
 800a73c:	005b      	lsls	r3, r3, #1
 800a73e:	4619      	mov	r1, r3
 800a740:	68bb      	ldr	r3, [r7, #8]
 800a742:	440b      	add	r3, r1
 800a744:	3230      	adds	r2, #48	; 0x30
 800a746:	b2d2      	uxtb	r2, r2
 800a748:	701a      	strb	r2, [r3, #0]
 800a74a:	e00a      	b.n	800a762 <IntToUnicode+0x4e>
 800a74c:	68fb      	ldr	r3, [r7, #12]
 800a74e:	0f1b      	lsrs	r3, r3, #28
 800a750:	b2da      	uxtb	r2, r3
 800a752:	7dfb      	ldrb	r3, [r7, #23]
 800a754:	005b      	lsls	r3, r3, #1
 800a756:	4619      	mov	r1, r3
 800a758:	68bb      	ldr	r3, [r7, #8]
 800a75a:	440b      	add	r3, r1
 800a75c:	3237      	adds	r2, #55	; 0x37
 800a75e:	b2d2      	uxtb	r2, r2
 800a760:	701a      	strb	r2, [r3, #0]
 800a762:	68fb      	ldr	r3, [r7, #12]
 800a764:	011b      	lsls	r3, r3, #4
 800a766:	60fb      	str	r3, [r7, #12]
 800a768:	7dfb      	ldrb	r3, [r7, #23]
 800a76a:	005b      	lsls	r3, r3, #1
 800a76c:	3301      	adds	r3, #1
 800a76e:	68ba      	ldr	r2, [r7, #8]
 800a770:	4413      	add	r3, r2
 800a772:	2200      	movs	r2, #0
 800a774:	701a      	strb	r2, [r3, #0]
 800a776:	7dfb      	ldrb	r3, [r7, #23]
 800a778:	3301      	adds	r3, #1
 800a77a:	75fb      	strb	r3, [r7, #23]
 800a77c:	7dfa      	ldrb	r2, [r7, #23]
 800a77e:	79fb      	ldrb	r3, [r7, #7]
 800a780:	429a      	cmp	r2, r3
 800a782:	d3d3      	bcc.n	800a72c <IntToUnicode+0x18>
 800a784:	bf00      	nop
 800a786:	bf00      	nop
 800a788:	371c      	adds	r7, #28
 800a78a:	46bd      	mov	sp, r7
 800a78c:	f85d 7b04 	ldr.w	r7, [sp], #4
 800a790:	4770      	bx	lr
	...

0800a794 <HAL_PCD_MspInit>:
 800a794:	b580      	push	{r7, lr}
 800a796:	b08a      	sub	sp, #40	; 0x28
 800a798:	af00      	add	r7, sp, #0
 800a79a:	6078      	str	r0, [r7, #4]
 800a79c:	f107 0314 	add.w	r3, r7, #20
 800a7a0:	2200      	movs	r2, #0
 800a7a2:	601a      	str	r2, [r3, #0]
 800a7a4:	605a      	str	r2, [r3, #4]
 800a7a6:	609a      	str	r2, [r3, #8]
 800a7a8:	60da      	str	r2, [r3, #12]
 800a7aa:	611a      	str	r2, [r3, #16]
 800a7ac:	687b      	ldr	r3, [r7, #4]
 800a7ae:	681b      	ldr	r3, [r3, #0]
 800a7b0:	f1b3 4fa0 	cmp.w	r3, #1342177280	; 0x50000000
 800a7b4:	d13a      	bne.n	800a82c <HAL_PCD_MspInit+0x98>
 800a7b6:	2300      	movs	r3, #0
 800a7b8:	613b      	str	r3, [r7, #16]
 800a7ba:	4b1e      	ldr	r3, [pc, #120]	; (800a834 <HAL_PCD_MspInit+0xa0>)
 800a7bc:	6b1b      	ldr	r3, [r3, #48]	; 0x30
 800a7be:	4a1d      	ldr	r2, [pc, #116]	; (800a834 <HAL_PCD_MspInit+0xa0>)
 800a7c0:	f043 0301 	orr.w	r3, r3, #1
 800a7c4:	6313      	str	r3, [r2, #48]	; 0x30
 800a7c6:	4b1b      	ldr	r3, [pc, #108]	; (800a834 <HAL_PCD_MspInit+0xa0>)
 800a7c8:	6b1b      	ldr	r3, [r3, #48]	; 0x30
 800a7ca:	f003 0301 	and.w	r3, r3, #1
 800a7ce:	613b      	str	r3, [r7, #16]
 800a7d0:	693b      	ldr	r3, [r7, #16]
 800a7d2:	f44f 53c0 	mov.w	r3, #6144	; 0x1800
 800a7d6:	617b      	str	r3, [r7, #20]
 800a7d8:	2302      	movs	r3, #2
 800a7da:	61bb      	str	r3, [r7, #24]
 800a7dc:	2300      	movs	r3, #0
 800a7de:	61fb      	str	r3, [r7, #28]
 800a7e0:	2303      	movs	r3, #3
 800a7e2:	623b      	str	r3, [r7, #32]
 800a7e4:	230a      	movs	r3, #10
 800a7e6:	627b      	str	r3, [r7, #36]	; 0x24
 800a7e8:	f107 0314 	add.w	r3, r7, #20
 800a7ec:	4619      	mov	r1, r3
 800a7ee:	4812      	ldr	r0, [pc, #72]	; (800a838 <HAL_PCD_MspInit+0xa4>)
 800a7f0:	f7f8 fb8a 	bl	8002f08 <HAL_GPIO_Init>
 800a7f4:	4b0f      	ldr	r3, [pc, #60]	; (800a834 <HAL_PCD_MspInit+0xa0>)
 800a7f6:	6b5b      	ldr	r3, [r3, #52]	; 0x34
 800a7f8:	4a0e      	ldr	r2, [pc, #56]	; (800a834 <HAL_PCD_MspInit+0xa0>)
 800a7fa:	f043 0380 	orr.w	r3, r3, #128	; 0x80
 800a7fe:	6353      	str	r3, [r2, #52]	; 0x34
 800a800:	2300      	movs	r3, #0
 800a802:	60fb      	str	r3, [r7, #12]
 800a804:	4b0b      	ldr	r3, [pc, #44]	; (800a834 <HAL_PCD_MspInit+0xa0>)
 800a806:	6c5b      	ldr	r3, [r3, #68]	; 0x44
 800a808:	4a0a      	ldr	r2, [pc, #40]	; (800a834 <HAL_PCD_MspInit+0xa0>)
 800a80a:	f443 4380 	orr.w	r3, r3, #16384	; 0x4000
 800a80e:	6453      	str	r3, [r2, #68]	; 0x44
 800a810:	4b08      	ldr	r3, [pc, #32]	; (800a834 <HAL_PCD_MspInit+0xa0>)
 800a812:	6c5b      	ldr	r3, [r3, #68]	; 0x44
 800a814:	f403 4380 	and.w	r3, r3, #16384	; 0x4000
 800a818:	60fb      	str	r3, [r7, #12]
 800a81a:	68fb      	ldr	r3, [r7, #12]
 800a81c:	2200      	movs	r2, #0
 800a81e:	2100      	movs	r1, #0
 800a820:	2043      	movs	r0, #67	; 0x43
 800a822:	f7f7 ff9c 	bl	800275e <HAL_NVIC_SetPriority>
 800a826:	2043      	movs	r0, #67	; 0x43
 800a828:	f7f7 ffb5 	bl	8002796 <HAL_NVIC_EnableIRQ>
 800a82c:	bf00      	nop
 800a82e:	3728      	adds	r7, #40	; 0x28
 800a830:	46bd      	mov	sp, r7
 800a832:	bd80      	pop	{r7, pc}
 800a834:	40023800 	.word	0x40023800
 800a838:	40020000 	.word	0x40020000

0800a83c <HAL_PCD_SetupStageCallback>:
 800a83c:	b580      	push	{r7, lr}
 800a83e:	b082      	sub	sp, #8
 800a840:	af00      	add	r7, sp, #0
 800a842:	6078      	str	r0, [r7, #4]
 800a844:	687b      	ldr	r3, [r7, #4]
 800a846:	f8d3 24e0 	ldr.w	r2, [r3, #1248]	; 0x4e0
 800a84a:	687b      	ldr	r3, [r7, #4]
 800a84c:	f203 439c 	addw	r3, r3, #1180	; 0x49c
 800a850:	4619      	mov	r1, r3
 800a852:	4610      	mov	r0, r2
 800a854:	f7fe fabb 	bl	8008dce <USBD_LL_SetupStage>
 800a858:	bf00      	nop
 800a85a:	3708      	adds	r7, #8
 800a85c:	46bd      	mov	sp, r7
 800a85e:	bd80      	pop	{r7, pc}

0800a860 <HAL_PCD_DataOutStageCallback>:
 800a860:	b580      	push	{r7, lr}
 800a862:	b082      	sub	sp, #8
 800a864:	af00      	add	r7, sp, #0
 800a866:	6078      	str	r0, [r7, #4]
 800a868:	460b      	mov	r3, r1
 800a86a:	70fb      	strb	r3, [r7, #3]
 800a86c:	687b      	ldr	r3, [r7, #4]
 800a86e:	f8d3 04e0 	ldr.w	r0, [r3, #1248]	; 0x4e0
 800a872:	78fa      	ldrb	r2, [r7, #3]
 800a874:	6879      	ldr	r1, [r7, #4]
 800a876:	4613      	mov	r3, r2
 800a878:	00db      	lsls	r3, r3, #3
 800a87a:	4413      	add	r3, r2
 800a87c:	009b      	lsls	r3, r3, #2
 800a87e:	440b      	add	r3, r1
 800a880:	f503 7318 	add.w	r3, r3, #608	; 0x260
 800a884:	681a      	ldr	r2, [r3, #0]
 800a886:	78fb      	ldrb	r3, [r7, #3]
 800a888:	4619      	mov	r1, r3
 800a88a:	f7fe faf5 	bl	8008e78 <USBD_LL_DataOutStage>
 800a88e:	bf00      	nop
 800a890:	3708      	adds	r7, #8
 800a892:	46bd      	mov	sp, r7
 800a894:	bd80      	pop	{r7, pc}

0800a896 <HAL_PCD_DataInStageCallback>:
 800a896:	b580      	push	{r7, lr}
 800a898:	b082      	sub	sp, #8
 800a89a:	af00      	add	r7, sp, #0
 800a89c:	6078      	str	r0, [r7, #4]
 800a89e:	460b      	mov	r3, r1
 800a8a0:	70fb      	strb	r3, [r7, #3]
 800a8a2:	687b      	ldr	r3, [r7, #4]
 800a8a4:	f8d3 04e0 	ldr.w	r0, [r3, #1248]	; 0x4e0
 800a8a8:	78fa      	ldrb	r2, [r7, #3]
 800a8aa:	6879      	ldr	r1, [r7, #4]
 800a8ac:	4613      	mov	r3, r2
 800a8ae:	00db      	lsls	r3, r3, #3
 800a8b0:	4413      	add	r3, r2
 800a8b2:	009b      	lsls	r3, r3, #2
 800a8b4:	440b      	add	r3, r1
 800a8b6:	3320      	adds	r3, #32
 800a8b8:	681a      	ldr	r2, [r3, #0]
 800a8ba:	78fb      	ldrb	r3, [r7, #3]
 800a8bc:	4619      	mov	r1, r3
 800a8be:	f7fe fb97 	bl	8008ff0 <USBD_LL_DataInStage>
 800a8c2:	bf00      	nop
 800a8c4:	3708      	adds	r7, #8
 800a8c6:	46bd      	mov	sp, r7
 800a8c8:	bd80      	pop	{r7, pc}

0800a8ca <HAL_PCD_SOFCallback>:
 800a8ca:	b580      	push	{r7, lr}
 800a8cc:	b082      	sub	sp, #8
 800a8ce:	af00      	add	r7, sp, #0
 800a8d0:	6078      	str	r0, [r7, #4]
 800a8d2:	687b      	ldr	r3, [r7, #4]
 800a8d4:	f8d3 34e0 	ldr.w	r3, [r3, #1248]	; 0x4e0
 800a8d8:	4618      	mov	r0, r3
 800a8da:	f7fe fcdb 	bl	8009294 <USBD_LL_SOF>
 800a8de:	bf00      	nop
 800a8e0:	3708      	adds	r7, #8
 800a8e2:	46bd      	mov	sp, r7
 800a8e4:	bd80      	pop	{r7, pc}

0800a8e6 <HAL_PCD_ResetCallback>:
 800a8e6:	b580      	push	{r7, lr}
 800a8e8:	b084      	sub	sp, #16
 800a8ea:	af00      	add	r7, sp, #0
 800a8ec:	6078      	str	r0, [r7, #4]
 800a8ee:	2301      	movs	r3, #1
 800a8f0:	73fb      	strb	r3, [r7, #15]
 800a8f2:	687b      	ldr	r3, [r7, #4]
 800a8f4:	79db      	ldrb	r3, [r3, #7]
 800a8f6:	2b02      	cmp	r3, #2
 800a8f8:	d001      	beq.n	800a8fe <HAL_PCD_ResetCallback+0x18>
 800a8fa:	f7f6 ff51 	bl	80017a0 <Error_Handler>
 800a8fe:	687b      	ldr	r3, [r7, #4]
 800a900:	f8d3 34e0 	ldr.w	r3, [r3, #1248]	; 0x4e0
 800a904:	7bfa      	ldrb	r2, [r7, #15]
 800a906:	4611      	mov	r1, r2
 800a908:	4618      	mov	r0, r3
 800a90a:	f7fe fc7f 	bl	800920c <USBD_LL_SetSpeed>
 800a90e:	687b      	ldr	r3, [r7, #4]
 800a910:	f8d3 34e0 	ldr.w	r3, [r3, #1248]	; 0x4e0
 800a914:	4618      	mov	r0, r3
 800a916:	f7fe fc26 	bl	8009166 <USBD_LL_Reset>
 800a91a:	bf00      	nop
 800a91c:	3710      	adds	r7, #16
 800a91e:	46bd      	mov	sp, r7
 800a920:	bd80      	pop	{r7, pc}
	...

0800a924 <HAL_PCD_SuspendCallback>:
 800a924:	b580      	push	{r7, lr}
 800a926:	b082      	sub	sp, #8
 800a928:	af00      	add	r7, sp, #0
 800a92a:	6078      	str	r0, [r7, #4]
 800a92c:	687b      	ldr	r3, [r7, #4]
 800a92e:	f8d3 34e0 	ldr.w	r3, [r3, #1248]	; 0x4e0
 800a932:	4618      	mov	r0, r3
 800a934:	f7fe fc7a 	bl	800922c <USBD_LL_Suspend>
 800a938:	687b      	ldr	r3, [r7, #4]
 800a93a:	681b      	ldr	r3, [r3, #0]
 800a93c:	f503 6360 	add.w	r3, r3, #3584	; 0xe00
 800a940:	681b      	ldr	r3, [r3, #0]
 800a942:	687a      	ldr	r2, [r7, #4]
 800a944:	6812      	ldr	r2, [r2, #0]
 800a946:	f502 6260 	add.w	r2, r2, #3584	; 0xe00
 800a94a:	f043 0301 	orr.w	r3, r3, #1
 800a94e:	6013      	str	r3, [r2, #0]
 800a950:	687b      	ldr	r3, [r7, #4]
 800a952:	7adb      	ldrb	r3, [r3, #11]
 800a954:	2b00      	cmp	r3, #0
 800a956:	d005      	beq.n	800a964 <HAL_PCD_SuspendCallback+0x40>
 800a958:	4b04      	ldr	r3, [pc, #16]	; (800a96c <HAL_PCD_SuspendCallback+0x48>)
 800a95a:	691b      	ldr	r3, [r3, #16]
 800a95c:	4a03      	ldr	r2, [pc, #12]	; (800a96c <HAL_PCD_SuspendCallback+0x48>)
 800a95e:	f043 0306 	orr.w	r3, r3, #6
 800a962:	6113      	str	r3, [r2, #16]
 800a964:	bf00      	nop
 800a966:	3708      	adds	r7, #8
 800a968:	46bd      	mov	sp, r7
 800a96a:	bd80      	pop	{r7, pc}
 800a96c:	e000ed00 	.word	0xe000ed00

0800a970 <HAL_PCD_ResumeCallback>:
 800a970:	b580      	push	{r7, lr}
 800a972:	b082      	sub	sp, #8
 800a974:	af00      	add	r7, sp, #0
 800a976:	6078      	str	r0, [r7, #4]
 800a978:	687b      	ldr	r3, [r7, #4]
 800a97a:	f8d3 34e0 	ldr.w	r3, [r3, #1248]	; 0x4e0
 800a97e:	4618      	mov	r0, r3
 800a980:	f7fe fc70 	bl	8009264 <USBD_LL_Resume>
 800a984:	bf00      	nop
 800a986:	3708      	adds	r7, #8
 800a988:	46bd      	mov	sp, r7
 800a98a:	bd80      	pop	{r7, pc}

0800a98c <HAL_PCD_ISOOUTIncompleteCallback>:
 800a98c:	b580      	push	{r7, lr}
 800a98e:	b082      	sub	sp, #8
 800a990:	af00      	add	r7, sp, #0
 800a992:	6078      	str	r0, [r7, #4]
 800a994:	460b      	mov	r3, r1
 800a996:	70fb      	strb	r3, [r7, #3]
 800a998:	687b      	ldr	r3, [r7, #4]
 800a99a:	f8d3 34e0 	ldr.w	r3, [r3, #1248]	; 0x4e0
 800a99e:	78fa      	ldrb	r2, [r7, #3]
 800a9a0:	4611      	mov	r1, r2
 800a9a2:	4618      	mov	r0, r3
 800a9a4:	f7fe fcc8 	bl	8009338 <USBD_LL_IsoOUTIncomplete>
 800a9a8:	bf00      	nop
 800a9aa:	3708      	adds	r7, #8
 800a9ac:	46bd      	mov	sp, r7
 800a9ae:	bd80      	pop	{r7, pc}

0800a9b0 <HAL_PCD_ISOINIncompleteCallback>:
 800a9b0:	b580      	push	{r7, lr}
 800a9b2:	b082      	sub	sp, #8
 800a9b4:	af00      	add	r7, sp, #0
 800a9b6:	6078      	str	r0, [r7, #4]
 800a9b8:	460b      	mov	r3, r1
 800a9ba:	70fb      	strb	r3, [r7, #3]
 800a9bc:	687b      	ldr	r3, [r7, #4]
 800a9be:	f8d3 34e0 	ldr.w	r3, [r3, #1248]	; 0x4e0
 800a9c2:	78fa      	ldrb	r2, [r7, #3]
 800a9c4:	4611      	mov	r1, r2
 800a9c6:	4618      	mov	r0, r3
 800a9c8:	f7fe fc84 	bl	80092d4 <USBD_LL_IsoINIncomplete>
 800a9cc:	bf00      	nop
 800a9ce:	3708      	adds	r7, #8
 800a9d0:	46bd      	mov	sp, r7
 800a9d2:	bd80      	pop	{r7, pc}

0800a9d4 <HAL_PCD_ConnectCallback>:
 800a9d4:	b580      	push	{r7, lr}
 800a9d6:	b082      	sub	sp, #8
 800a9d8:	af00      	add	r7, sp, #0
 800a9da:	6078      	str	r0, [r7, #4]
 800a9dc:	687b      	ldr	r3, [r7, #4]
 800a9de:	f8d3 34e0 	ldr.w	r3, [r3, #1248]	; 0x4e0
 800a9e2:	4618      	mov	r0, r3
 800a9e4:	f7fe fcda 	bl	800939c <USBD_LL_DevConnected>
 800a9e8:	bf00      	nop
 800a9ea:	3708      	adds	r7, #8
 800a9ec:	46bd      	mov	sp, r7
 800a9ee:	bd80      	pop	{r7, pc}

0800a9f0 <HAL_PCD_DisconnectCallback>:
 800a9f0:	b580      	push	{r7, lr}
 800a9f2:	b082      	sub	sp, #8
 800a9f4:	af00      	add	r7, sp, #0
 800a9f6:	6078      	str	r0, [r7, #4]
 800a9f8:	687b      	ldr	r3, [r7, #4]
 800a9fa:	f8d3 34e0 	ldr.w	r3, [r3, #1248]	; 0x4e0
 800a9fe:	4618      	mov	r0, r3
 800aa00:	f7fe fcd7 	bl	80093b2 <USBD_LL_DevDisconnected>
 800aa04:	bf00      	nop
 800aa06:	3708      	adds	r7, #8
 800aa08:	46bd      	mov	sp, r7
 800aa0a:	bd80      	pop	{r7, pc}

0800aa0c <USBD_LL_Init>:
 800aa0c:	b580      	push	{r7, lr}
 800aa0e:	b082      	sub	sp, #8
 800aa10:	af00      	add	r7, sp, #0
 800aa12:	6078      	str	r0, [r7, #4]
 800aa14:	687b      	ldr	r3, [r7, #4]
 800aa16:	781b      	ldrb	r3, [r3, #0]
 800aa18:	2b00      	cmp	r3, #0
 800aa1a:	d13c      	bne.n	800aa96 <USBD_LL_Init+0x8a>
 800aa1c:	4a20      	ldr	r2, [pc, #128]	; (800aaa0 <USBD_LL_Init+0x94>)
 800aa1e:	687b      	ldr	r3, [r7, #4]
 800aa20:	f8c2 34e0 	str.w	r3, [r2, #1248]	; 0x4e0
 800aa24:	687b      	ldr	r3, [r7, #4]
 800aa26:	4a1e      	ldr	r2, [pc, #120]	; (800aaa0 <USBD_LL_Init+0x94>)
 800aa28:	f8c3 22c8 	str.w	r2, [r3, #712]	; 0x2c8
 800aa2c:	4b1c      	ldr	r3, [pc, #112]	; (800aaa0 <USBD_LL_Init+0x94>)
 800aa2e:	f04f 42a0 	mov.w	r2, #1342177280	; 0x50000000
 800aa32:	601a      	str	r2, [r3, #0]
 800aa34:	4b1a      	ldr	r3, [pc, #104]	; (800aaa0 <USBD_LL_Init+0x94>)
 800aa36:	2204      	movs	r2, #4
 800aa38:	711a      	strb	r2, [r3, #4]
 800aa3a:	4b19      	ldr	r3, [pc, #100]	; (800aaa0 <USBD_LL_Init+0x94>)
 800aa3c:	2202      	movs	r2, #2
 800aa3e:	71da      	strb	r2, [r3, #7]
 800aa40:	4b17      	ldr	r3, [pc, #92]	; (800aaa0 <USBD_LL_Init+0x94>)
 800aa42:	2200      	movs	r2, #0
 800aa44:	719a      	strb	r2, [r3, #6]
 800aa46:	4b16      	ldr	r3, [pc, #88]	; (800aaa0 <USBD_LL_Init+0x94>)
 800aa48:	2202      	movs	r2, #2
 800aa4a:	725a      	strb	r2, [r3, #9]
 800aa4c:	4b14      	ldr	r3, [pc, #80]	; (800aaa0 <USBD_LL_Init+0x94>)
 800aa4e:	2200      	movs	r2, #0
 800aa50:	729a      	strb	r2, [r3, #10]
 800aa52:	4b13      	ldr	r3, [pc, #76]	; (800aaa0 <USBD_LL_Init+0x94>)
 800aa54:	2200      	movs	r2, #0
 800aa56:	72da      	strb	r2, [r3, #11]
 800aa58:	4b11      	ldr	r3, [pc, #68]	; (800aaa0 <USBD_LL_Init+0x94>)
 800aa5a:	2200      	movs	r2, #0
 800aa5c:	731a      	strb	r2, [r3, #12]
 800aa5e:	4b10      	ldr	r3, [pc, #64]	; (800aaa0 <USBD_LL_Init+0x94>)
 800aa60:	2200      	movs	r2, #0
 800aa62:	739a      	strb	r2, [r3, #14]
 800aa64:	4b0e      	ldr	r3, [pc, #56]	; (800aaa0 <USBD_LL_Init+0x94>)
 800aa66:	2200      	movs	r2, #0
 800aa68:	73da      	strb	r2, [r3, #15]
 800aa6a:	480d      	ldr	r0, [pc, #52]	; (800aaa0 <USBD_LL_Init+0x94>)
 800aa6c:	f7f9 fa95 	bl	8003f9a <HAL_PCD_Init>
 800aa70:	4603      	mov	r3, r0
 800aa72:	2b00      	cmp	r3, #0
 800aa74:	d001      	beq.n	800aa7a <USBD_LL_Init+0x6e>
 800aa76:	f7f6 fe93 	bl	80017a0 <Error_Handler>
 800aa7a:	2180      	movs	r1, #128	; 0x80
 800aa7c:	4808      	ldr	r0, [pc, #32]	; (800aaa0 <USBD_LL_Init+0x94>)
 800aa7e:	f7fa fcc2 	bl	8005406 <HAL_PCDEx_SetRxFiFo>
 800aa82:	2240      	movs	r2, #64	; 0x40
 800aa84:	2100      	movs	r1, #0
 800aa86:	4806      	ldr	r0, [pc, #24]	; (800aaa0 <USBD_LL_Init+0x94>)
 800aa88:	f7fa fc76 	bl	8005378 <HAL_PCDEx_SetTxFiFo>
 800aa8c:	2280      	movs	r2, #128	; 0x80
 800aa8e:	2101      	movs	r1, #1
 800aa90:	4803      	ldr	r0, [pc, #12]	; (800aaa0 <USBD_LL_Init+0x94>)
 800aa92:	f7fa fc71 	bl	8005378 <HAL_PCDEx_SetTxFiFo>
 800aa96:	2300      	movs	r3, #0
 800aa98:	4618      	mov	r0, r3
 800aa9a:	3708      	adds	r7, #8
 800aa9c:	46bd      	mov	sp, r7
 800aa9e:	bd80      	pop	{r7, pc}
 800aaa0:	20000f14 	.word	0x20000f14

0800aaa4 <USBD_LL_Start>:
 800aaa4:	b580      	push	{r7, lr}
 800aaa6:	b084      	sub	sp, #16
 800aaa8:	af00      	add	r7, sp, #0
 800aaaa:	6078      	str	r0, [r7, #4]
 800aaac:	2300      	movs	r3, #0
 800aaae:	73fb      	strb	r3, [r7, #15]
 800aab0:	2300      	movs	r3, #0
 800aab2:	73bb      	strb	r3, [r7, #14]
 800aab4:	687b      	ldr	r3, [r7, #4]
 800aab6:	f8d3 32c8 	ldr.w	r3, [r3, #712]	; 0x2c8
 800aaba:	4618      	mov	r0, r3
 800aabc:	f7f9 fb7c 	bl	80041b8 <HAL_PCD_Start>
 800aac0:	4603      	mov	r3, r0
 800aac2:	73fb      	strb	r3, [r7, #15]
 800aac4:	7bfb      	ldrb	r3, [r7, #15]
 800aac6:	4618      	mov	r0, r3
 800aac8:	f000 f942 	bl	800ad50 <USBD_Get_USB_Status>
 800aacc:	4603      	mov	r3, r0
 800aace:	73bb      	strb	r3, [r7, #14]
 800aad0:	7bbb      	ldrb	r3, [r7, #14]
 800aad2:	4618      	mov	r0, r3
 800aad4:	3710      	adds	r7, #16
 800aad6:	46bd      	mov	sp, r7
 800aad8:	bd80      	pop	{r7, pc}

0800aada <USBD_LL_OpenEP>:
 800aada:	b580      	push	{r7, lr}
 800aadc:	b084      	sub	sp, #16
 800aade:	af00      	add	r7, sp, #0
 800aae0:	6078      	str	r0, [r7, #4]
 800aae2:	4608      	mov	r0, r1
 800aae4:	4611      	mov	r1, r2
 800aae6:	461a      	mov	r2, r3
 800aae8:	4603      	mov	r3, r0
 800aaea:	70fb      	strb	r3, [r7, #3]
 800aaec:	460b      	mov	r3, r1
 800aaee:	70bb      	strb	r3, [r7, #2]
 800aaf0:	4613      	mov	r3, r2
 800aaf2:	803b      	strh	r3, [r7, #0]
 800aaf4:	2300      	movs	r3, #0
 800aaf6:	73fb      	strb	r3, [r7, #15]
 800aaf8:	2300      	movs	r3, #0
 800aafa:	73bb      	strb	r3, [r7, #14]
 800aafc:	687b      	ldr	r3, [r7, #4]
 800aafe:	f8d3 02c8 	ldr.w	r0, [r3, #712]	; 0x2c8
 800ab02:	78bb      	ldrb	r3, [r7, #2]
 800ab04:	883a      	ldrh	r2, [r7, #0]
 800ab06:	78f9      	ldrb	r1, [r7, #3]
 800ab08:	f7fa f850 	bl	8004bac <HAL_PCD_EP_Open>
 800ab0c:	4603      	mov	r3, r0
 800ab0e:	73fb      	strb	r3, [r7, #15]
 800ab10:	7bfb      	ldrb	r3, [r7, #15]
 800ab12:	4618      	mov	r0, r3
 800ab14:	f000 f91c 	bl	800ad50 <USBD_Get_USB_Status>
 800ab18:	4603      	mov	r3, r0
 800ab1a:	73bb      	strb	r3, [r7, #14]
 800ab1c:	7bbb      	ldrb	r3, [r7, #14]
 800ab1e:	4618      	mov	r0, r3
 800ab20:	3710      	adds	r7, #16
 800ab22:	46bd      	mov	sp, r7
 800ab24:	bd80      	pop	{r7, pc}

0800ab26 <USBD_LL_CloseEP>:
 800ab26:	b580      	push	{r7, lr}
 800ab28:	b084      	sub	sp, #16
 800ab2a:	af00      	add	r7, sp, #0
 800ab2c:	6078      	str	r0, [r7, #4]
 800ab2e:	460b      	mov	r3, r1
 800ab30:	70fb      	strb	r3, [r7, #3]
 800ab32:	2300      	movs	r3, #0
 800ab34:	73fb      	strb	r3, [r7, #15]
 800ab36:	2300      	movs	r3, #0
 800ab38:	73bb      	strb	r3, [r7, #14]
 800ab3a:	687b      	ldr	r3, [r7, #4]
 800ab3c:	f8d3 32c8 	ldr.w	r3, [r3, #712]	; 0x2c8
 800ab40:	78fa      	ldrb	r2, [r7, #3]
 800ab42:	4611      	mov	r1, r2
 800ab44:	4618      	mov	r0, r3
 800ab46:	f7fa f89b 	bl	8004c80 <HAL_PCD_EP_Close>
 800ab4a:	4603      	mov	r3, r0
 800ab4c:	73fb      	strb	r3, [r7, #15]
 800ab4e:	7bfb      	ldrb	r3, [r7, #15]
 800ab50:	4618      	mov	r0, r3
 800ab52:	f000 f8fd 	bl	800ad50 <USBD_Get_USB_Status>
 800ab56:	4603      	mov	r3, r0
 800ab58:	73bb      	strb	r3, [r7, #14]
 800ab5a:	7bbb      	ldrb	r3, [r7, #14]
 800ab5c:	4618      	mov	r0, r3
 800ab5e:	3710      	adds	r7, #16
 800ab60:	46bd      	mov	sp, r7
 800ab62:	bd80      	pop	{r7, pc}

0800ab64 <USBD_LL_StallEP>:
 800ab64:	b580      	push	{r7, lr}
 800ab66:	b084      	sub	sp, #16
 800ab68:	af00      	add	r7, sp, #0
 800ab6a:	6078      	str	r0, [r7, #4]
 800ab6c:	460b      	mov	r3, r1
 800ab6e:	70fb      	strb	r3, [r7, #3]
 800ab70:	2300      	movs	r3, #0
 800ab72:	73fb      	strb	r3, [r7, #15]
 800ab74:	2300      	movs	r3, #0
 800ab76:	73bb      	strb	r3, [r7, #14]
 800ab78:	687b      	ldr	r3, [r7, #4]
 800ab7a:	f8d3 32c8 	ldr.w	r3, [r3, #712]	; 0x2c8
 800ab7e:	78fa      	ldrb	r2, [r7, #3]
 800ab80:	4611      	mov	r1, r2
 800ab82:	4618      	mov	r0, r3
 800ab84:	f7fa f953 	bl	8004e2e <HAL_PCD_EP_SetStall>
 800ab88:	4603      	mov	r3, r0
 800ab8a:	73fb      	strb	r3, [r7, #15]
 800ab8c:	7bfb      	ldrb	r3, [r7, #15]
 800ab8e:	4618      	mov	r0, r3
 800ab90:	f000 f8de 	bl	800ad50 <USBD_Get_USB_Status>
 800ab94:	4603      	mov	r3, r0
 800ab96:	73bb      	strb	r3, [r7, #14]
 800ab98:	7bbb      	ldrb	r3, [r7, #14]
 800ab9a:	4618      	mov	r0, r3
 800ab9c:	3710      	adds	r7, #16
 800ab9e:	46bd      	mov	sp, r7
 800aba0:	bd80      	pop	{r7, pc}

0800aba2 <USBD_LL_ClearStallEP>:
 800aba2:	b580      	push	{r7, lr}
 800aba4:	b084      	sub	sp, #16
 800aba6:	af00      	add	r7, sp, #0
 800aba8:	6078      	str	r0, [r7, #4]
 800abaa:	460b      	mov	r3, r1
 800abac:	70fb      	strb	r3, [r7, #3]
 800abae:	2300      	movs	r3, #0
 800abb0:	73fb      	strb	r3, [r7, #15]
 800abb2:	2300      	movs	r3, #0
 800abb4:	73bb      	strb	r3, [r7, #14]
 800abb6:	687b      	ldr	r3, [r7, #4]
 800abb8:	f8d3 32c8 	ldr.w	r3, [r3, #712]	; 0x2c8
 800abbc:	78fa      	ldrb	r2, [r7, #3]
 800abbe:	4611      	mov	r1, r2
 800abc0:	4618      	mov	r0, r3
 800abc2:	f7fa f997 	bl	8004ef4 <HAL_PCD_EP_ClrStall>
 800abc6:	4603      	mov	r3, r0
 800abc8:	73fb      	strb	r3, [r7, #15]
 800abca:	7bfb      	ldrb	r3, [r7, #15]
 800abcc:	4618      	mov	r0, r3
 800abce:	f000 f8bf 	bl	800ad50 <USBD_Get_USB_Status>
 800abd2:	4603      	mov	r3, r0
 800abd4:	73bb      	strb	r3, [r7, #14]
 800abd6:	7bbb      	ldrb	r3, [r7, #14]
 800abd8:	4618      	mov	r0, r3
 800abda:	3710      	adds	r7, #16
 800abdc:	46bd      	mov	sp, r7
 800abde:	bd80      	pop	{r7, pc}

0800abe0 <USBD_LL_IsStallEP>:
 800abe0:	b480      	push	{r7}
 800abe2:	b085      	sub	sp, #20
 800abe4:	af00      	add	r7, sp, #0
 800abe6:	6078      	str	r0, [r7, #4]
 800abe8:	460b      	mov	r3, r1
 800abea:	70fb      	strb	r3, [r7, #3]
 800abec:	687b      	ldr	r3, [r7, #4]
 800abee:	f8d3 32c8 	ldr.w	r3, [r3, #712]	; 0x2c8
 800abf2:	60fb      	str	r3, [r7, #12]
 800abf4:	f997 3003 	ldrsb.w	r3, [r7, #3]
 800abf8:	2b00      	cmp	r3, #0
 800abfa:	da0b      	bge.n	800ac14 <USBD_LL_IsStallEP+0x34>
 800abfc:	78fb      	ldrb	r3, [r7, #3]
 800abfe:	f003 027f 	and.w	r2, r3, #127	; 0x7f
 800ac02:	68f9      	ldr	r1, [r7, #12]
 800ac04:	4613      	mov	r3, r2
 800ac06:	00db      	lsls	r3, r3, #3
 800ac08:	4413      	add	r3, r2
 800ac0a:	009b      	lsls	r3, r3, #2
 800ac0c:	440b      	add	r3, r1
 800ac0e:	3316      	adds	r3, #22
 800ac10:	781b      	ldrb	r3, [r3, #0]
 800ac12:	e00b      	b.n	800ac2c <USBD_LL_IsStallEP+0x4c>
 800ac14:	78fb      	ldrb	r3, [r7, #3]
 800ac16:	f003 027f 	and.w	r2, r3, #127	; 0x7f
 800ac1a:	68f9      	ldr	r1, [r7, #12]
 800ac1c:	4613      	mov	r3, r2
 800ac1e:	00db      	lsls	r3, r3, #3
 800ac20:	4413      	add	r3, r2
 800ac22:	009b      	lsls	r3, r3, #2
 800ac24:	440b      	add	r3, r1
 800ac26:	f203 2356 	addw	r3, r3, #598	; 0x256
 800ac2a:	781b      	ldrb	r3, [r3, #0]
 800ac2c:	4618      	mov	r0, r3
 800ac2e:	3714      	adds	r7, #20
 800ac30:	46bd      	mov	sp, r7
 800ac32:	f85d 7b04 	ldr.w	r7, [sp], #4
 800ac36:	4770      	bx	lr

0800ac38 <USBD_LL_SetUSBAddress>:
 800ac38:	b580      	push	{r7, lr}
 800ac3a:	b084      	sub	sp, #16
 800ac3c:	af00      	add	r7, sp, #0
 800ac3e:	6078      	str	r0, [r7, #4]
 800ac40:	460b      	mov	r3, r1
 800ac42:	70fb      	strb	r3, [r7, #3]
 800ac44:	2300      	movs	r3, #0
 800ac46:	73fb      	strb	r3, [r7, #15]
 800ac48:	2300      	movs	r3, #0
 800ac4a:	73bb      	strb	r3, [r7, #14]
 800ac4c:	687b      	ldr	r3, [r7, #4]
 800ac4e:	f8d3 32c8 	ldr.w	r3, [r3, #712]	; 0x2c8
 800ac52:	78fa      	ldrb	r2, [r7, #3]
 800ac54:	4611      	mov	r1, r2
 800ac56:	4618      	mov	r0, r3
 800ac58:	f7f9 ff84 	bl	8004b64 <HAL_PCD_SetAddress>
 800ac5c:	4603      	mov	r3, r0
 800ac5e:	73fb      	strb	r3, [r7, #15]
 800ac60:	7bfb      	ldrb	r3, [r7, #15]
 800ac62:	4618      	mov	r0, r3
 800ac64:	f000 f874 	bl	800ad50 <USBD_Get_USB_Status>
 800ac68:	4603      	mov	r3, r0
 800ac6a:	73bb      	strb	r3, [r7, #14]
 800ac6c:	7bbb      	ldrb	r3, [r7, #14]
 800ac6e:	4618      	mov	r0, r3
 800ac70:	3710      	adds	r7, #16
 800ac72:	46bd      	mov	sp, r7
 800ac74:	bd80      	pop	{r7, pc}

0800ac76 <USBD_LL_Transmit>:
 800ac76:	b580      	push	{r7, lr}
 800ac78:	b086      	sub	sp, #24
 800ac7a:	af00      	add	r7, sp, #0
 800ac7c:	60f8      	str	r0, [r7, #12]
 800ac7e:	607a      	str	r2, [r7, #4]
 800ac80:	603b      	str	r3, [r7, #0]
 800ac82:	460b      	mov	r3, r1
 800ac84:	72fb      	strb	r3, [r7, #11]
 800ac86:	2300      	movs	r3, #0
 800ac88:	75fb      	strb	r3, [r7, #23]
 800ac8a:	2300      	movs	r3, #0
 800ac8c:	75bb      	strb	r3, [r7, #22]
 800ac8e:	68fb      	ldr	r3, [r7, #12]
 800ac90:	f8d3 02c8 	ldr.w	r0, [r3, #712]	; 0x2c8
 800ac94:	7af9      	ldrb	r1, [r7, #11]
 800ac96:	683b      	ldr	r3, [r7, #0]
 800ac98:	687a      	ldr	r2, [r7, #4]
 800ac9a:	f7fa f88e 	bl	8004dba <HAL_PCD_EP_Transmit>
 800ac9e:	4603      	mov	r3, r0
 800aca0:	75fb      	strb	r3, [r7, #23]
 800aca2:	7dfb      	ldrb	r3, [r7, #23]
 800aca4:	4618      	mov	r0, r3
 800aca6:	f000 f853 	bl	800ad50 <USBD_Get_USB_Status>
 800acaa:	4603      	mov	r3, r0
 800acac:	75bb      	strb	r3, [r7, #22]
 800acae:	7dbb      	ldrb	r3, [r7, #22]
 800acb0:	4618      	mov	r0, r3
 800acb2:	3718      	adds	r7, #24
 800acb4:	46bd      	mov	sp, r7
 800acb6:	bd80      	pop	{r7, pc}

0800acb8 <USBD_LL_PrepareReceive>:
 800acb8:	b580      	push	{r7, lr}
 800acba:	b086      	sub	sp, #24
 800acbc:	af00      	add	r7, sp, #0
 800acbe:	60f8      	str	r0, [r7, #12]
 800acc0:	607a      	str	r2, [r7, #4]
 800acc2:	603b      	str	r3, [r7, #0]
 800acc4:	460b      	mov	r3, r1
 800acc6:	72fb      	strb	r3, [r7, #11]
 800acc8:	2300      	movs	r3, #0
 800acca:	75fb      	strb	r3, [r7, #23]
 800accc:	2300      	movs	r3, #0
 800acce:	75bb      	strb	r3, [r7, #22]
 800acd0:	68fb      	ldr	r3, [r7, #12]
 800acd2:	f8d3 02c8 	ldr.w	r0, [r3, #712]	; 0x2c8
 800acd6:	7af9      	ldrb	r1, [r7, #11]
 800acd8:	683b      	ldr	r3, [r7, #0]
 800acda:	687a      	ldr	r2, [r7, #4]
 800acdc:	f7fa f81a 	bl	8004d14 <HAL_PCD_EP_Receive>
 800ace0:	4603      	mov	r3, r0
 800ace2:	75fb      	strb	r3, [r7, #23]
 800ace4:	7dfb      	ldrb	r3, [r7, #23]
 800ace6:	4618      	mov	r0, r3
 800ace8:	f000 f832 	bl	800ad50 <USBD_Get_USB_Status>
 800acec:	4603      	mov	r3, r0
 800acee:	75bb      	strb	r3, [r7, #22]
 800acf0:	7dbb      	ldrb	r3, [r7, #22]
 800acf2:	4618      	mov	r0, r3
 800acf4:	3718      	adds	r7, #24
 800acf6:	46bd      	mov	sp, r7
 800acf8:	bd80      	pop	{r7, pc}

0800acfa <USBD_LL_GetRxDataSize>:
 800acfa:	b580      	push	{r7, lr}
 800acfc:	b082      	sub	sp, #8
 800acfe:	af00      	add	r7, sp, #0
 800ad00:	6078      	str	r0, [r7, #4]
 800ad02:	460b      	mov	r3, r1
 800ad04:	70fb      	strb	r3, [r7, #3]
 800ad06:	687b      	ldr	r3, [r7, #4]
 800ad08:	f8d3 32c8 	ldr.w	r3, [r3, #712]	; 0x2c8
 800ad0c:	78fa      	ldrb	r2, [r7, #3]
 800ad0e:	4611      	mov	r1, r2
 800ad10:	4618      	mov	r0, r3
 800ad12:	f7fa f83a 	bl	8004d8a <HAL_PCD_EP_GetRxCount>
 800ad16:	4603      	mov	r3, r0
 800ad18:	4618      	mov	r0, r3
 800ad1a:	3708      	adds	r7, #8
 800ad1c:	46bd      	mov	sp, r7
 800ad1e:	bd80      	pop	{r7, pc}

0800ad20 <USBD_static_malloc>:
 800ad20:	b480      	push	{r7}
 800ad22:	b083      	sub	sp, #12
 800ad24:	af00      	add	r7, sp, #0
 800ad26:	6078      	str	r0, [r7, #4]
 800ad28:	4b03      	ldr	r3, [pc, #12]	; (800ad38 <USBD_static_malloc+0x18>)
 800ad2a:	4618      	mov	r0, r3
 800ad2c:	370c      	adds	r7, #12
 800ad2e:	46bd      	mov	sp, r7
 800ad30:	f85d 7b04 	ldr.w	r7, [sp], #4
 800ad34:	4770      	bx	lr
 800ad36:	bf00      	nop
 800ad38:	200013f8 	.word	0x200013f8

0800ad3c <USBD_static_free>:
 800ad3c:	b480      	push	{r7}
 800ad3e:	b083      	sub	sp, #12
 800ad40:	af00      	add	r7, sp, #0
 800ad42:	6078      	str	r0, [r7, #4]
 800ad44:	bf00      	nop
 800ad46:	370c      	adds	r7, #12
 800ad48:	46bd      	mov	sp, r7
 800ad4a:	f85d 7b04 	ldr.w	r7, [sp], #4
 800ad4e:	4770      	bx	lr

0800ad50 <USBD_Get_USB_Status>:
 800ad50:	b480      	push	{r7}
 800ad52:	b085      	sub	sp, #20
 800ad54:	af00      	add	r7, sp, #0
 800ad56:	4603      	mov	r3, r0
 800ad58:	71fb      	strb	r3, [r7, #7]
 800ad5a:	2300      	movs	r3, #0
 800ad5c:	73fb      	strb	r3, [r7, #15]
 800ad5e:	79fb      	ldrb	r3, [r7, #7]
 800ad60:	2b03      	cmp	r3, #3
 800ad62:	d817      	bhi.n	800ad94 <USBD_Get_USB_Status+0x44>
 800ad64:	a201      	add	r2, pc, #4	; (adr r2, 800ad6c <USBD_Get_USB_Status+0x1c>)
 800ad66:	f852 f023 	ldr.w	pc, [r2, r3, lsl #2]
 800ad6a:	bf00      	nop
 800ad6c:	0800ad7d 	.word	0x0800ad7d
 800ad70:	0800ad83 	.word	0x0800ad83
 800ad74:	0800ad89 	.word	0x0800ad89
 800ad78:	0800ad8f 	.word	0x0800ad8f
 800ad7c:	2300      	movs	r3, #0
 800ad7e:	73fb      	strb	r3, [r7, #15]
 800ad80:	e00b      	b.n	800ad9a <USBD_Get_USB_Status+0x4a>
 800ad82:	2303      	movs	r3, #3
 800ad84:	73fb      	strb	r3, [r7, #15]
 800ad86:	e008      	b.n	800ad9a <USBD_Get_USB_Status+0x4a>
 800ad88:	2301      	movs	r3, #1
 800ad8a:	73fb      	strb	r3, [r7, #15]
 800ad8c:	e005      	b.n	800ad9a <USBD_Get_USB_Status+0x4a>
 800ad8e:	2303      	movs	r3, #3
 800ad90:	73fb      	strb	r3, [r7, #15]
 800ad92:	e002      	b.n	800ad9a <USBD_Get_USB_Status+0x4a>
 800ad94:	2303      	movs	r3, #3
 800ad96:	73fb      	strb	r3, [r7, #15]
 800ad98:	bf00      	nop
 800ad9a:	7bfb      	ldrb	r3, [r7, #15]
 800ad9c:	4618      	mov	r0, r3
 800ad9e:	3714      	adds	r7, #20
 800ada0:	46bd      	mov	sp, r7
 800ada2:	f85d 7b04 	ldr.w	r7, [sp], #4
 800ada6:	4770      	bx	lr

0800ada8 <memset>:
 800ada8:	4402      	add	r2, r0
 800adaa:	4603      	mov	r3, r0
 800adac:	4293      	cmp	r3, r2
 800adae:	d100      	bne.n	800adb2 <memset+0xa>
 800adb0:	4770      	bx	lr
 800adb2:	f803 1b01 	strb.w	r1, [r3], #1
 800adb6:	e7f9      	b.n	800adac <memset+0x4>

0800adb8 <__libc_init_array>:
 800adb8:	b570      	push	{r4, r5, r6, lr}
 800adba:	4d0d      	ldr	r5, [pc, #52]	; (800adf0 <__libc_init_array+0x38>)
 800adbc:	4c0d      	ldr	r4, [pc, #52]	; (800adf4 <__libc_init_array+0x3c>)
 800adbe:	1b64      	subs	r4, r4, r5
 800adc0:	10a4      	asrs	r4, r4, #2
 800adc2:	2600      	movs	r6, #0
 800adc4:	42a6      	cmp	r6, r4
 800adc6:	d109      	bne.n	800addc <__libc_init_array+0x24>
 800adc8:	4d0b      	ldr	r5, [pc, #44]	; (800adf8 <__libc_init_array+0x40>)
 800adca:	4c0c      	ldr	r4, [pc, #48]	; (800adfc <__libc_init_array+0x44>)
 800adcc:	f000 f818 	bl	800ae00 <_init>
 800add0:	1b64      	subs	r4, r4, r5
 800add2:	10a4      	asrs	r4, r4, #2
 800add4:	2600      	movs	r6, #0
 800add6:	42a6      	cmp	r6, r4
 800add8:	d105      	bne.n	800ade6 <__libc_init_array+0x2e>
 800adda:	bd70      	pop	{r4, r5, r6, pc}
 800addc:	f855 3b04 	ldr.w	r3, [r5], #4
 800ade0:	4798      	blx	r3
 800ade2:	3601      	adds	r6, #1
 800ade4:	e7ee      	b.n	800adc4 <__libc_init_array+0xc>
 800ade6:	f855 3b04 	ldr.w	r3, [r5], #4
 800adea:	4798      	blx	r3
 800adec:	3601      	adds	r6, #1
 800adee:	e7f2      	b.n	800add6 <__libc_init_array+0x1e>
 800adf0:	0800ae88 	.word	0x0800ae88
 800adf4:	0800ae88 	.word	0x0800ae88
 800adf8:	0800ae88 	.word	0x0800ae88
 800adfc:	0800ae8c 	.word	0x0800ae8c

0800ae00 <_init>:
 800ae00:	b5f8      	push	{r3, r4, r5, r6, r7, lr}
 800ae02:	bf00      	nop
 800ae04:	bcf8      	pop	{r3, r4, r5, r6, r7}
 800ae06:	bc08      	pop	{r3}
 800ae08:	469e      	mov	lr, r3
 800ae0a:	4770      	bx	lr

0800ae0c <_fini>:
 800ae0c:	b5f8      	push	{r3, r4, r5, r6, r7, lr}
 800ae0e:	bf00      	nop
 800ae10:	bcf8      	pop	{r3, r4, r5, r6, r7}
 800ae12:	bc08      	pop	{r3}
 800ae14:	469e      	mov	lr, r3
 800ae16:	4770      	bx	lr
